ARM GAS  C:\Users\vboxuser\AppData\Local\Temp\ccyZNGFK.s 			page 1


   1              		.syntax unified
   2              		.cpu cortex-m3
   3              		.fpu softvfp
   4              		.eabi_attribute 20, 1
   5              		.eabi_attribute 21, 1
   6              		.eabi_attribute 23, 3
   7              		.eabi_attribute 24, 1
   8              		.eabi_attribute 25, 1
   9              		.eabi_attribute 26, 1
  10              		.eabi_attribute 30, 1
  11              		.eabi_attribute 34, 1
  12              		.eabi_attribute 18, 4
  13              		.thumb
  14              		.syntax unified
  15              		.file	"cfar.c"
  16              		.text
  17              	.Ltext0:
  18              		.cfi_sections	.debug_frame
  19              		.global	__aeabi_i2f
  20              		.global	__aeabi_fmul
  21              		.global	__aeabi_fadd
  22              		.global	__aeabi_f2d
  23              		.global	__aeabi_f2iz
  24              		.global	__aeabi_dcmpeq
  25              		.global	__aeabi_dmul
  26              		.global	__aeabi_d2f
  27              		.section	.text.calcPowerSpectrum,"ax",%progbits
  28              		.align	2
  29              		.global	calcPowerSpectrum
  30              		.thumb
  31              		.thumb_func
  32              		.type	calcPowerSpectrum, %function
  33              	calcPowerSpectrum:
  34              	.LFB123:
  35              		.file 1 "asw\\cfar.c"
   1:asw/cfar.c    **** /**
   2:asw/cfar.c    **** * \file <filename>
   3:asw/cfar.c    **** * \author <author-name>
   4:asw/cfar.c    **** * \date <date>
   5:asw/cfar.c    **** *
   6:asw/cfar.c    **** * \brief <Symbolic File name>
   7:asw/cfar.c    **** *
   8:asw/cfar.c    **** * \copyright Copyright ©2016
   9:asw/cfar.c    **** * Department of electrical engineering and information technology, Hochschule Darmstadt - Universit
  10:asw/cfar.c    **** * Permission to use, copy, modify, and distribute this software and its documentation for education
  11:asw/cfar.c    **** * (unless permitted by h_da) and official h_da projects, is hereby granted for enrolled students of
  12:asw/cfar.c    **** * this paragraph and the following paragraph appear in all copies, modifications, and distributions
  13:asw/cfar.c    **** * Contact Prof.Dr.-Ing. Peter Fromm, peter.fromm@h-da.de, Birkenweg 8 64295 Darmstadt - GERMANY for
  14:asw/cfar.c    **** *
  15:asw/cfar.c    **** * \warning This software is a PROTOTYPE version and is not designed or intended for use in producti
  16:asw/cfar.c    **** * The user represents and warrants that it will NOT use or redistribute the Software for such purpo
  17:asw/cfar.c    **** * This prototype is for research purposes only. This software is provided "AS IS," without a warran
  18:asw/cfar.c    **** */
  19:asw/cfar.c    **** 
  20:asw/cfar.c    **** /*****************************************************************************/
  21:asw/cfar.c    **** /* Include files                                                             */
  22:asw/cfar.c    **** /*****************************************************************************/
ARM GAS  C:\Users\vboxuser\AppData\Local\Temp\ccyZNGFK.s 			page 2


  23:asw/cfar.c    **** #include <math.h>
  24:asw/cfar.c    **** #include <stdint.h>
  25:asw/cfar.c    **** #include <string.h>
  26:asw/cfar.c    **** #include "cfar.h"
  27:asw/cfar.c    **** #include "logging.h"
  28:asw/cfar.c    **** #include "arm_math.h"
  29:asw/cfar.c    **** /*****************************************************************************/
  30:asw/cfar.c    **** /* Local pre-processor symbols/macros ('#define')                            */
  31:asw/cfar.c    **** /*****************************************************************************/
  32:asw/cfar.c    **** 
  33:asw/cfar.c    **** /*****************************************************************************/
  34:asw/cfar.c    **** /* Global variable definitions (declared in header file with 'extern')       */
  35:asw/cfar.c    **** /*****************************************************************************/
  36:asw/cfar.c    **** 
  37:asw/cfar.c    **** /*****************************************************************************/
  38:asw/cfar.c    **** /* Local type definitions ('typedef')                                        */
  39:asw/cfar.c    **** /*****************************************************************************/
  40:asw/cfar.c    **** 
  41:asw/cfar.c    **** /*****************************************************************************/
  42:asw/cfar.c    **** /* Local variable definitions ('static')                                     */
  43:asw/cfar.c    **** /*****************************************************************************/
  44:asw/cfar.c    **** 
  45:asw/cfar.c    **** 
  46:asw/cfar.c    **** 
  47:asw/cfar.c    **** /*****************************************************************************/
  48:asw/cfar.c    **** /* Local function prototypes ('static')                                      */
  49:asw/cfar.c    **** /*****************************************************************************/
  50:asw/cfar.c    **** 
  51:asw/cfar.c    **** 
  52:asw/cfar.c    **** 
  53:asw/cfar.c    **** /*****************************************************************************/
  54:asw/cfar.c    **** /* Function implementation - global ('extern') and local ('static')          */
  55:asw/cfar.c    **** /*****************************************************************************/
  56:asw/cfar.c    **** 
  57:asw/cfar.c    **** /**
  58:asw/cfar.c    ****  * <Description>
  59:asw/cfar.c    ****  * \param <first para>
  60:asw/cfar.c    ****  * \return <return value>
  61:asw/cfar.c    ****  */
  62:asw/cfar.c    **** RC_t calcPowerSpectrum(sint32_t *fft_buffer, uint16_t fft_length, sint32_t *mag_square, sint32_t *p
  36              		.loc 1 62 0
  37              		.cfi_startproc
  38              		@ args = 0, pretend = 0, frame = 0
  39              		@ frame_needed = 0, uses_anonymous_args = 0
  40              	.LVL0:
  63:asw/cfar.c    ****     if (fft_length % 2 != 0) {
  41              		.loc 1 63 0
  42 0000 11F0010F 		tst	r1, #1
  43 0004 4CD1     		bne	.L8
  62:asw/cfar.c    ****     if (fft_length % 2 != 0) {
  44              		.loc 1 62 0
  45 0006 2DE9F84F 		push	{r3, r4, r5, r6, r7, r8, r9, r10, fp, lr}
  46              		.cfi_def_cfa_offset 40
  47              		.cfi_offset 3, -40
  48              		.cfi_offset 4, -36
  49              		.cfi_offset 5, -32
  50              		.cfi_offset 6, -28
ARM GAS  C:\Users\vboxuser\AppData\Local\Temp\ccyZNGFK.s 			page 3


  51              		.cfi_offset 7, -24
  52              		.cfi_offset 8, -20
  53              		.cfi_offset 9, -16
  54              		.cfi_offset 10, -12
  55              		.cfi_offset 11, -8
  56              		.cfi_offset 14, -4
  57 000a 9B46     		mov	fp, r3
  58 000c 9246     		mov	r10, r2
  59 000e 0646     		mov	r6, r0
  64:asw/cfar.c    ****         return RC_ERROR_BAD_PARAM;
  65:asw/cfar.c    ****     }
  66:asw/cfar.c    ****     
  67:asw/cfar.c    ****     uint16_t half_length = fft_length / 2;
  60              		.loc 1 67 0
  61 0010 4F08     		lsrs	r7, r1, #1
  62              	.LVL1:
  63              	.LBB2:
  68:asw/cfar.c    **** 
  69:asw/cfar.c    ****     for (uint16_t idx = 0; idx < half_length; idx++) {
  64              		.loc 1 69 0
  65 0012 0024     		movs	r4, #0
  66 0014 3FE0     		b	.L3
  67              	.LVL2:
  68              	.L7:
  69              	.LBB3:
  70:asw/cfar.c    ****         float32_t real = (float32_t)fft_buffer[2 * idx];
  70              		.loc 1 70 0
  71 0016 E500     		lsls	r5, r4, #3
  72 0018 56F83400 		ldr	r0, [r6, r4, lsl #3]
  73 001c FFF7FEFF 		bl	__aeabi_i2f
  74              	.LVL3:
  75 0020 8046     		mov	r8, r0
  76              	.LVL4:
  71:asw/cfar.c    ****         float32_t imag = (float32_t)fft_buffer[2 * idx + 1];
  77              		.loc 1 71 0
  78 0022 3544     		add	r5, r5, r6
  79 0024 6868     		ldr	r0, [r5, #4]
  80              	.LVL5:
  81 0026 FFF7FEFF 		bl	__aeabi_i2f
  82              	.LVL6:
  83 002a 0546     		mov	r5, r0
  84              	.LVL7:
  72:asw/cfar.c    ****         float64_t magnitude = 2*(real * real + imag * imag);
  85              		.loc 1 72 0
  86 002c 4146     		mov	r1, r8
  87 002e 4046     		mov	r0, r8
  88              	.LVL8:
  89 0030 FFF7FEFF 		bl	__aeabi_fmul
  90              	.LVL9:
  91 0034 8046     		mov	r8, r0
  92              	.LVL10:
  93 0036 2946     		mov	r1, r5
  94 0038 2846     		mov	r0, r5
  95 003a FFF7FEFF 		bl	__aeabi_fmul
  96              	.LVL11:
  97 003e 0146     		mov	r1, r0
  98 0040 4046     		mov	r0, r8
ARM GAS  C:\Users\vboxuser\AppData\Local\Temp\ccyZNGFK.s 			page 4


  99 0042 FFF7FEFF 		bl	__aeabi_fadd
 100              	.LVL12:
 101 0046 0146     		mov	r1, r0
 102 0048 FFF7FEFF 		bl	__aeabi_fadd
 103              	.LVL13:
 104 004c 0546     		mov	r5, r0
 105              	.LVL14:
 106 004e FFF7FEFF 		bl	__aeabi_f2d
 107              	.LVL15:
 108 0052 8046     		mov	r8, r0
 109 0054 8946     		mov	r9, r1
 110              	.LVL16:
  73:asw/cfar.c    ****         
  74:asw/cfar.c    ****         mag_square[idx] = (sint32_t)((magnitude));
 111              		.loc 1 74 0
 112 0056 2846     		mov	r0, r5
 113 0058 FFF7FEFF 		bl	__aeabi_f2iz
 114              	.LVL17:
 115 005c 4AF82400 		str	r0, [r10, r4, lsl #2]
  75:asw/cfar.c    **** 
  76:asw/cfar.c    ****         if (magnitude == 0) {
 116              		.loc 1 76 0
 117 0060 0022     		movs	r2, #0
 118 0062 0023     		movs	r3, #0
 119 0064 4046     		mov	r0, r8
 120 0066 4946     		mov	r1, r9
 121 0068 FFF7FEFF 		bl	__aeabi_dcmpeq
 122              	.LVL18:
 123 006c 18B1     		cbz	r0, .L10
  77:asw/cfar.c    ****             
  78:asw/cfar.c    ****             power[idx] = 0;  // or any minimum value you consider appropriate
 124              		.loc 1 78 0
 125 006e 0023     		movs	r3, #0
 126 0070 4BF82430 		str	r3, [fp, r4, lsl #2]
 127 0074 0DE0     		b	.L6
 128              	.L10:
 129              	.LBB4:
  79:asw/cfar.c    ****         } else {
  80:asw/cfar.c    ****             float power_dB = 10*log10(magnitude);
 130              		.loc 1 80 0
 131 0076 4046     		mov	r0, r8
 132 0078 4946     		mov	r1, r9
 133 007a FFF7FEFF 		bl	log10
 134              	.LVL19:
 135 007e 0022     		movs	r2, #0
 136 0080 094B     		ldr	r3, .L13
 137 0082 FFF7FEFF 		bl	__aeabi_dmul
 138              	.LVL20:
 139 0086 FFF7FEFF 		bl	__aeabi_d2f
 140              	.LVL21:
  81:asw/cfar.c    ****             
  82:asw/cfar.c    ****             power[idx] = (sint32_t)power_dB;
 141              		.loc 1 82 0
 142 008a FFF7FEFF 		bl	__aeabi_f2iz
 143              	.LVL22:
 144 008e 4BF82400 		str	r0, [fp, r4, lsl #2]
 145              	.L6:
ARM GAS  C:\Users\vboxuser\AppData\Local\Temp\ccyZNGFK.s 			page 5


 146              	.LBE4:
 147              	.LBE3:
  69:asw/cfar.c    ****         float32_t real = (float32_t)fft_buffer[2 * idx];
 148              		.loc 1 69 0 discriminator 2
 149 0092 0134     		adds	r4, r4, #1
 150              	.LVL23:
 151 0094 A4B2     		uxth	r4, r4
 152              	.LVL24:
 153              	.L3:
  69:asw/cfar.c    ****         float32_t real = (float32_t)fft_buffer[2 * idx];
 154              		.loc 1 69 0 is_stmt 0 discriminator 1
 155 0096 BC42     		cmp	r4, r7
 156 0098 BDD3     		bcc	.L7
 157              	.LBE2:
  83:asw/cfar.c    ****         }
  84:asw/cfar.c    ****     }
  85:asw/cfar.c    **** 
  86:asw/cfar.c    ****     return RC_SUCCESS;
 158              		.loc 1 86 0 is_stmt 1
 159 009a 0020     		movs	r0, #0
 160              	.LBB5:
 161 009c BDE8F88F 		pop	{r3, r4, r5, r6, r7, r8, r9, r10, fp, pc}
 162              	.LVL25:
 163              	.L8:
 164              		.cfi_def_cfa_offset 0
 165              		.cfi_restore 3
 166              		.cfi_restore 4
 167              		.cfi_restore 5
 168              		.cfi_restore 6
 169              		.cfi_restore 7
 170              		.cfi_restore 8
 171              		.cfi_restore 9
 172              		.cfi_restore 10
 173              		.cfi_restore 11
 174              		.cfi_restore 14
 175              	.LBE5:
  64:asw/cfar.c    ****     }
 176              		.loc 1 64 0
 177 00a0 6FF01300 		mvn	r0, #19
 178              	.LVL26:
 179 00a4 7047     		bx	lr
 180              	.L14:
 181 00a6 00BF     		.align	2
 182              	.L13:
 183 00a8 00002440 		.word	1076101120
 184              		.cfi_endproc
 185              	.LFE123:
 186              		.size	calcPowerSpectrum, .-calcPowerSpectrum
 187              		.global	__aeabi_i2d
 188              		.global	__aeabi_ddiv
 189              		.global	__aeabi_dsub
 190              		.global	__aeabi_dadd
 191              		.global	__aeabi_d2iz
 192              		.section	.text.CA_CFAR,"ax",%progbits
 193              		.align	2
 194              		.global	CA_CFAR
 195              		.thumb
ARM GAS  C:\Users\vboxuser\AppData\Local\Temp\ccyZNGFK.s 			page 6


 196              		.thumb_func
 197              		.type	CA_CFAR, %function
 198              	CA_CFAR:
 199              	.LFB124:
  87:asw/cfar.c    **** }
  88:asw/cfar.c    **** /**
  89:asw/cfar.c    ****  * Cell Averaging CFAR algorithm
  90:asw/cfar.c    ****  * \param NR : Number of reference cell
  91:asw/cfar.c    ****  * \param NG : Number of guard cell
  92:asw/cfar.c    ****  * \param PFA : Probability of False Alarm
  93:asw/cfar.c    ****  * \return <return value>
  94:asw/cfar.c    ****  */
  95:asw/cfar.c    **** 
  96:asw/cfar.c    **** RC_t CA_CFAR(sint32_t *fftInput, uint16_t N, uint8_t NG, uint8_t NR, float64_t PFA, sint32_t* CAFRT
 200              		.loc 1 96 0
 201              		.cfi_startproc
 202              		@ args = 20, pretend = 0, frame = 32
 203              		@ frame_needed = 0, uses_anonymous_args = 0
 204              	.LVL27:
 205 0000 2DE9F04F 		push	{r4, r5, r6, r7, r8, r9, r10, fp, lr}
 206              		.cfi_def_cfa_offset 36
 207              		.cfi_offset 4, -36
 208              		.cfi_offset 5, -32
 209              		.cfi_offset 6, -28
 210              		.cfi_offset 7, -24
 211              		.cfi_offset 8, -20
 212              		.cfi_offset 9, -16
 213              		.cfi_offset 10, -12
 214              		.cfi_offset 11, -8
 215              		.cfi_offset 14, -4
 216 0004 89B0     		sub	sp, sp, #36
 217              		.cfi_def_cfa_offset 72
 218 0006 DDF85490 		ldr	r9, [sp, #84]
  97:asw/cfar.c    ****     
  98:asw/cfar.c    ****     
  99:asw/cfar.c    ****     if ( N <= (2* NG+ NR)){
 219              		.loc 1 99 0
 220 000a 03EB4204 		add	r4, r3, r2, lsl #1
 221 000e A142     		cmp	r1, r4
 222 0010 40F38B80 		ble	.L23
 223 0014 9346     		mov	fp, r2
 224 0016 1F46     		mov	r7, r3
 225 0018 1E46     		mov	r6, r3
 226 001a 8846     		mov	r8, r1
 227 001c 8246     		mov	r10, r0
 100:asw/cfar.c    ****         return RC_ERROR_BAD_PARAM;
 101:asw/cfar.c    ****     }
 102:asw/cfar.c    ****     
 103:asw/cfar.c    ****     float64_t alpha = NR*2*(pow(PFA, -1.0/(NR*2)) -1);
 228              		.loc 1 103 0
 229 001e 5800     		lsls	r0, r3, #1
 230              	.LVL28:
 231 0020 FFF7FEFF 		bl	__aeabi_i2d
 232              	.LVL29:
 233 0024 CDE90401 		strd	r0, [sp, #16]
 234 0028 0246     		mov	r2, r0
 235 002a 0B46     		mov	r3, r1
ARM GAS  C:\Users\vboxuser\AppData\Local\Temp\ccyZNGFK.s 			page 7


 236 002c 0020     		movs	r0, #0
 237 002e 4149     		ldr	r1, .L26
 238 0030 FFF7FEFF 		bl	__aeabi_ddiv
 239              	.LVL30:
 240 0034 0246     		mov	r2, r0
 241 0036 0B46     		mov	r3, r1
 242 0038 DDE91201 		ldrd	r0, [sp, #72]
 243 003c FFF7FEFF 		bl	pow
 244              	.LVL31:
 245 0040 0022     		movs	r2, #0
 246 0042 3D4B     		ldr	r3, .L26+4
 247 0044 FFF7FEFF 		bl	__aeabi_dsub
 248              	.LVL32:
 249 0048 0246     		mov	r2, r0
 250 004a 0B46     		mov	r3, r1
 251 004c DDE90401 		ldrd	r0, [sp, #16]
 252 0050 FFF7FEFF 		bl	__aeabi_dmul
 253              	.LVL33:
 254 0054 CDE90601 		strd	r0, [sp, #24]
 255              	.LVL34:
 104:asw/cfar.c    ****     *first_CUT_Index = NG + NR;
 256              		.loc 1 104 0
 257 0058 1FFA8BF4 		uxth	r4, fp
 258 005c BBB2     		uxth	r3, r7
 259 005e E218     		adds	r2, r4, r3
 260 0060 A9F80020 		strh	r2, [r9]	@ movhi
 105:asw/cfar.c    ****     *last_CUT_index = N - NG - NR -1;
 261              		.loc 1 105 0
 262 0064 C4EB0804 		rsb	r4, r4, r8
 263 0068 E31A     		subs	r3, r4, r3
 264 006a 013B     		subs	r3, r3, #1
 265 006c 169A     		ldr	r2, [sp, #88]
 266 006e 1380     		strh	r3, [r2]	@ movhi
 267              	.LVL35:
 268              	.LBB6:
 106:asw/cfar.c    **** 
 107:asw/cfar.c    ****     for(uint16_t CUT = 0; CUT < N; ++CUT){
 269              		.loc 1 107 0
 270 0070 0025     		movs	r5, #0
 271 0072 56E0     		b	.L17
 272              	.LVL36:
 273              	.L22:
 108:asw/cfar.c    ****         
 109:asw/cfar.c    ****         if(CUT >= *first_CUT_Index && CUT <= *last_CUT_index){
 274              		.loc 1 109 0
 275 0074 B9F80030 		ldrh	r3, [r9]
 276 0078 9D42     		cmp	r5, r3
 277 007a 4CD3     		bcc	.L18
 278              		.loc 1 109 0 is_stmt 0 discriminator 1
 279 007c 169B     		ldr	r3, [sp, #88]
 280 007e 1B88     		ldrh	r3, [r3]
 281 0080 9D42     		cmp	r5, r3
 282 0082 23D9     		bls	.L24
 283 0084 47E0     		b	.L18
 284              	.LVL37:
 285              	.L20:
 286              	.LBB7:
ARM GAS  C:\Users\vboxuser\AppData\Local\Temp\ccyZNGFK.s 			page 8


 287              	.LBB8:
 110:asw/cfar.c    ****         
 111:asw/cfar.c    ****             float64_t sumLeading = 0.0;
 112:asw/cfar.c    ****             float64_t sumTrailing = 0.0;
 113:asw/cfar.c    ****             // Calculate sum of leading and trailing window
 114:asw/cfar.c    ****             for (uint8_t i =0; i < NR; ++i){
 115:asw/cfar.c    ****                 sumLeading += fftInput[CUT - NG - NR + i];
 288              		.loc 1 115 0 is_stmt 1 discriminator 3
 289 0086 CBEB0503 		rsb	r3, fp, r5
 290 008a DB1B     		subs	r3, r3, r7
 291 008c 2344     		add	r3, r3, r4
 292 008e 5AF82300 		ldr	r0, [r10, r3, lsl #2]
 293 0092 FFF7FEFF 		bl	__aeabi_i2d
 294              	.LVL38:
 295 0096 0246     		mov	r2, r0
 296 0098 0B46     		mov	r3, r1
 297 009a DDE90001 		ldrd	r0, [sp]
 298 009e FFF7FEFF 		bl	__aeabi_dadd
 299              	.LVL39:
 300 00a2 CDE90001 		strd	r0, [sp]
 301              	.LVL40:
 116:asw/cfar.c    ****                 sumTrailing += fftInput[CUT + NG + i +1];  
 302              		.loc 1 116 0 discriminator 3
 303 00a6 0BEB0503 		add	r3, fp, r5
 304 00aa 2344     		add	r3, r3, r4
 305 00ac 0133     		adds	r3, r3, #1
 306 00ae 5AF82300 		ldr	r0, [r10, r3, lsl #2]
 307              	.LVL41:
 308 00b2 FFF7FEFF 		bl	__aeabi_i2d
 309              	.LVL42:
 310 00b6 0246     		mov	r2, r0
 311 00b8 0B46     		mov	r3, r1
 312 00ba DDE90201 		ldrd	r0, [sp, #8]
 313 00be FFF7FEFF 		bl	__aeabi_dadd
 314              	.LVL43:
 315 00c2 CDE90201 		strd	r0, [sp, #8]
 316              	.LVL44:
 114:asw/cfar.c    ****                 sumLeading += fftInput[CUT - NG - NR + i];
 317              		.loc 1 114 0 discriminator 3
 318 00c6 0134     		adds	r4, r4, #1
 319              	.LVL45:
 320 00c8 E4B2     		uxtb	r4, r4
 321              	.LVL46:
 322 00ca 06E0     		b	.L19
 323              	.LVL47:
 324              	.L24:
 325              	.LBE8:
 326              	.LBE7:
 327 00cc 0024     		movs	r4, #0
 328 00ce 0022     		movs	r2, #0
 329 00d0 0023     		movs	r3, #0
 330 00d2 CDE90223 		strd	r2, [sp, #8]
 331 00d6 CDE90023 		strd	r2, [sp]
 332              	.L19:
 333              	.LVL48:
 334              	.LBB10:
 335              	.LBB9:
ARM GAS  C:\Users\vboxuser\AppData\Local\Temp\ccyZNGFK.s 			page 9


 114:asw/cfar.c    ****                 sumLeading += fftInput[CUT - NG - NR + i];
 336              		.loc 1 114 0 is_stmt 0 discriminator 1
 337 00da B442     		cmp	r4, r6
 338 00dc D3D3     		bcc	.L20
 339              	.LBE9:
 117:asw/cfar.c    ****             }
 118:asw/cfar.c    ****     
 119:asw/cfar.c    ****             float64_t noiseLevel = (sumLeading + sumTrailing) / (2* NR);
 340              		.loc 1 119 0 is_stmt 1
 341 00de DDE90223 		ldrd	r2, [sp, #8]
 342 00e2 DDE90001 		ldrd	r0, [sp]
 343 00e6 FFF7FEFF 		bl	__aeabi_dadd
 344              	.LVL49:
 345 00ea DDE90423 		ldrd	r2, [sp, #16]
 346 00ee FFF7FEFF 		bl	__aeabi_ddiv
 347              	.LVL50:
 120:asw/cfar.c    ****             
 121:asw/cfar.c    ****             
 122:asw/cfar.c    ****             float64_t threshold = alpha * noiseLevel;
 348              		.loc 1 122 0
 349 00f2 0246     		mov	r2, r0
 350 00f4 0B46     		mov	r3, r1
 351 00f6 DDE90601 		ldrd	r0, [sp, #24]
 352              	.LVL51:
 353 00fa FFF7FEFF 		bl	__aeabi_dmul
 354              	.LVL52:
 123:asw/cfar.c    ****             
 124:asw/cfar.c    ****             CAFRThreshold[CUT] = (sint32_t)(10*log10(threshold));
 355              		.loc 1 124 0
 356 00fe FFF7FEFF 		bl	log10
 357              	.LVL53:
 358 0102 0022     		movs	r2, #0
 359 0104 0D4B     		ldr	r3, .L26+8
 360 0106 FFF7FEFF 		bl	__aeabi_dmul
 361              	.LVL54:
 362 010a FFF7FEFF 		bl	__aeabi_d2iz
 363              	.LVL55:
 364 010e 149B     		ldr	r3, [sp, #80]
 365 0110 43F82500 		str	r0, [r3, r5, lsl #2]
 366              	.LBE10:
 109:asw/cfar.c    ****         
 367              		.loc 1 109 0
 368 0114 03E0     		b	.L21
 369              	.LVL56:
 370              	.L18:
 125:asw/cfar.c    ****             
 126:asw/cfar.c    **** 
 127:asw/cfar.c    ****         }
 128:asw/cfar.c    ****         else {
 129:asw/cfar.c    ****             CAFRThreshold[CUT] = 0;
 371              		.loc 1 129 0
 372 0116 0023     		movs	r3, #0
 373 0118 149A     		ldr	r2, [sp, #80]
 374 011a 42F82530 		str	r3, [r2, r5, lsl #2]
 375              	.L21:
 107:asw/cfar.c    ****         
 376              		.loc 1 107 0 discriminator 2
ARM GAS  C:\Users\vboxuser\AppData\Local\Temp\ccyZNGFK.s 			page 10


 377 011e 0135     		adds	r5, r5, #1
 378              	.LVL57:
 379 0120 ADB2     		uxth	r5, r5
 380              	.LVL58:
 381              	.L17:
 107:asw/cfar.c    ****         
 382              		.loc 1 107 0 is_stmt 0 discriminator 1
 383 0122 4545     		cmp	r5, r8
 384 0124 A6D3     		bcc	.L22
 385              	.LBE6:
 130:asw/cfar.c    ****         }
 131:asw/cfar.c    ****  
 132:asw/cfar.c    ****     }
 133:asw/cfar.c    ****     
 134:asw/cfar.c    **** 
 135:asw/cfar.c    ****     
 136:asw/cfar.c    ****     return RC_SUCCESS;
 386              		.loc 1 136 0 is_stmt 1
 387 0126 0020     		movs	r0, #0
 388              	.LBB11:
 389 0128 01E0     		b	.L16
 390              	.LVL59:
 391              	.L23:
 392              	.LBE11:
 100:asw/cfar.c    ****     }
 393              		.loc 1 100 0
 394 012a 6FF01300 		mvn	r0, #19
 395              	.LVL60:
 396              	.L16:
 137:asw/cfar.c    **** }
 397              		.loc 1 137 0
 398 012e 09B0     		add	sp, sp, #36
 399              		.cfi_def_cfa_offset 36
 400              		@ sp needed
 401 0130 BDE8F08F 		pop	{r4, r5, r6, r7, r8, r9, r10, fp, pc}
 402              	.LVL61:
 403              	.L27:
 404              		.align	2
 405              	.L26:
 406 0134 0000F0BF 		.word	-1074790400
 407 0138 0000F03F 		.word	1072693248
 408 013c 00002440 		.word	1076101120
 409              		.cfi_endproc
 410              	.LFE124:
 411              		.size	CA_CFAR, .-CA_CFAR
 412              		.text
 413              	.Letext0:
 414              		.file 2 "c:\\program files (x86)\\cypress\\psoc creator\\4.4\\psoc creator\\import\\gnu\\arm\\5.4.
 415              		.file 3 "c:\\program files (x86)\\cypress\\psoc creator\\4.4\\psoc creator\\import\\gnu\\arm\\5.4.
 416              		.file 4 ".\\bsw/global.h"
 417              		.file 5 "Generated_Source\\PSoC5/core_cm3.h"
 418              		.file 6 "c:\\program files (x86)\\cypress\\psoc creator\\4.4\\psoc creator\\import\\gnu\\arm\\5.4.