ARM GAS  C:\Users\vboxuser\AppData\Local\Temp\ccT0sTWK.s 			page 1


   1              		.syntax unified
   2              		.cpu cortex-m3
   3              		.fpu softvfp
   4              		.eabi_attribute 20, 1
   5              		.eabi_attribute 21, 1
   6              		.eabi_attribute 23, 3
   7              		.eabi_attribute 24, 1
   8              		.eabi_attribute 25, 1
   9              		.eabi_attribute 26, 1
  10              		.eabi_attribute 30, 1
  11              		.eabi_attribute 34, 1
  12              		.eabi_attribute 18, 4
  13              		.thumb
  14              		.syntax unified
  15              		.file	"main.c"
  16              		.text
  17              	.Ltext0:
  18              		.cfi_sections	.debug_frame
  19              		.section	.text.isr_button_handler,"ax",%progbits
  20              		.align	2
  21              		.global	isr_button_handler
  22              		.thumb
  23              		.thumb_func
  24              		.type	isr_button_handler, %function
  25              	isr_button_handler:
  26              	.LFB125:
  27              		.file 1 "asw\\main.c"
   1:asw/main.c    **** /* ========================================
   2:asw/main.c    ****  *
   3:asw/main.c    ****  * Copyright YOUR COMPANY, THE YEAR
   4:asw/main.c    ****  * All Rights Reserved
   5:asw/main.c    ****  * UNPUBLISHED, LICENSED SOFTWARE.
   6:asw/main.c    ****  *
   7:asw/main.c    ****  * CONFIDENTIAL AND PROPRIETARY INFORMATION
   8:asw/main.c    ****  * WHICH IS THE PROPERTY OF your company.
   9:asw/main.c    ****  *
  10:asw/main.c    ****  * ========================================
  11:asw/main.c    **** */
  12:asw/main.c    **** #include "project.h"
  13:asw/main.c    **** #include "global.h"
  14:asw/main.c    **** #include "led.h"
  15:asw/main.c    **** #include "logging.h"
  16:asw/main.c    **** #include <stdio.h>
  17:asw/main.c    **** #include <stdlib.h>
  18:asw/main.c    **** #include "fft_application.h"
  19:asw/main.c    **** 
  20:asw/main.c    **** #include "dsp.h"
  21:asw/main.c    **** #include "cfar.h"
  22:asw/main.c    **** 
  23:asw/main.c    **** typedef enum{
  24:asw/main.c    ****     IDLE,
  25:asw/main.c    ****     SAMPLING,
  26:asw/main.c    ****     UART_TRANSFER
  27:asw/main.c    **** }state_t;
  28:asw/main.c    **** 
  29:asw/main.c    **** typedef enum{
  30:asw/main.c    ****     NONE,
ARM GAS  C:\Users\vboxuser\AppData\Local\Temp\ccT0sTWK.s 			page 2


  31:asw/main.c    ****     RX_SAMPLING,
  32:asw/main.c    ****     RX_DONE,
  33:asw/main.c    **** }uartStatus_t;
  34:asw/main.c    **** 
  35:asw/main.c    **** typedef struct
  36:asw/main.c    **** {
  37:asw/main.c    ****     sint32_t fft_sensor_data[2*NUMBER_OF_SAMPLE];
  38:asw/main.c    ****     sint32_t mag[NUMBER_OF_SAMPLE];
  39:asw/main.c    ****     sint32_t power[NUMBER_OF_SAMPLE];
  40:asw/main.c    **** } fft_handler_t;
  41:asw/main.c    **** 
  42:asw/main.c    **** 
  43:asw/main.c    **** 
  44:asw/main.c    **** 
  45:asw/main.c    **** typedef struct
  46:asw/main.c    **** {
  47:asw/main.c    ****     uint8_t count;
  48:asw/main.c    ****     uint16_t sensor_data[NUMBER_OF_SAMPLE];
  49:asw/main.c    ****     
  50:asw/main.c    ****     fft_handler_t sensor_fft;
  51:asw/main.c    ****     sint32_t threshhold[NUMBER_OF_SAMPLE];
  52:asw/main.c    ****     state_t currentState;
  53:asw/main.c    ****     uartStatus_t uartStatus;
  54:asw/main.c    ****     uint16_t startCUTIdx;
  55:asw/main.c    ****     uint16_t stopCUTIdx;
  56:asw/main.c    **** }shield_data_t;
  57:asw/main.c    **** 
  58:asw/main.c    **** 
  59:asw/main.c    **** static shield_data_t shieldData;
  60:asw/main.c    **** 
  61:asw/main.c    **** 
  62:asw/main.c    **** 
  63:asw/main.c    **** CY_ISR_PROTO(isr_button_handler);
  64:asw/main.c    **** 
  65:asw/main.c    **** CY_ISR_PROTO(isr_rx_handler);
  66:asw/main.c    **** 
  67:asw/main.c    **** 
  68:asw/main.c    **** /* Defines for DMA_ADC */
  69:asw/main.c    **** #define DMA_ADC_BYTES_PER_BURST 2
  70:asw/main.c    **** #define DMA_ADC_REQUEST_PER_BURST 1
  71:asw/main.c    **** #define DMA_ADC_SRC_BASE (CYDEV_PERIPH_BASE)
  72:asw/main.c    **** #define DMA_ADC_DST_BASE (CYDEV_SRAM_BASE)
  73:asw/main.c    **** 
  74:asw/main.c    **** /* Variable declarations for DMA_ADC */
  75:asw/main.c    **** /* Move these variable declarations to the top of the function */
  76:asw/main.c    **** 
  77:asw/main.c    **** uint8 DMA_ADC_Chan;
  78:asw/main.c    **** uint8 DMA_ADC_TD[1];
  79:asw/main.c    **** 
  80:asw/main.c    **** void DMA_Config(){
  81:asw/main.c    **** 
  82:asw/main.c    **** 
  83:asw/main.c    ****     /* DMA Configuration for DMA_ADC */
  84:asw/main.c    **** 
  85:asw/main.c    ****     DMA_ADC_Chan = DMA_ADC_DmaInitialize(DMA_ADC_BYTES_PER_BURST, DMA_ADC_REQUEST_PER_BURST, 
  86:asw/main.c    ****         HI16(DMA_ADC_SRC_BASE), HI16(DMA_ADC_DST_BASE));
  87:asw/main.c    **** 
ARM GAS  C:\Users\vboxuser\AppData\Local\Temp\ccT0sTWK.s 			page 3


  88:asw/main.c    ****     DMA_ADC_TD[0] = CyDmaTdAllocate();
  89:asw/main.c    **** 
  90:asw/main.c    ****     CyDmaTdSetConfiguration(DMA_ADC_TD[0], 2048, CY_DMA_DISABLE_TD, DMA_ADC__TD_TERMOUT_EN | CY_DMA
  91:asw/main.c    **** 
  92:asw/main.c    ****     CyDmaTdSetAddress(DMA_ADC_TD[0], LO16((uint32)ADC_DEC_SAMP_PTR), LO16((uint32)shieldData.sensor
  93:asw/main.c    ****     CyDmaChSetInitialTd(DMA_ADC_Chan, DMA_ADC_TD[0]);
  94:asw/main.c    ****     
  95:asw/main.c    **** }
  96:asw/main.c    **** 
  97:asw/main.c    **** 
  98:asw/main.c    **** 
  99:asw/main.c    **** void shieldInit(){
 100:asw/main.c    **** 
 101:asw/main.c    ****    shieldData.currentState = IDLE;
 102:asw/main.c    ****    shieldData.count = 1;
 103:asw/main.c    ****    shieldData.uartStatus= NONE;
 104:asw/main.c    ****    for (int16_t i=0; i< NUMBER_OF_SAMPLE; i++){
 105:asw/main.c    ****     shieldData.sensor_data[i] =0;    
 106:asw/main.c    ****     }
 107:asw/main.c    **** 
 108:asw/main.c    **** }
 109:asw/main.c    **** 
 110:asw/main.c    **** 
 111:asw/main.c    **** // Interrupt handler
 112:asw/main.c    **** CY_ISR(isr_button_handler)
 113:asw/main.c    **** {
  28              		.loc 1 113 0
  29              		.cfi_startproc
  30              		@ args = 0, pretend = 0, frame = 0
  31              		@ frame_needed = 0, uses_anonymous_args = 0
  32 0000 08B5     		push	{r3, lr}
  33              		.cfi_def_cfa_offset 8
  34              		.cfi_offset 3, -8
  35              		.cfi_offset 14, -4
 114:asw/main.c    ****     Button_ClearInterrupt();
  36              		.loc 1 114 0
  37 0002 FFF7FEFF 		bl	Button_ClearInterrupt
  38              	.LVL0:
 115:asw/main.c    ****     
 116:asw/main.c    ****     if(shieldData.currentState == IDLE)
  39              		.loc 1 116 0
  40 0006 45F60403 		movw	r3, #22532
  41 000a 054A     		ldr	r2, .L4
  42 000c D35C     		ldrb	r3, [r2, r3]	@ zero_extendqisi2
  43 000e 1BB9     		cbnz	r3, .L2
 117:asw/main.c    ****         shieldData.currentState = SAMPLING;
  44              		.loc 1 117 0
  45 0010 0121     		movs	r1, #1
  46 0012 45F60403 		movw	r3, #22532
  47 0016 D154     		strb	r1, [r2, r3]
  48              	.L2:
 118:asw/main.c    ****     isr_button_ClearPending();
  49              		.loc 1 118 0
  50 0018 FFF7FEFF 		bl	isr_button_ClearPending
  51              	.LVL1:
  52 001c 08BD     		pop	{r3, pc}
  53              	.L5:
ARM GAS  C:\Users\vboxuser\AppData\Local\Temp\ccT0sTWK.s 			page 4


  54 001e 00BF     		.align	2
  55              	.L4:
  56 0020 00000000 		.word	.LANCHOR0
  57              		.cfi_endproc
  58              	.LFE125:
  59              		.size	isr_button_handler, .-isr_button_handler
  60              		.section	.text.isr_rx_handler,"ax",%progbits
  61              		.align	2
  62              		.global	isr_rx_handler
  63              		.thumb
  64              		.thumb_func
  65              		.type	isr_rx_handler, %function
  66              	isr_rx_handler:
  67              	.LFB126:
 119:asw/main.c    **** }
 120:asw/main.c    **** 
 121:asw/main.c    **** 
 122:asw/main.c    **** // UART RX Interrupt
 123:asw/main.c    **** CY_ISR(isr_rx_handler)
 124:asw/main.c    **** {
  68              		.loc 1 124 0
  69              		.cfi_startproc
  70              		@ args = 0, pretend = 0, frame = 0
  71              		@ frame_needed = 0, uses_anonymous_args = 0
  72 0000 08B5     		push	{r3, lr}
  73              		.cfi_def_cfa_offset 8
  74              		.cfi_offset 3, -8
  75              		.cfi_offset 14, -4
 125:asw/main.c    ****     uint8 rxRead = UART_LOG_ReadRxData();
  76              		.loc 1 125 0
  77 0002 FFF7FEFF 		bl	UART_LOG_ReadRxData
  78              	.LVL2:
 126:asw/main.c    ****     if (rxRead == 's')
  79              		.loc 1 126 0
  80 0006 7328     		cmp	r0, #115
  81 0008 04D1     		bne	.L7
 127:asw/main.c    ****     {
 128:asw/main.c    ****         shieldData.uartStatus= RX_SAMPLING;
  82              		.loc 1 128 0
  83 000a 0121     		movs	r1, #1
  84 000c 45F60503 		movw	r3, #22533
  85 0010 044A     		ldr	r2, .L10
  86 0012 D154     		strb	r1, [r2, r3]
  87              	.L7:
 129:asw/main.c    ****     }
 130:asw/main.c    ****     if (rxRead =='o')
  88              		.loc 1 130 0
  89 0014 6F28     		cmp	r0, #111
  90 0016 04D1     		bne	.L6
 131:asw/main.c    ****     {
 132:asw/main.c    ****        shieldData.uartStatus = RX_DONE;
  91              		.loc 1 132 0
  92 0018 0221     		movs	r1, #2
  93 001a 45F60503 		movw	r3, #22533
  94 001e 014A     		ldr	r2, .L10
  95 0020 D154     		strb	r1, [r2, r3]
  96              	.L6:
ARM GAS  C:\Users\vboxuser\AppData\Local\Temp\ccT0sTWK.s 			page 5


  97 0022 08BD     		pop	{r3, pc}
  98              	.L11:
  99              		.align	2
 100              	.L10:
 101 0024 00000000 		.word	.LANCHOR0
 102              		.cfi_endproc
 103              	.LFE126:
 104              		.size	isr_rx_handler, .-isr_rx_handler
 105              		.section	.text.DMA_Config,"ax",%progbits
 106              		.align	2
 107              		.global	DMA_Config
 108              		.thumb
 109              		.thumb_func
 110              		.type	DMA_Config, %function
 111              	DMA_Config:
 112              	.LFB123:
  80:asw/main.c    **** 
 113              		.loc 1 80 0
 114              		.cfi_startproc
 115              		@ args = 0, pretend = 0, frame = 0
 116              		@ frame_needed = 0, uses_anonymous_args = 0
 117 0000 38B5     		push	{r3, r4, r5, lr}
 118              		.cfi_def_cfa_offset 16
 119              		.cfi_offset 3, -16
 120              		.cfi_offset 4, -12
 121              		.cfi_offset 5, -8
 122              		.cfi_offset 14, -4
  85:asw/main.c    ****         HI16(DMA_ADC_SRC_BASE), HI16(DMA_ADC_DST_BASE));
 123              		.loc 1 85 0
 124 0002 41F6FF73 		movw	r3, #8191
 125 0006 4FF48042 		mov	r2, #16384
 126 000a 0121     		movs	r1, #1
 127 000c 0220     		movs	r0, #2
 128 000e FFF7FEFF 		bl	DMA_ADC_DmaInitialize
 129              	.LVL3:
 130 0012 0C4D     		ldr	r5, .L14
 131 0014 2870     		strb	r0, [r5]
  88:asw/main.c    **** 
 132              		.loc 1 88 0
 133 0016 FFF7FEFF 		bl	CyDmaTdAllocate
 134              	.LVL4:
 135 001a 0B4C     		ldr	r4, .L14+4
 136 001c 2070     		strb	r0, [r4]
  90:asw/main.c    **** 
 137              		.loc 1 90 0
 138 001e 0623     		movs	r3, #6
 139 0020 FE22     		movs	r2, #254
 140 0022 4FF40061 		mov	r1, #2048
 141 0026 FFF7FEFF 		bl	CyDmaTdSetConfiguration
 142              	.LVL5:
  92:asw/main.c    ****     CyDmaChSetInitialTd(DMA_ADC_Chan, DMA_ADC_TD[0]);
 143              		.loc 1 92 0
 144 002a 084A     		ldr	r2, .L14+8
 145 002c 92B2     		uxth	r2, r2
 146 002e 44F61061 		movw	r1, #19984
 147 0032 2078     		ldrb	r0, [r4]	@ zero_extendqisi2
 148 0034 FFF7FEFF 		bl	CyDmaTdSetAddress
ARM GAS  C:\Users\vboxuser\AppData\Local\Temp\ccT0sTWK.s 			page 6


 149              	.LVL6:
  93:asw/main.c    ****     
 150              		.loc 1 93 0
 151 0038 2178     		ldrb	r1, [r4]	@ zero_extendqisi2
 152 003a 2878     		ldrb	r0, [r5]	@ zero_extendqisi2
 153 003c FFF7FEFF 		bl	CyDmaChSetInitialTd
 154              	.LVL7:
 155 0040 38BD     		pop	{r3, r4, r5, pc}
 156              	.L15:
 157 0042 00BF     		.align	2
 158              	.L14:
 159 0044 00000000 		.word	DMA_ADC_Chan
 160 0048 00000000 		.word	DMA_ADC_TD
 161 004c 02000000 		.word	.LANCHOR0+2
 162              		.cfi_endproc
 163              	.LFE123:
 164              		.size	DMA_Config, .-DMA_Config
 165              		.section	.text.shieldInit,"ax",%progbits
 166              		.align	2
 167              		.global	shieldInit
 168              		.thumb
 169              		.thumb_func
 170              		.type	shieldInit, %function
 171              	shieldInit:
 172              	.LFB124:
  99:asw/main.c    **** 
 173              		.loc 1 99 0
 174              		.cfi_startproc
 175              		@ args = 0, pretend = 0, frame = 0
 176              		@ frame_needed = 0, uses_anonymous_args = 0
 177              		@ link register save eliminated.
 101:asw/main.c    ****    shieldData.count = 1;
 178              		.loc 1 101 0
 179 0000 0A4A     		ldr	r2, .L19
 180 0002 0023     		movs	r3, #0
 181 0004 45F60401 		movw	r1, #22532
 182 0008 5354     		strb	r3, [r2, r1]
 102:asw/main.c    ****    shieldData.uartStatus= NONE;
 183              		.loc 1 102 0
 184 000a 0121     		movs	r1, #1
 185 000c 1170     		strb	r1, [r2]
 103:asw/main.c    ****    for (int16_t i=0; i< NUMBER_OF_SAMPLE; i++){
 186              		.loc 1 103 0
 187 000e 45F60501 		movw	r1, #22533
 188 0012 5354     		strb	r3, [r2, r1]
 189              	.LVL8:
 190              	.LBB2:
 104:asw/main.c    ****     shieldData.sensor_data[i] =0;    
 191              		.loc 1 104 0
 192 0014 06E0     		b	.L17
 193              	.LVL9:
 194              	.L18:
 105:asw/main.c    ****     }
 195              		.loc 1 105 0 discriminator 3
 196 0016 054A     		ldr	r2, .L19
 197 0018 02EB4302 		add	r2, r2, r3, lsl #1
 198 001c 0021     		movs	r1, #0
ARM GAS  C:\Users\vboxuser\AppData\Local\Temp\ccT0sTWK.s 			page 7


 199 001e 5180     		strh	r1, [r2, #2]	@ movhi
 104:asw/main.c    ****     shieldData.sensor_data[i] =0;    
 200              		.loc 1 104 0 discriminator 3
 201 0020 0133     		adds	r3, r3, #1
 202              	.LVL10:
 203 0022 1BB2     		sxth	r3, r3
 204              	.LVL11:
 205              	.L17:
 104:asw/main.c    ****     shieldData.sensor_data[i] =0;    
 206              		.loc 1 104 0 is_stmt 0 discriminator 1
 207 0024 B3F5806F 		cmp	r3, #1024
 208 0028 F5DB     		blt	.L18
 209              	.LBE2:
 108:asw/main.c    **** 
 210              		.loc 1 108 0 is_stmt 1
 211 002a 7047     		bx	lr
 212              	.L20:
 213              		.align	2
 214              	.L19:
 215 002c 00000000 		.word	.LANCHOR0
 216              		.cfi_endproc
 217              	.LFE124:
 218              		.size	shieldInit, .-shieldInit
 219              		.section	.text.main,"ax",%progbits
 220              		.align	2
 221              		.global	main
 222              		.thumb
 223              		.thumb_func
 224              		.type	main, %function
 225              	main:
 226              	.LFB127:
 133:asw/main.c    ****     }
 134:asw/main.c    **** }
 135:asw/main.c    **** int main(void)
 136:asw/main.c    **** {
 227              		.loc 1 136 0
 228              		.cfi_startproc
 229              		@ args = 0, pretend = 0, frame = 0
 230              		@ frame_needed = 0, uses_anonymous_args = 0
 231 0000 70B5     		push	{r4, r5, r6, lr}
 232              		.cfi_def_cfa_offset 16
 233              		.cfi_offset 4, -16
 234              		.cfi_offset 5, -12
 235              		.cfi_offset 6, -8
 236              		.cfi_offset 14, -4
 237 0002 86B0     		sub	sp, sp, #24
 238              		.cfi_def_cfa_offset 40
 137:asw/main.c    ****     CyGlobalIntEnable; /* Enable global interrupts. */
 239              		.loc 1 137 0
 240              		.syntax unified
 241              	@ 137 "asw\main.c" 1
 242 0004 62B6     		CPSIE   i
 243              	@ 0 "" 2
 138:asw/main.c    ****     WaveDAC8_Start();
 244              		.loc 1 138 0
 245              		.thumb
 246              		.syntax unified
ARM GAS  C:\Users\vboxuser\AppData\Local\Temp\ccT0sTWK.s 			page 8


 247 0006 FFF7FEFF 		bl	WaveDAC8_Start
 248              	.LVL12:
 139:asw/main.c    ****     WaveDAC8_Enable(); 
 249              		.loc 1 139 0
 250 000a FFF7FEFF 		bl	WaveDAC8_Enable
 251              	.LVL13:
 140:asw/main.c    ****     
 141:asw/main.c    ****     // Assign Interrupt
 142:asw/main.c    ****     isr_button_StartEx(isr_button_handler);
 252              		.loc 1 142 0
 253 000e 7448     		ldr	r0, .L37+8
 254 0010 FFF7FEFF 		bl	isr_button_StartEx
 255              	.LVL14:
 143:asw/main.c    ****     isr_rx_StartEx(isr_rx_handler);
 256              		.loc 1 143 0
 257 0014 7348     		ldr	r0, .L37+12
 258 0016 FFF7FEFF 		bl	isr_rx_StartEx
 259              	.LVL15:
 144:asw/main.c    ****     
 145:asw/main.c    ****     ADC_Start();
 260              		.loc 1 145 0
 261 001a FFF7FEFF 		bl	ADC_Start
 262              	.LVL16:
 146:asw/main.c    ****     
 147:asw/main.c    ****     LED_Init();
 263              		.loc 1 147 0
 264 001e FFF7FEFF 		bl	LED_Init
 265              	.LVL17:
 148:asw/main.c    **** 
 149:asw/main.c    ****     LOG_Init();
 266              		.loc 1 149 0
 267 0022 FFF7FEFF 		bl	LOG_Init
 268              	.LVL18:
 150:asw/main.c    ****     shieldInit();
 269              		.loc 1 150 0
 270 0026 FFF7FEFF 		bl	shieldInit
 271              	.LVL19:
 151:asw/main.c    **** 
 152:asw/main.c    ****     DMA_Config();
 272              		.loc 1 152 0
 273 002a FFF7FEFF 		bl	DMA_Config
 274              	.LVL20:
 275              	.L23:
 153:asw/main.c    ****     
 154:asw/main.c    ****     
 155:asw/main.c    ****     for(;;)
 156:asw/main.c    ****     {
 157:asw/main.c    ****         /* Place your application code here. */
 158:asw/main.c    **** 
 159:asw/main.c    ****         switch(shieldData.currentState){
 276              		.loc 1 159 0
 277 002e 45F60403 		movw	r3, #22532
 278 0032 6D4A     		ldr	r2, .L37+16
 279 0034 D35C     		ldrb	r3, [r2, r3]	@ zero_extendqisi2
 280 0036 012B     		cmp	r3, #1
 281 0038 08D0     		beq	.L24
 282 003a 13B1     		cbz	r3, .L25
ARM GAS  C:\Users\vboxuser\AppData\Local\Temp\ccT0sTWK.s 			page 9


 283 003c 022B     		cmp	r3, #2
 284 003e 56D0     		beq	.L26
 285 0040 F5E7     		b	.L23
 286              	.L25:
 160:asw/main.c    ****             
 161:asw/main.c    ****         case IDLE:
 162:asw/main.c    **** 
 163:asw/main.c    ****             
 164:asw/main.c    ****             LED_Set(LED_GREEN, 1);
 287              		.loc 1 164 0
 288 0042 0121     		movs	r1, #1
 289 0044 0220     		movs	r0, #2
 290 0046 FFF7FEFF 		bl	LED_Set
 291              	.LVL21:
 165:asw/main.c    ****             
 166:asw/main.c    ****             break;
 292              		.loc 1 166 0
 293 004a F0E7     		b	.L23
 294              	.L24:
 167:asw/main.c    ****         case SAMPLING:
 168:asw/main.c    ****             LED_Set(LED_YELLOW, 1);
 295              		.loc 1 168 0
 296 004c 0121     		movs	r1, #1
 297 004e 0846     		mov	r0, r1
 298 0050 FFF7FEFF 		bl	LED_Set
 299              	.LVL22:
 169:asw/main.c    ****             ADC_StartConvert();
 300              		.loc 1 169 0
 301 0054 FFF7FEFF 		bl	ADC_StartConvert
 302              	.LVL23:
 170:asw/main.c    ****             CyDmaChEnable(DMA_ADC_Chan, 1);
 303              		.loc 1 170 0
 304 0058 0121     		movs	r1, #1
 305 005a 644B     		ldr	r3, .L37+20
 306 005c 1878     		ldrb	r0, [r3]	@ zero_extendqisi2
 307 005e FFF7FEFF 		bl	CyDmaChEnable
 308              	.LVL24:
 171:asw/main.c    **** 
 172:asw/main.c    ****             if (Status_Reg_1_Read()){
 309              		.loc 1 172 0
 310 0062 FFF7FEFF 		bl	Status_Reg_1_Read
 311              	.LVL25:
 312 0066 0028     		cmp	r0, #0
 313 0068 E1D0     		beq	.L23
 173:asw/main.c    ****                     
 174:asw/main.c    ****                     // When DMA transfer finished , turn on DMA Channel 
 175:asw/main.c    ****                     // Switch to next stage       
 176:asw/main.c    ****                     ADC_StopConvert();
 314              		.loc 1 176 0
 315 006a FFF7FEFF 		bl	ADC_StopConvert
 316              	.LVL26:
 177:asw/main.c    ****                     CyDmaChDisable(DMA_ADC_Chan);
 317              		.loc 1 177 0
 318 006e 5F4B     		ldr	r3, .L37+20
 319 0070 1878     		ldrb	r0, [r3]	@ zero_extendqisi2
 320 0072 FFF7FEFF 		bl	CyDmaChDisable
 321              	.LVL27:
ARM GAS  C:\Users\vboxuser\AppData\Local\Temp\ccT0sTWK.s 			page 10


 178:asw/main.c    ****                     shieldData.currentState = UART_TRANSFER;
 322              		.loc 1 178 0
 323 0076 5C4C     		ldr	r4, .L37+16
 324 0078 0222     		movs	r2, #2
 325 007a 45F60403 		movw	r3, #22532
 326 007e E254     		strb	r2, [r4, r3]
 179:asw/main.c    ****                     
 180:asw/main.c    ****                     applyHanningWindow(shieldData.sensor_data, NUMBER_OF_SAMPLE);
 327              		.loc 1 180 0
 328 0080 A518     		adds	r5, r4, r2
 329 0082 4FF48061 		mov	r1, #1024
 330 0086 2846     		mov	r0, r5
 331 0088 FFF7FEFF 		bl	applyHanningWindow
 332              	.LVL28:
 181:asw/main.c    ****                     fft_app(shieldData.sensor_data, shieldData.sensor_fft.fft_sensor_data, NUMBER_O
 333              		.loc 1 181 0
 334 008c 04F60406 		addw	r6, r4, #2052
 335 0090 4FF48062 		mov	r2, #1024
 336 0094 3146     		mov	r1, r6
 337 0096 2846     		mov	r0, r5
 338 0098 FFF7FEFF 		bl	fft_app
 339              	.LVL29:
 182:asw/main.c    ****                     calcPowerSpectrum(shieldData.sensor_fft.fft_sensor_data, NUMBER_OF_SAMPLE*2,shi
 340              		.loc 1 182 0
 341 009c 04F52055 		add	r5, r4, #10240
 342 00a0 0435     		adds	r5, r5, #4
 343 00a2 04F56053 		add	r3, r4, #14336
 344 00a6 0433     		adds	r3, r3, #4
 345 00a8 2A46     		mov	r2, r5
 346 00aa 4FF40061 		mov	r1, #2048
 347 00ae 3046     		mov	r0, r6
 348 00b0 FFF7FEFF 		bl	calcPowerSpectrum
 349              	.LVL30:
 183:asw/main.c    **** 
 184:asw/main.c    **** 
 185:asw/main.c    ****                     CA_CFAR(shieldData.sensor_fft.mag, NUMBER_OF_SAMPLE, NUMBER_OF_GUARD, NUMBER_OF
 350              		.loc 1 185 0
 351 00b4 04F5B043 		add	r3, r4, #22528
 352 00b8 0833     		adds	r3, r3, #8
 353 00ba 0493     		str	r3, [sp, #16]
 354 00bc 04F5B043 		add	r3, r4, #22528
 355 00c0 0633     		adds	r3, r3, #6
 356 00c2 0393     		str	r3, [sp, #12]
 357 00c4 04F59044 		add	r4, r4, #18432
 358 00c8 0434     		adds	r4, r4, #4
 359 00ca 0294     		str	r4, [sp, #8]
 360 00cc 42A3     		adr	r3, .L37
 361 00ce D3E90023 		ldrd	r2, [r3]
 362 00d2 CDE90023 		strd	r2, [sp]
 363 00d6 2823     		movs	r3, #40
 364 00d8 1C22     		movs	r2, #28
 365 00da 4FF48061 		mov	r1, #1024
 366 00de 2846     		mov	r0, r5
 367 00e0 FFF7FEFF 		bl	CA_CFAR
 368              	.LVL31:
 186:asw/main.c    ****                     LED_Set(LED_YELLOW, 0);
 369              		.loc 1 186 0
ARM GAS  C:\Users\vboxuser\AppData\Local\Temp\ccT0sTWK.s 			page 11


 370 00e4 0021     		movs	r1, #0
 371 00e6 0120     		movs	r0, #1
 372 00e8 FFF7FEFF 		bl	LED_Set
 373              	.LVL32:
 374 00ec 9FE7     		b	.L23
 375              	.L26:
 187:asw/main.c    ****                     
 188:asw/main.c    ****                     
 189:asw/main.c    ****             }
 190:asw/main.c    **** 
 191:asw/main.c    ****             break;
 192:asw/main.c    ****         case UART_TRANSFER:
 193:asw/main.c    ****   
 194:asw/main.c    ****                 if((shieldData.count <= 10) && (shieldData.uartStatus == RX_SAMPLING)){
 376              		.loc 1 194 0
 377 00ee 3E4B     		ldr	r3, .L37+16
 378 00f0 1B78     		ldrb	r3, [r3]	@ zero_extendqisi2
 379 00f2 0A2B     		cmp	r3, #10
 380 00f4 52D8     		bhi	.L28
 381              		.loc 1 194 0 is_stmt 0 discriminator 1
 382 00f6 45F60503 		movw	r3, #22533
 383 00fa 3B4A     		ldr	r2, .L37+16
 384 00fc D35C     		ldrb	r3, [r2, r3]	@ zero_extendqisi2
 385 00fe 012B     		cmp	r3, #1
 386 0100 4CD1     		bne	.L28
 195:asw/main.c    ****                 
 196:asw/main.c    ****                 
 197:asw/main.c    ****                     
 198:asw/main.c    ****                     shieldData.currentState = SAMPLING;
 387              		.loc 1 198 0 is_stmt 1
 388 0102 1446     		mov	r4, r2
 389 0104 0121     		movs	r1, #1
 390 0106 45F60403 		movw	r3, #22532
 391 010a D154     		strb	r1, [r2, r3]
 199:asw/main.c    ****                     LED_Set(LED_RED, 1);
 392              		.loc 1 199 0
 393 010c 0020     		movs	r0, #0
 394 010e FFF7FEFF 		bl	LED_Set
 395              	.LVL33:
 200:asw/main.c    ****                     shieldData.uartStatus = NONE; 
 396              		.loc 1 200 0
 397 0112 0025     		movs	r5, #0
 398 0114 45F60503 		movw	r3, #22533
 399 0118 E554     		strb	r5, [r4, r3]
 400              	.LVL34:
 401              	.LBB3:
 201:asw/main.c    ****                     for(int i = 0; i < NUMBER_OF_SAMPLE; i++){
 402              		.loc 1 201 0
 403 011a 0AE0     		b	.L29
 404              	.LVL35:
 405              	.L30:
 202:asw/main.c    ****                         // Transfer lowest 8 bit
 203:asw/main.c    ****                         UART_LOG_PutChar(shieldData.sensor_data[i] & 0xFF);
 406              		.loc 1 203 0 discriminator 3
 407 011c 324C     		ldr	r4, .L37+16
 408 011e 04EB4504 		add	r4, r4, r5, lsl #1
 409 0122 A078     		ldrb	r0, [r4, #2]	@ zero_extendqisi2
ARM GAS  C:\Users\vboxuser\AppData\Local\Temp\ccT0sTWK.s 			page 12


 410 0124 FFF7FEFF 		bl	UART_LOG_PutChar
 411              	.LVL36:
 204:asw/main.c    ****                         // Shift to the right 8 bit, and write the rest to UART
 205:asw/main.c    ****                         UART_LOG_PutChar(shieldData.sensor_data[i]>>8);
 412              		.loc 1 205 0 discriminator 3
 413 0128 6088     		ldrh	r0, [r4, #2]
 414 012a 000A     		lsrs	r0, r0, #8
 415 012c FFF7FEFF 		bl	UART_LOG_PutChar
 416              	.LVL37:
 201:asw/main.c    ****                         // Transfer lowest 8 bit
 417              		.loc 1 201 0 discriminator 3
 418 0130 0135     		adds	r5, r5, #1
 419              	.LVL38:
 420              	.L29:
 201:asw/main.c    ****                         // Transfer lowest 8 bit
 421              		.loc 1 201 0 is_stmt 0 discriminator 1
 422 0132 B5F5806F 		cmp	r5, #1024
 423 0136 F1DB     		blt	.L30
 424 0138 0025     		movs	r5, #0
 425              	.LVL39:
 426 013a 11E0     		b	.L31
 427              	.LVL40:
 428              	.L32:
 429              	.LBE3:
 430              	.LBB4:
 206:asw/main.c    ****                         
 207:asw/main.c    ****                     }
 208:asw/main.c    **** 
 209:asw/main.c    ****                     //LOG_OUT POWER SPECTRUM
 210:asw/main.c    ****                     for (int i=0; i < NUMBER_OF_SAMPLE; i++){
 211:asw/main.c    ****                         
 212:asw/main.c    ****                         UART_LOG_PutChar(shieldData.sensor_fft.power[i]);
 431              		.loc 1 212 0 is_stmt 1 discriminator 3
 432 013c 05F56064 		add	r4, r5, #3584
 433 0140 294B     		ldr	r3, .L37+16
 434 0142 03EB8404 		add	r4, r3, r4, lsl #2
 435 0146 2079     		ldrb	r0, [r4, #4]	@ zero_extendqisi2
 436 0148 FFF7FEFF 		bl	UART_LOG_PutChar
 437              	.LVL41:
 213:asw/main.c    ****                         UART_LOG_PutChar(shieldData.sensor_fft.power[i] >>8);
 438              		.loc 1 213 0 discriminator 3
 439 014c 6079     		ldrb	r0, [r4, #5]	@ zero_extendqisi2
 440 014e FFF7FEFF 		bl	UART_LOG_PutChar
 441              	.LVL42:
 214:asw/main.c    ****                         UART_LOG_PutChar(shieldData.sensor_fft.power[i] >>16);
 442              		.loc 1 214 0 discriminator 3
 443 0152 A079     		ldrb	r0, [r4, #6]	@ zero_extendqisi2
 444 0154 FFF7FEFF 		bl	UART_LOG_PutChar
 445              	.LVL43:
 215:asw/main.c    ****                         UART_LOG_PutChar(shieldData.sensor_fft.power[i] >>24);
 446              		.loc 1 215 0 discriminator 3
 447 0158 E079     		ldrb	r0, [r4, #7]	@ zero_extendqisi2
 448 015a FFF7FEFF 		bl	UART_LOG_PutChar
 449              	.LVL44:
 210:asw/main.c    ****                         
 450              		.loc 1 210 0 discriminator 3
 451 015e 0135     		adds	r5, r5, #1
ARM GAS  C:\Users\vboxuser\AppData\Local\Temp\ccT0sTWK.s 			page 13


 452              	.LVL45:
 453              	.L31:
 210:asw/main.c    ****                         
 454              		.loc 1 210 0 is_stmt 0 discriminator 1
 455 0160 B5F5806F 		cmp	r5, #1024
 456 0164 EADB     		blt	.L32
 457 0166 0025     		movs	r5, #0
 458              	.LVL46:
 459 0168 11E0     		b	.L33
 460              	.LVL47:
 461              	.L34:
 462              	.LBE4:
 463              	.LBB5:
 216:asw/main.c    ****                         
 217:asw/main.c    ****                     }
 218:asw/main.c    ****                     //LOG OUT THRESHOLD CFAR
 219:asw/main.c    ****                     for (int i=0; i < NUMBER_OF_SAMPLE; i++){
 220:asw/main.c    ****                         
 221:asw/main.c    ****                         UART_LOG_PutChar(shieldData.threshhold[i]);
 464              		.loc 1 221 0 is_stmt 1 discriminator 3
 465 016a 05F59054 		add	r4, r5, #4608
 466 016e 1E4B     		ldr	r3, .L37+16
 467 0170 03EB8404 		add	r4, r3, r4, lsl #2
 468 0174 2079     		ldrb	r0, [r4, #4]	@ zero_extendqisi2
 469 0176 FFF7FEFF 		bl	UART_LOG_PutChar
 470              	.LVL48:
 222:asw/main.c    ****                         UART_LOG_PutChar(shieldData.threshhold[i] >>8);
 471              		.loc 1 222 0 discriminator 3
 472 017a 6079     		ldrb	r0, [r4, #5]	@ zero_extendqisi2
 473 017c FFF7FEFF 		bl	UART_LOG_PutChar
 474              	.LVL49:
 223:asw/main.c    ****                         UART_LOG_PutChar(shieldData.threshhold[i] >>16);
 475              		.loc 1 223 0 discriminator 3
 476 0180 A079     		ldrb	r0, [r4, #6]	@ zero_extendqisi2
 477 0182 FFF7FEFF 		bl	UART_LOG_PutChar
 478              	.LVL50:
 224:asw/main.c    ****                         UART_LOG_PutChar(shieldData.threshhold[i] >>24);
 479              		.loc 1 224 0 discriminator 3
 480 0186 E079     		ldrb	r0, [r4, #7]	@ zero_extendqisi2
 481 0188 FFF7FEFF 		bl	UART_LOG_PutChar
 482              	.LVL51:
 219:asw/main.c    ****                         
 483              		.loc 1 219 0 discriminator 3
 484 018c 0135     		adds	r5, r5, #1
 485              	.LVL52:
 486              	.L33:
 219:asw/main.c    ****                         
 487              		.loc 1 219 0 is_stmt 0 discriminator 1
 488 018e B5F5806F 		cmp	r5, #1024
 489 0192 EADB     		blt	.L34
 490              	.LBE5:
 225:asw/main.c    ****                         
 226:asw/main.c    ****                     }
 227:asw/main.c    **** //                    uint32_t count_detection = 0;
 228:asw/main.c    **** //                    for (int i=shieldData.startCUTIdx; i <= shieldData.stopCUTIdx; i++){
 229:asw/main.c    **** //
 230:asw/main.c    **** //                        if ( shieldData.threshhold[i] < shieldData.sensor_fft.power[i])
ARM GAS  C:\Users\vboxuser\AppData\Local\Temp\ccT0sTWK.s 			page 14


 231:asw/main.c    **** //                        {
 232:asw/main.c    **** //
 233:asw/main.c    **** //                            count_detection++;
 234:asw/main.c    **** //                        }                        
 235:asw/main.c    **** //                    }
 236:asw/main.c    **** //                    
 237:asw/main.c    **** //                    if (count_detection > COUNT_DETECTION_THRESHOLD){
 238:asw/main.c    **** //                        LED_Set(LED_GREEN,0);
 239:asw/main.c    **** //                        LED_Set(LED_RED, 1);
 240:asw/main.c    **** //                        CyDelay(500);
 241:asw/main.c    **** //                        LED_Set(LED_RED, 0);
 242:asw/main.c    **** //                    }
 243:asw/main.c    **** 
 244:asw/main.c    ****                     shieldData.count++;
 491              		.loc 1 244 0 is_stmt 1
 492 0194 144A     		ldr	r2, .L37+16
 493 0196 1378     		ldrb	r3, [r2]	@ zero_extendqisi2
 494 0198 0133     		adds	r3, r3, #1
 495 019a 1370     		strb	r3, [r2]
 496              	.LVL53:
 497              	.L28:
 245:asw/main.c    ****                     
 246:asw/main.c    ****                 }
 247:asw/main.c    ****                 
 248:asw/main.c    ****                 if((shieldData.count  == 11) && (shieldData.uartStatus == RX_DONE)){
 498              		.loc 1 248 0
 499 019c 124B     		ldr	r3, .L37+16
 500 019e 1B78     		ldrb	r3, [r3]	@ zero_extendqisi2
 501 01a0 0B2B     		cmp	r3, #11
 502 01a2 0FD1     		bne	.L35
 503              		.loc 1 248 0 is_stmt 0 discriminator 1
 504 01a4 45F60503 		movw	r3, #22533
 505 01a8 0F4A     		ldr	r2, .L37+16
 506 01aa D35C     		ldrb	r3, [r2, r3]	@ zero_extendqisi2
 507 01ac 022B     		cmp	r3, #2
 508 01ae 09D1     		bne	.L35
 249:asw/main.c    ****                 
 250:asw/main.c    ****                     
 251:asw/main.c    ****                     shieldData.currentState = IDLE;
 509              		.loc 1 251 0 is_stmt 1
 510 01b0 1346     		mov	r3, r2
 511 01b2 0022     		movs	r2, #0
 512 01b4 45F60401 		movw	r1, #22532
 513 01b8 5A54     		strb	r2, [r3, r1]
 252:asw/main.c    ****                     shieldData.uartStatus = NONE;
 514              		.loc 1 252 0
 515 01ba 45F60501 		movw	r1, #22533
 516 01be 5A54     		strb	r2, [r3, r1]
 253:asw/main.c    ****                     shieldData.count=1;
 517              		.loc 1 253 0
 518 01c0 0122     		movs	r2, #1
 519 01c2 1A70     		strb	r2, [r3]
 520              	.L35:
 254:asw/main.c    ****                 }
 255:asw/main.c    ****                 
 256:asw/main.c    ****                 LED_Set(LED_RED, 0);
 521              		.loc 1 256 0
ARM GAS  C:\Users\vboxuser\AppData\Local\Temp\ccT0sTWK.s 			page 15


 522 01c4 0021     		movs	r1, #0
 523 01c6 0846     		mov	r0, r1
 524 01c8 FFF7FEFF 		bl	LED_Set
 525              	.LVL54:
 257:asw/main.c    ****                 LED_Set(LED_YELLOW, 0);
 526              		.loc 1 257 0
 527 01cc 0021     		movs	r1, #0
 528 01ce 0120     		movs	r0, #1
 529 01d0 FFF7FEFF 		bl	LED_Set
 530              	.LVL55:
 258:asw/main.c    ****             break;
 531              		.loc 1 258 0
 532 01d4 2BE7     		b	.L23
 533              	.L38:
 534 01d6 00BF     		.align	3
 535              	.L37:
 536 01d8 48AFBC9A 		.word	-1698910392
 537 01dc F2D77A3E 		.word	1048238066
 538 01e0 00000000 		.word	isr_button_handler
 539 01e4 00000000 		.word	isr_rx_handler
 540 01e8 00000000 		.word	.LANCHOR0
 541 01ec 00000000 		.word	DMA_ADC_Chan
 542              		.cfi_endproc
 543              	.LFE127:
 544              		.size	main, .-main
 545              		.comm	DMA_ADC_TD,1,4
 546              		.comm	DMA_ADC_Chan,1,1
 547              		.bss
 548              		.align	2
 549              		.set	.LANCHOR0,. + 0
 550              		.type	shieldData, %object
 551              		.size	shieldData, 22540
 552              	shieldData:
 553 0000 00000000 		.space	22540
 553      00000000 
 553      00000000 
 553      00000000 
 553      00000000 
 554              		.text
 555              	.Letext0:
 556              		.file 2 "c:\\program files (x86)\\cypress\\psoc creator\\4.4\\psoc creator\\import\\gnu\\arm\\5.4.
 557              		.file 3 "c:\\program files (x86)\\cypress\\psoc creator\\4.4\\psoc creator\\import\\gnu\\arm\\5.4.
 558              		.file 4 "Generated_Source\\PSoC5/cytypes.h"
 559              		.file 5 ".\\bsw/global.h"
 560              		.file 6 "./dsp.h"
 561              		.file 7 "Generated_Source\\PSoC5/core_cm3.h"
 562              		.file 8 "Generated_Source\\PSoC5/Button.h"
 563              		.file 9 "Generated_Source\\PSoC5/isr_button.h"
 564              		.file 10 "Generated_Source\\PSoC5/UART_LOG.h"
 565              		.file 11 "Generated_Source\\PSoC5/DMA_ADC_dma.h"
 566              		.file 12 "Generated_Source\\PSoC5/CYDMAC.H"
 567              		.file 13 "Generated_Source\\PSoC5/WaveDAC8.h"
 568              		.file 14 "Generated_Source\\PSoC5/isr_rx.h"
 569              		.file 15 "Generated_Source\\PSoC5/ADC.h"
 570              		.file 16 ".\\bsw/led.h"
 571              		.file 17 ".\\bsw\\Services/logging.h"
 572              		.file 18 "Generated_Source\\PSoC5/Status_Reg_1.h"
ARM GAS  C:\Users\vboxuser\AppData\Local\Temp\ccT0sTWK.s 			page 16


 573              		.file 19 ".\\bsw\\fft_application/fft_application.h"
 574              		.file 20 "asw\\cfar.h"