ARM GAS  C:\Users\vboxuser\AppData\Local\Temp\ccezu88A.s 			page 1


   1              		.syntax unified
   2              		.cpu cortex-m3
   3              		.fpu softvfp
   4              		.eabi_attribute 20, 1
   5              		.eabi_attribute 21, 1
   6              		.eabi_attribute 23, 3
   7              		.eabi_attribute 24, 1
   8              		.eabi_attribute 25, 1
   9              		.eabi_attribute 26, 1
  10              		.eabi_attribute 30, 1
  11              		.eabi_attribute 34, 1
  12              		.eabi_attribute 18, 4
  13              		.thumb
  14              		.syntax unified
  15              		.file	"cfar.c"
  16              		.text
  17              	.Ltext0:
  18              		.cfi_sections	.debug_frame
  19              		.global	__aeabi_i2f
  20              		.global	__aeabi_fmul
  21              		.global	__aeabi_fadd
  22              		.global	__aeabi_f2d
  23              		.global	__aeabi_d2iz
  24              		.global	__aeabi_dcmpeq
  25              		.global	__aeabi_dmul
  26              		.global	__aeabi_d2f
  27              		.global	__aeabi_f2iz
  28              		.section	.text.calcPowerSpectrum,"ax",%progbits
  29              		.align	2
  30              		.global	calcPowerSpectrum
  31              		.thumb
  32              		.thumb_func
  33              		.type	calcPowerSpectrum, %function
  34              	calcPowerSpectrum:
  35              	.LFB123:
  36              		.file 1 "asw\\cfar.c"
   1:asw/cfar.c    **** /**
   2:asw/cfar.c    **** * \file <filename>
   3:asw/cfar.c    **** * \author <author-name>
   4:asw/cfar.c    **** * \date <date>
   5:asw/cfar.c    **** *
   6:asw/cfar.c    **** * \brief <Symbolic File name>
   7:asw/cfar.c    **** *
   8:asw/cfar.c    **** * \copyright Copyright ©2016
   9:asw/cfar.c    **** * Department of electrical engineering and information technology, Hochschule Darmstadt - Universit
  10:asw/cfar.c    **** * Permission to use, copy, modify, and distribute this software and its documentation for education
  11:asw/cfar.c    **** * (unless permitted by h_da) and official h_da projects, is hereby granted for enrolled students of
  12:asw/cfar.c    **** * this paragraph and the following paragraph appear in all copies, modifications, and distributions
  13:asw/cfar.c    **** * Contact Prof.Dr.-Ing. Peter Fromm, peter.fromm@h-da.de, Birkenweg 8 64295 Darmstadt - GERMANY for
  14:asw/cfar.c    **** *
  15:asw/cfar.c    **** * \warning This software is a PROTOTYPE version and is not designed or intended for use in producti
  16:asw/cfar.c    **** * The user represents and warrants that it will NOT use or redistribute the Software for such purpo
  17:asw/cfar.c    **** * This prototype is for research purposes only. This software is provided "AS IS," without a warran
  18:asw/cfar.c    **** */
  19:asw/cfar.c    **** 
  20:asw/cfar.c    **** /*****************************************************************************/
  21:asw/cfar.c    **** /* Include files                                                             */
ARM GAS  C:\Users\vboxuser\AppData\Local\Temp\ccezu88A.s 			page 2


  22:asw/cfar.c    **** /*****************************************************************************/
  23:asw/cfar.c    **** #include <math.h>
  24:asw/cfar.c    **** #include <stdint.h>
  25:asw/cfar.c    **** #include <string.h>
  26:asw/cfar.c    **** #include "cfar.h"
  27:asw/cfar.c    **** #include "logging.h"
  28:asw/cfar.c    **** #include "arm_math.h"
  29:asw/cfar.c    **** /*****************************************************************************/
  30:asw/cfar.c    **** /* Local pre-processor symbols/macros ('#define')                            */
  31:asw/cfar.c    **** /*****************************************************************************/
  32:asw/cfar.c    **** 
  33:asw/cfar.c    **** /*****************************************************************************/
  34:asw/cfar.c    **** /* Global variable definitions (declared in header file with 'extern')       */
  35:asw/cfar.c    **** /*****************************************************************************/
  36:asw/cfar.c    **** 
  37:asw/cfar.c    **** /*****************************************************************************/
  38:asw/cfar.c    **** /* Local type definitions ('typedef')                                        */
  39:asw/cfar.c    **** /*****************************************************************************/
  40:asw/cfar.c    **** 
  41:asw/cfar.c    **** /*****************************************************************************/
  42:asw/cfar.c    **** /* Local variable definitions ('static')                                     */
  43:asw/cfar.c    **** /*****************************************************************************/
  44:asw/cfar.c    **** 
  45:asw/cfar.c    **** 
  46:asw/cfar.c    **** 
  47:asw/cfar.c    **** /*****************************************************************************/
  48:asw/cfar.c    **** /* Local function prototypes ('static')                                      */
  49:asw/cfar.c    **** /*****************************************************************************/
  50:asw/cfar.c    **** 
  51:asw/cfar.c    **** 
  52:asw/cfar.c    **** /**
  53:asw/cfar.c    ****  * <Description>
  54:asw/cfar.c    ****  * \param <first para>
  55:asw/cfar.c    ****  * \return <return value>
  56:asw/cfar.c    ****  */
  57:asw/cfar.c    **** RC_t calcPowerSpectrum(sint32_t *fft_buffer, uint16_t fft_length, sint32_t *mag_square, sint32_t *p
  37              		.loc 1 57 0
  38              		.cfi_startproc
  39              		@ args = 0, pretend = 0, frame = 0
  40              		@ frame_needed = 0, uses_anonymous_args = 0
  41              	.LVL0:
  58:asw/cfar.c    ****     if (fft_length % 2 != 0) {
  42              		.loc 1 58 0
  43 0000 11F0010F 		tst	r1, #1
  44 0004 49D1     		bne	.L8
  57:asw/cfar.c    ****     if (fft_length % 2 != 0) {
  45              		.loc 1 57 0
  46 0006 2DE9F84F 		push	{r3, r4, r5, r6, r7, r8, r9, r10, fp, lr}
  47              		.cfi_def_cfa_offset 40
  48              		.cfi_offset 3, -40
  49              		.cfi_offset 4, -36
  50              		.cfi_offset 5, -32
  51              		.cfi_offset 6, -28
  52              		.cfi_offset 7, -24
  53              		.cfi_offset 8, -20
  54              		.cfi_offset 9, -16
  55              		.cfi_offset 10, -12
ARM GAS  C:\Users\vboxuser\AppData\Local\Temp\ccezu88A.s 			page 3


  56              		.cfi_offset 11, -8
  57              		.cfi_offset 14, -4
  58 000a 9B46     		mov	fp, r3
  59 000c 9246     		mov	r10, r2
  60 000e 0646     		mov	r6, r0
  59:asw/cfar.c    ****         return RC_ERROR_BAD_PARAM;
  60:asw/cfar.c    ****     }
  61:asw/cfar.c    ****     
  62:asw/cfar.c    ****     uint16_t half_length = fft_length / 2;
  61              		.loc 1 62 0
  62 0010 4F08     		lsrs	r7, r1, #1
  63              	.LVL1:
  64              	.LBB2:
  63:asw/cfar.c    **** 
  64:asw/cfar.c    ****     for (uint16_t idx = 0; idx < half_length; idx++) {
  65              		.loc 1 64 0
  66 0012 0024     		movs	r4, #0
  67 0014 3CE0     		b	.L3
  68              	.LVL2:
  69              	.L7:
  70              	.LBB3:
  65:asw/cfar.c    ****         float32_t real = (float32_t)fft_buffer[2 * idx];
  71              		.loc 1 65 0
  72 0016 E500     		lsls	r5, r4, #3
  73 0018 56F83400 		ldr	r0, [r6, r4, lsl #3]
  74 001c FFF7FEFF 		bl	__aeabi_i2f
  75              	.LVL3:
  76 0020 8046     		mov	r8, r0
  77              	.LVL4:
  66:asw/cfar.c    ****         float32_t imag = (float32_t)fft_buffer[2 * idx + 1];
  78              		.loc 1 66 0
  79 0022 3544     		add	r5, r5, r6
  80 0024 6868     		ldr	r0, [r5, #4]
  81              	.LVL5:
  82 0026 FFF7FEFF 		bl	__aeabi_i2f
  83              	.LVL6:
  84 002a 0546     		mov	r5, r0
  85              	.LVL7:
  67:asw/cfar.c    ****         float64_t magnitude = (real * real + imag * imag);
  86              		.loc 1 67 0
  87 002c 4146     		mov	r1, r8
  88 002e 4046     		mov	r0, r8
  89              	.LVL8:
  90 0030 FFF7FEFF 		bl	__aeabi_fmul
  91              	.LVL9:
  92 0034 8046     		mov	r8, r0
  93              	.LVL10:
  94 0036 2946     		mov	r1, r5
  95 0038 2846     		mov	r0, r5
  96 003a FFF7FEFF 		bl	__aeabi_fmul
  97              	.LVL11:
  98 003e 0146     		mov	r1, r0
  99 0040 4046     		mov	r0, r8
 100 0042 FFF7FEFF 		bl	__aeabi_fadd
 101              	.LVL12:
 102 0046 FFF7FEFF 		bl	__aeabi_f2d
 103              	.LVL13:
ARM GAS  C:\Users\vboxuser\AppData\Local\Temp\ccezu88A.s 			page 4


 104 004a 8046     		mov	r8, r0
 105 004c 8946     		mov	r9, r1
 106              	.LVL14:
  68:asw/cfar.c    ****         
  69:asw/cfar.c    ****         mag_square[idx] = (sint32_t)(sqrt(magnitude));
 107              		.loc 1 69 0
 108 004e FFF7FEFF 		bl	sqrt
 109              	.LVL15:
 110 0052 FFF7FEFF 		bl	__aeabi_d2iz
 111              	.LVL16:
 112 0056 4AF82400 		str	r0, [r10, r4, lsl #2]
  70:asw/cfar.c    **** 
  71:asw/cfar.c    ****         if (magnitude == 0) {
 113              		.loc 1 71 0
 114 005a 0022     		movs	r2, #0
 115 005c 0023     		movs	r3, #0
 116 005e 4046     		mov	r0, r8
 117 0060 4946     		mov	r1, r9
 118 0062 FFF7FEFF 		bl	__aeabi_dcmpeq
 119              	.LVL17:
 120 0066 18B1     		cbz	r0, .L10
  72:asw/cfar.c    ****             
  73:asw/cfar.c    ****             power[idx] = 0;  // or any minimum value you consider appropriate
 121              		.loc 1 73 0
 122 0068 0023     		movs	r3, #0
 123 006a 4BF82430 		str	r3, [fp, r4, lsl #2]
 124 006e 0DE0     		b	.L6
 125              	.L10:
 126              	.LBB4:
  74:asw/cfar.c    ****         } else {
  75:asw/cfar.c    ****             float power_dB = 10*log10(magnitude);
 127              		.loc 1 75 0
 128 0070 4046     		mov	r0, r8
 129 0072 4946     		mov	r1, r9
 130 0074 FFF7FEFF 		bl	log10
 131              	.LVL18:
 132 0078 0022     		movs	r2, #0
 133 007a 094B     		ldr	r3, .L13
 134 007c FFF7FEFF 		bl	__aeabi_dmul
 135              	.LVL19:
 136 0080 FFF7FEFF 		bl	__aeabi_d2f
 137              	.LVL20:
  76:asw/cfar.c    ****             
  77:asw/cfar.c    ****             power[idx] = (sint32_t)power_dB;
 138              		.loc 1 77 0
 139 0084 FFF7FEFF 		bl	__aeabi_f2iz
 140              	.LVL21:
 141 0088 4BF82400 		str	r0, [fp, r4, lsl #2]
 142              	.L6:
 143              	.LBE4:
 144              	.LBE3:
  64:asw/cfar.c    ****         float32_t real = (float32_t)fft_buffer[2 * idx];
 145              		.loc 1 64 0 discriminator 2
 146 008c 0134     		adds	r4, r4, #1
 147              	.LVL22:
 148 008e A4B2     		uxth	r4, r4
 149              	.LVL23:
ARM GAS  C:\Users\vboxuser\AppData\Local\Temp\ccezu88A.s 			page 5


 150              	.L3:
  64:asw/cfar.c    ****         float32_t real = (float32_t)fft_buffer[2 * idx];
 151              		.loc 1 64 0 is_stmt 0 discriminator 1
 152 0090 BC42     		cmp	r4, r7
 153 0092 C0D3     		bcc	.L7
 154              	.LBE2:
  78:asw/cfar.c    ****         }
  79:asw/cfar.c    ****     }
  80:asw/cfar.c    **** 
  81:asw/cfar.c    ****     return RC_SUCCESS;
 155              		.loc 1 81 0 is_stmt 1
 156 0094 0020     		movs	r0, #0
 157              	.LBB5:
 158 0096 BDE8F88F 		pop	{r3, r4, r5, r6, r7, r8, r9, r10, fp, pc}
 159              	.LVL24:
 160              	.L8:
 161              		.cfi_def_cfa_offset 0
 162              		.cfi_restore 3
 163              		.cfi_restore 4
 164              		.cfi_restore 5
 165              		.cfi_restore 6
 166              		.cfi_restore 7
 167              		.cfi_restore 8
 168              		.cfi_restore 9
 169              		.cfi_restore 10
 170              		.cfi_restore 11
 171              		.cfi_restore 14
 172              	.LBE5:
  59:asw/cfar.c    ****     }
 173              		.loc 1 59 0
 174 009a 6FF01300 		mvn	r0, #19
 175              	.LVL25:
 176 009e 7047     		bx	lr
 177              	.L14:
 178              		.align	2
 179              	.L13:
 180 00a0 00002440 		.word	1076101120
 181              		.cfi_endproc
 182              	.LFE123:
 183              		.size	calcPowerSpectrum, .-calcPowerSpectrum
 184              		.global	__aeabi_i2d
 185              		.global	__aeabi_ddiv
 186              		.global	__aeabi_dsub
 187              		.global	__aeabi_dadd
 188              		.section	.text.CA_CFAR,"ax",%progbits
 189              		.align	2
 190              		.global	CA_CFAR
 191              		.thumb
 192              		.thumb_func
 193              		.type	CA_CFAR, %function
 194              	CA_CFAR:
 195              	.LFB124:
  82:asw/cfar.c    **** }
  83:asw/cfar.c    **** /**
  84:asw/cfar.c    ****  * Cell Averaging CFAR algorithm
  85:asw/cfar.c    ****  * \param NR : Number of reference cell
  86:asw/cfar.c    ****  * \param NG : Number of guard cell
ARM GAS  C:\Users\vboxuser\AppData\Local\Temp\ccezu88A.s 			page 6


  87:asw/cfar.c    ****  * \param PFA : Probability of False Alarm
  88:asw/cfar.c    ****  * \return <return value>
  89:asw/cfar.c    ****  */
  90:asw/cfar.c    **** 
  91:asw/cfar.c    **** RC_t CA_CFAR(sint32_t *fftInput, uint16_t N, uint8_t NG, uint8_t NR, float64_t PFA, sint32_t* CAFRT
 196              		.loc 1 91 0
 197              		.cfi_startproc
 198              		@ args = 20, pretend = 0, frame = 32
 199              		@ frame_needed = 0, uses_anonymous_args = 0
 200              	.LVL26:
 201 0000 2DE9F04F 		push	{r4, r5, r6, r7, r8, r9, r10, fp, lr}
 202              		.cfi_def_cfa_offset 36
 203              		.cfi_offset 4, -36
 204              		.cfi_offset 5, -32
 205              		.cfi_offset 6, -28
 206              		.cfi_offset 7, -24
 207              		.cfi_offset 8, -20
 208              		.cfi_offset 9, -16
 209              		.cfi_offset 10, -12
 210              		.cfi_offset 11, -8
 211              		.cfi_offset 14, -4
 212 0004 89B0     		sub	sp, sp, #36
 213              		.cfi_def_cfa_offset 72
 214 0006 DDF85490 		ldr	r9, [sp, #84]
  92:asw/cfar.c    ****     
  93:asw/cfar.c    ****     
  94:asw/cfar.c    ****     if ( N <= (2* NG+ NR)){
 215              		.loc 1 94 0
 216 000a 03EB4204 		add	r4, r3, r2, lsl #1
 217 000e A142     		cmp	r1, r4
 218 0010 40F38B80 		ble	.L23
 219 0014 9346     		mov	fp, r2
 220 0016 1F46     		mov	r7, r3
 221 0018 1E46     		mov	r6, r3
 222 001a 8846     		mov	r8, r1
 223 001c 8246     		mov	r10, r0
  95:asw/cfar.c    ****         return RC_ERROR_BAD_PARAM;
  96:asw/cfar.c    ****     }
  97:asw/cfar.c    ****     
  98:asw/cfar.c    ****     float64_t alpha = NR*2*(pow(PFA, -1.0/(NR*2)) -1);
 224              		.loc 1 98 0
 225 001e 5800     		lsls	r0, r3, #1
 226              	.LVL27:
 227 0020 FFF7FEFF 		bl	__aeabi_i2d
 228              	.LVL28:
 229 0024 CDE90401 		strd	r0, [sp, #16]
 230 0028 0246     		mov	r2, r0
 231 002a 0B46     		mov	r3, r1
 232 002c 0020     		movs	r0, #0
 233 002e 4149     		ldr	r1, .L26
 234 0030 FFF7FEFF 		bl	__aeabi_ddiv
 235              	.LVL29:
 236 0034 0246     		mov	r2, r0
 237 0036 0B46     		mov	r3, r1
 238 0038 DDE91201 		ldrd	r0, [sp, #72]
 239 003c FFF7FEFF 		bl	pow
 240              	.LVL30:
ARM GAS  C:\Users\vboxuser\AppData\Local\Temp\ccezu88A.s 			page 7


 241 0040 0022     		movs	r2, #0
 242 0042 3D4B     		ldr	r3, .L26+4
 243 0044 FFF7FEFF 		bl	__aeabi_dsub
 244              	.LVL31:
 245 0048 0246     		mov	r2, r0
 246 004a 0B46     		mov	r3, r1
 247 004c DDE90401 		ldrd	r0, [sp, #16]
 248 0050 FFF7FEFF 		bl	__aeabi_dmul
 249              	.LVL32:
 250 0054 CDE90601 		strd	r0, [sp, #24]
 251              	.LVL33:
  99:asw/cfar.c    ****     *first_CUT_Index = NG + NR;
 252              		.loc 1 99 0
 253 0058 1FFA8BF4 		uxth	r4, fp
 254 005c BBB2     		uxth	r3, r7
 255 005e E218     		adds	r2, r4, r3
 256 0060 A9F80020 		strh	r2, [r9]	@ movhi
 100:asw/cfar.c    ****     *last_CUT_index = N - NG - NR -1;
 257              		.loc 1 100 0
 258 0064 C4EB0804 		rsb	r4, r4, r8
 259 0068 E31A     		subs	r3, r4, r3
 260 006a 013B     		subs	r3, r3, #1
 261 006c 169A     		ldr	r2, [sp, #88]
 262 006e 1380     		strh	r3, [r2]	@ movhi
 263              	.LVL34:
 264              	.LBB6:
 101:asw/cfar.c    **** 
 102:asw/cfar.c    ****     for(uint16_t CUT = 0; CUT < N; ++CUT){
 265              		.loc 1 102 0
 266 0070 0025     		movs	r5, #0
 267 0072 56E0     		b	.L17
 268              	.LVL35:
 269              	.L22:
 103:asw/cfar.c    ****         
 104:asw/cfar.c    ****         if(CUT >= *first_CUT_Index && CUT <= *last_CUT_index){
 270              		.loc 1 104 0
 271 0074 B9F80030 		ldrh	r3, [r9]
 272 0078 9D42     		cmp	r5, r3
 273 007a 4CD3     		bcc	.L18
 274              		.loc 1 104 0 is_stmt 0 discriminator 1
 275 007c 169B     		ldr	r3, [sp, #88]
 276 007e 1B88     		ldrh	r3, [r3]
 277 0080 9D42     		cmp	r5, r3
 278 0082 23D9     		bls	.L24
 279 0084 47E0     		b	.L18
 280              	.LVL36:
 281              	.L20:
 282              	.LBB7:
 283              	.LBB8:
 105:asw/cfar.c    ****         
 106:asw/cfar.c    ****             float64_t sumLeading = 0.0;
 107:asw/cfar.c    ****             float64_t sumTrailing = 0.0;
 108:asw/cfar.c    ****             // Calculate sum of leading and trailing window
 109:asw/cfar.c    ****             for (uint8_t i =0; i < NR; ++i){
 110:asw/cfar.c    ****                 sumLeading += fftInput[CUT - NG - NR + i];
 284              		.loc 1 110 0 is_stmt 1 discriminator 3
 285 0086 CBEB0503 		rsb	r3, fp, r5
ARM GAS  C:\Users\vboxuser\AppData\Local\Temp\ccezu88A.s 			page 8


 286 008a DB1B     		subs	r3, r3, r7
 287 008c 2344     		add	r3, r3, r4
 288 008e 5AF82300 		ldr	r0, [r10, r3, lsl #2]
 289 0092 FFF7FEFF 		bl	__aeabi_i2d
 290              	.LVL37:
 291 0096 0246     		mov	r2, r0
 292 0098 0B46     		mov	r3, r1
 293 009a DDE90001 		ldrd	r0, [sp]
 294 009e FFF7FEFF 		bl	__aeabi_dadd
 295              	.LVL38:
 296 00a2 CDE90001 		strd	r0, [sp]
 297              	.LVL39:
 111:asw/cfar.c    ****                 sumTrailing += fftInput[CUT + NG + i +1];  
 298              		.loc 1 111 0 discriminator 3
 299 00a6 0BEB0503 		add	r3, fp, r5
 300 00aa 2344     		add	r3, r3, r4
 301 00ac 0133     		adds	r3, r3, #1
 302 00ae 5AF82300 		ldr	r0, [r10, r3, lsl #2]
 303              	.LVL40:
 304 00b2 FFF7FEFF 		bl	__aeabi_i2d
 305              	.LVL41:
 306 00b6 0246     		mov	r2, r0
 307 00b8 0B46     		mov	r3, r1
 308 00ba DDE90201 		ldrd	r0, [sp, #8]
 309 00be FFF7FEFF 		bl	__aeabi_dadd
 310              	.LVL42:
 311 00c2 CDE90201 		strd	r0, [sp, #8]
 312              	.LVL43:
 109:asw/cfar.c    ****                 sumLeading += fftInput[CUT - NG - NR + i];
 313              		.loc 1 109 0 discriminator 3
 314 00c6 0134     		adds	r4, r4, #1
 315              	.LVL44:
 316 00c8 E4B2     		uxtb	r4, r4
 317              	.LVL45:
 318 00ca 06E0     		b	.L19
 319              	.LVL46:
 320              	.L24:
 321              	.LBE8:
 322              	.LBE7:
 323 00cc 0024     		movs	r4, #0
 324 00ce 0022     		movs	r2, #0
 325 00d0 0023     		movs	r3, #0
 326 00d2 CDE90223 		strd	r2, [sp, #8]
 327 00d6 CDE90023 		strd	r2, [sp]
 328              	.L19:
 329              	.LVL47:
 330              	.LBB10:
 331              	.LBB9:
 109:asw/cfar.c    ****                 sumLeading += fftInput[CUT - NG - NR + i];
 332              		.loc 1 109 0 is_stmt 0 discriminator 1
 333 00da B442     		cmp	r4, r6
 334 00dc D3D3     		bcc	.L20
 335              	.LBE9:
 112:asw/cfar.c    ****             }
 113:asw/cfar.c    ****     
 114:asw/cfar.c    ****             float64_t noiseLevel = (sumLeading + sumTrailing) / (2* NR);
 336              		.loc 1 114 0 is_stmt 1
ARM GAS  C:\Users\vboxuser\AppData\Local\Temp\ccezu88A.s 			page 9


 337 00de DDE90223 		ldrd	r2, [sp, #8]
 338 00e2 DDE90001 		ldrd	r0, [sp]
 339 00e6 FFF7FEFF 		bl	__aeabi_dadd
 340              	.LVL48:
 341 00ea DDE90423 		ldrd	r2, [sp, #16]
 342 00ee FFF7FEFF 		bl	__aeabi_ddiv
 343              	.LVL49:
 115:asw/cfar.c    ****             
 116:asw/cfar.c    ****             
 117:asw/cfar.c    ****             float64_t threshold = alpha * noiseLevel;
 344              		.loc 1 117 0
 345 00f2 0246     		mov	r2, r0
 346 00f4 0B46     		mov	r3, r1
 347 00f6 DDE90601 		ldrd	r0, [sp, #24]
 348              	.LVL50:
 349 00fa FFF7FEFF 		bl	__aeabi_dmul
 350              	.LVL51:
 118:asw/cfar.c    ****             
 119:asw/cfar.c    ****             CAFRThreshold[CUT] = (sint32_t)(10*log10(threshold));
 351              		.loc 1 119 0
 352 00fe FFF7FEFF 		bl	log10
 353              	.LVL52:
 354 0102 0022     		movs	r2, #0
 355 0104 0D4B     		ldr	r3, .L26+8
 356 0106 FFF7FEFF 		bl	__aeabi_dmul
 357              	.LVL53:
 358 010a FFF7FEFF 		bl	__aeabi_d2iz
 359              	.LVL54:
 360 010e 149B     		ldr	r3, [sp, #80]
 361 0110 43F82500 		str	r0, [r3, r5, lsl #2]
 362              	.LBE10:
 104:asw/cfar.c    ****         
 363              		.loc 1 104 0
 364 0114 03E0     		b	.L21
 365              	.LVL55:
 366              	.L18:
 120:asw/cfar.c    ****             
 121:asw/cfar.c    **** 
 122:asw/cfar.c    ****         }
 123:asw/cfar.c    ****         else {
 124:asw/cfar.c    ****             CAFRThreshold[CUT] = 0;
 367              		.loc 1 124 0
 368 0116 0023     		movs	r3, #0
 369 0118 149A     		ldr	r2, [sp, #80]
 370 011a 42F82530 		str	r3, [r2, r5, lsl #2]
 371              	.L21:
 102:asw/cfar.c    ****         
 372              		.loc 1 102 0 discriminator 2
 373 011e 0135     		adds	r5, r5, #1
 374              	.LVL56:
 375 0120 ADB2     		uxth	r5, r5
 376              	.LVL57:
 377              	.L17:
 102:asw/cfar.c    ****         
 378              		.loc 1 102 0 is_stmt 0 discriminator 1
 379 0122 4545     		cmp	r5, r8
 380 0124 A6D3     		bcc	.L22
ARM GAS  C:\Users\vboxuser\AppData\Local\Temp\ccezu88A.s 			page 10


 381              	.LBE6:
 125:asw/cfar.c    ****         }
 126:asw/cfar.c    ****  
 127:asw/cfar.c    ****     }
 128:asw/cfar.c    ****     
 129:asw/cfar.c    **** 
 130:asw/cfar.c    ****     
 131:asw/cfar.c    ****     return RC_SUCCESS;
 382              		.loc 1 131 0 is_stmt 1
 383 0126 0020     		movs	r0, #0
 384              	.LBB11:
 385 0128 01E0     		b	.L16
 386              	.LVL58:
 387              	.L23:
 388              	.LBE11:
  95:asw/cfar.c    ****     }
 389              		.loc 1 95 0
 390 012a 6FF01300 		mvn	r0, #19
 391              	.LVL59:
 392              	.L16:
 132:asw/cfar.c    **** }...
 393              		.loc 1 132 0
 394 012e 09B0     		add	sp, sp, #36
 395              		.cfi_def_cfa_offset 36
 396              		@ sp needed
 397 0130 BDE8F08F 		pop	{r4, r5, r6, r7, r8, r9, r10, fp, pc}
 398              	.LVL60:
 399              	.L27:
 400              		.align	2
 401              	.L26:
 402 0134 0000F0BF 		.word	-1074790400
 403 0138 0000F03F 		.word	1072693248
 404 013c 00002440 		.word	1076101120
 405              		.cfi_endproc
 406              	.LFE124:
 407              		.size	CA_CFAR, .-CA_CFAR
 408              		.text
 409              	.Letext0:
 410              		.file 2 "c:\\program files (x86)\\cypress\\psoc creator\\4.4\\psoc creator\\import\\gnu\\arm\\5.4.
 411              		.file 3 "c:\\program files (x86)\\cypress\\psoc creator\\4.4\\psoc creator\\import\\gnu\\arm\\5.4.
 412              		.file 4 ".\\bsw/global.h"
 413              		.file 5 "c:\\program files (x86)\\cypress\\psoc creator\\4.4\\psoc creator\\import\\gnu\\arm\\5.4.
 414              		.file 6 "Generated_Source\\PSoC5/core_cm3.h"