ARM GAS  C:\Users\vboxuser\AppData\Local\Temp\ccFW4uY0.s 			page 1


   1              		.syntax unified
   2              		.cpu cortex-m3
   3              		.fpu softvfp
   4              		.eabi_attribute 20, 1
   5              		.eabi_attribute 21, 1
   6              		.eabi_attribute 23, 3
   7              		.eabi_attribute 24, 1
   8              		.eabi_attribute 25, 1
   9              		.eabi_attribute 26, 1
  10              		.eabi_attribute 30, 1
  11              		.eabi_attribute 34, 1
  12              		.eabi_attribute 18, 4
  13              		.thumb
  14              		.syntax unified
  15              		.file	"main.c"
  16              		.text
  17              	.Ltext0:
  18              		.cfi_sections	.debug_frame
  19              		.section	.text.isr_button_handler,"ax",%progbits
  20              		.align	2
  21              		.global	isr_button_handler
  22              		.thumb
  23              		.thumb_func
  24              		.type	isr_button_handler, %function
  25              	isr_button_handler:
  26              	.LFB125:
  27              		.file 1 "asw\\main.c"
   1:asw/main.c    **** /* ========================================
   2:asw/main.c    ****  *
   3:asw/main.c    ****  * Copyright YOUR COMPANY, THE YEAR
   4:asw/main.c    ****  * All Rights Reserved
   5:asw/main.c    ****  * UNPUBLISHED, LICENSED SOFTWARE.
   6:asw/main.c    ****  *
   7:asw/main.c    ****  * CONFIDENTIAL AND PROPRIETARY INFORMATION
   8:asw/main.c    ****  * WHICH IS THE PROPERTY OF your company.
   9:asw/main.c    ****  *
  10:asw/main.c    ****  * ========================================
  11:asw/main.c    **** */
  12:asw/main.c    **** #include "project.h"
  13:asw/main.c    **** #include "global.h"
  14:asw/main.c    **** #include "led.h"
  15:asw/main.c    **** #include "logging.h"
  16:asw/main.c    **** #include <stdio.h>
  17:asw/main.c    **** #include <stdlib.h>
  18:asw/main.c    **** #include "fft_application.h"
  19:asw/main.c    **** 
  20:asw/main.c    **** #include "dsp.h"
  21:asw/main.c    **** #include "cfar.h"
  22:asw/main.c    **** 
  23:asw/main.c    **** typedef enum{
  24:asw/main.c    ****     IDLE,
  25:asw/main.c    ****     SAMPLING,
  26:asw/main.c    ****     DETECTING
  27:asw/main.c    **** }state_t;
  28:asw/main.c    **** 
  29:asw/main.c    **** typedef enum{
  30:asw/main.c    ****     NONE,
ARM GAS  C:\Users\vboxuser\AppData\Local\Temp\ccFW4uY0.s 			page 2


  31:asw/main.c    ****     RX_SAMPLING,
  32:asw/main.c    ****     RX_DONE,
  33:asw/main.c    **** }uartStatus_t;
  34:asw/main.c    **** 
  35:asw/main.c    **** typedef struct
  36:asw/main.c    **** {
  37:asw/main.c    ****     sint32_t fft_sensor_data[2*NUMBER_OF_SAMPLE];
  38:asw/main.c    ****     sint32_t mag[NUMBER_OF_SAMPLE];
  39:asw/main.c    ****     sint32_t power[NUMBER_OF_SAMPLE];
  40:asw/main.c    **** } fft_handler_t;
  41:asw/main.c    **** 
  42:asw/main.c    **** 
  43:asw/main.c    **** typedef struct
  44:asw/main.c    **** {
  45:asw/main.c    ****     sint32_t threshhold[NUMBER_OF_SAMPLE];
  46:asw/main.c    ****     uint16_t startCUTIdx;
  47:asw/main.c    ****     uint16_t stopCUTIdx;
  48:asw/main.c    **** } cfar_handler_t;
  49:asw/main.c    **** 
  50:asw/main.c    **** 
  51:asw/main.c    **** typedef struct
  52:asw/main.c    **** {
  53:asw/main.c    ****     uint8_t count;
  54:asw/main.c    ****     uint16_t sensor_data[NUMBER_OF_SAMPLE];
  55:asw/main.c    ****     fft_handler_t sensor_fft;
  56:asw/main.c    ****     cfar_handler_t cfar;   
  57:asw/main.c    ****     state_t currentState;
  58:asw/main.c    ****     uartStatus_t uartStatus;
  59:asw/main.c    **** }shield_data_t;
  60:asw/main.c    **** 
  61:asw/main.c    **** 
  62:asw/main.c    **** static shield_data_t shieldData;
  63:asw/main.c    **** 
  64:asw/main.c    **** 
  65:asw/main.c    **** 
  66:asw/main.c    **** CY_ISR_PROTO(isr_button_handler);
  67:asw/main.c    **** 
  68:asw/main.c    **** CY_ISR_PROTO(isr_rx_handler);
  69:asw/main.c    **** 
  70:asw/main.c    **** 
  71:asw/main.c    **** /* Defines for DMA_ADC */
  72:asw/main.c    **** #define DMA_ADC_BYTES_PER_BURST 2
  73:asw/main.c    **** #define DMA_ADC_REQUEST_PER_BURST 1
  74:asw/main.c    **** #define DMA_ADC_SRC_BASE (CYDEV_PERIPH_BASE)
  75:asw/main.c    **** #define DMA_ADC_DST_BASE (CYDEV_SRAM_BASE)
  76:asw/main.c    **** 
  77:asw/main.c    **** /* Variable declarations for DMA_ADC */
  78:asw/main.c    **** /* Move these variable declarations to the top of the function */
  79:asw/main.c    **** 
  80:asw/main.c    **** uint8 DMA_ADC_Chan;
  81:asw/main.c    **** uint8 DMA_ADC_TD[1];
  82:asw/main.c    **** 
  83:asw/main.c    **** void DMA_Config(){
  84:asw/main.c    **** 
  85:asw/main.c    **** 
  86:asw/main.c    ****     /* DMA Configuration for DMA_ADC */
  87:asw/main.c    **** 
ARM GAS  C:\Users\vboxuser\AppData\Local\Temp\ccFW4uY0.s 			page 3


  88:asw/main.c    ****     DMA_ADC_Chan = DMA_ADC_DmaInitialize(DMA_ADC_BYTES_PER_BURST, DMA_ADC_REQUEST_PER_BURST, 
  89:asw/main.c    ****         HI16(DMA_ADC_SRC_BASE), HI16(DMA_ADC_DST_BASE));
  90:asw/main.c    **** 
  91:asw/main.c    ****     DMA_ADC_TD[0] = CyDmaTdAllocate();
  92:asw/main.c    **** 
  93:asw/main.c    ****     CyDmaTdSetConfiguration(DMA_ADC_TD[0], 2048, CY_DMA_DISABLE_TD, DMA_ADC__TD_TERMOUT_EN | CY_DMA
  94:asw/main.c    **** 
  95:asw/main.c    ****     CyDmaTdSetAddress(DMA_ADC_TD[0], LO16((uint32)ADC_DEC_SAMP_PTR), LO16((uint32)shieldData.sensor
  96:asw/main.c    ****     CyDmaChSetInitialTd(DMA_ADC_Chan, DMA_ADC_TD[0]);
  97:asw/main.c    ****     
  98:asw/main.c    **** }
  99:asw/main.c    **** 
 100:asw/main.c    **** 
 101:asw/main.c    **** 
 102:asw/main.c    **** void shieldInit(){
 103:asw/main.c    **** 
 104:asw/main.c    ****    shieldData.currentState = IDLE;
 105:asw/main.c    ****    shieldData.count = 1;
 106:asw/main.c    ****    shieldData.uartStatus= NONE;
 107:asw/main.c    ****    for (int16_t i=0; i< NUMBER_OF_SAMPLE; i++){
 108:asw/main.c    ****     shieldData.sensor_data[i] =0;    
 109:asw/main.c    ****     }
 110:asw/main.c    **** 
 111:asw/main.c    **** }
 112:asw/main.c    **** 
 113:asw/main.c    **** 
 114:asw/main.c    **** // Interrupt handler
 115:asw/main.c    **** CY_ISR(isr_button_handler)
 116:asw/main.c    **** {
  28              		.loc 1 116 0
  29              		.cfi_startproc
  30              		@ args = 0, pretend = 0, frame = 0
  31              		@ frame_needed = 0, uses_anonymous_args = 0
  32 0000 08B5     		push	{r3, lr}
  33              		.cfi_def_cfa_offset 8
  34              		.cfi_offset 3, -8
  35              		.cfi_offset 14, -4
 117:asw/main.c    ****     Button_ClearInterrupt();
  36              		.loc 1 117 0
  37 0002 FFF7FEFF 		bl	Button_ClearInterrupt
  38              	.LVL0:
 118:asw/main.c    ****     
 119:asw/main.c    ****     if(shieldData.currentState == IDLE)
  39              		.loc 1 119 0
  40 0006 45F60803 		movw	r3, #22536
  41 000a 054A     		ldr	r2, .L4
  42 000c D35C     		ldrb	r3, [r2, r3]	@ zero_extendqisi2
  43 000e 1BB9     		cbnz	r3, .L2
 120:asw/main.c    ****         shieldData.currentState = SAMPLING;
  44              		.loc 1 120 0
  45 0010 0121     		movs	r1, #1
  46 0012 45F60803 		movw	r3, #22536
  47 0016 D154     		strb	r1, [r2, r3]
  48              	.L2:
 121:asw/main.c    ****     isr_button_ClearPending();
  49              		.loc 1 121 0
  50 0018 FFF7FEFF 		bl	isr_button_ClearPending
ARM GAS  C:\Users\vboxuser\AppData\Local\Temp\ccFW4uY0.s 			page 4


  51              	.LVL1:
  52 001c 08BD     		pop	{r3, pc}
  53              	.L5:
  54 001e 00BF     		.align	2
  55              	.L4:
  56 0020 00000000 		.word	.LANCHOR0
  57              		.cfi_endproc
  58              	.LFE125:
  59              		.size	isr_button_handler, .-isr_button_handler
  60              		.section	.text.isr_rx_handler,"ax",%progbits
  61              		.align	2
  62              		.global	isr_rx_handler
  63              		.thumb
  64              		.thumb_func
  65              		.type	isr_rx_handler, %function
  66              	isr_rx_handler:
  67              	.LFB126:
 122:asw/main.c    **** }
 123:asw/main.c    **** 
 124:asw/main.c    **** 
 125:asw/main.c    **** // UART RX Interrupt
 126:asw/main.c    **** CY_ISR(isr_rx_handler)
 127:asw/main.c    **** {
  68              		.loc 1 127 0
  69              		.cfi_startproc
  70              		@ args = 0, pretend = 0, frame = 0
  71              		@ frame_needed = 0, uses_anonymous_args = 0
  72 0000 08B5     		push	{r3, lr}
  73              		.cfi_def_cfa_offset 8
  74              		.cfi_offset 3, -8
  75              		.cfi_offset 14, -4
 128:asw/main.c    ****     uint8 rxRead = UART_LOG_ReadRxData();
  76              		.loc 1 128 0
  77 0002 FFF7FEFF 		bl	UART_LOG_ReadRxData
  78              	.LVL2:
 129:asw/main.c    ****     if (rxRead == 's')
  79              		.loc 1 129 0
  80 0006 7328     		cmp	r0, #115
  81 0008 04D1     		bne	.L7
 130:asw/main.c    ****     {
 131:asw/main.c    ****         shieldData.uartStatus= RX_SAMPLING;
  82              		.loc 1 131 0
  83 000a 0121     		movs	r1, #1
  84 000c 45F60903 		movw	r3, #22537
  85 0010 044A     		ldr	r2, .L10
  86 0012 D154     		strb	r1, [r2, r3]
  87              	.L7:
 132:asw/main.c    ****     }
 133:asw/main.c    ****     if (rxRead =='o')
  88              		.loc 1 133 0
  89 0014 6F28     		cmp	r0, #111
  90 0016 04D1     		bne	.L6
 134:asw/main.c    ****     {
 135:asw/main.c    ****        shieldData.uartStatus = RX_DONE;
  91              		.loc 1 135 0
  92 0018 0221     		movs	r1, #2
  93 001a 45F60903 		movw	r3, #22537
ARM GAS  C:\Users\vboxuser\AppData\Local\Temp\ccFW4uY0.s 			page 5


  94 001e 014A     		ldr	r2, .L10
  95 0020 D154     		strb	r1, [r2, r3]
  96              	.L6:
  97 0022 08BD     		pop	{r3, pc}
  98              	.L11:
  99              		.align	2
 100              	.L10:
 101 0024 00000000 		.word	.LANCHOR0
 102              		.cfi_endproc
 103              	.LFE126:
 104              		.size	isr_rx_handler, .-isr_rx_handler
 105              		.section	.text.DMA_Config,"ax",%progbits
 106              		.align	2
 107              		.global	DMA_Config
 108              		.thumb
 109              		.thumb_func
 110              		.type	DMA_Config, %function
 111              	DMA_Config:
 112              	.LFB123:
  83:asw/main.c    **** 
 113              		.loc 1 83 0
 114              		.cfi_startproc
 115              		@ args = 0, pretend = 0, frame = 0
 116              		@ frame_needed = 0, uses_anonymous_args = 0
 117 0000 38B5     		push	{r3, r4, r5, lr}
 118              		.cfi_def_cfa_offset 16
 119              		.cfi_offset 3, -16
 120              		.cfi_offset 4, -12
 121              		.cfi_offset 5, -8
 122              		.cfi_offset 14, -4
  88:asw/main.c    ****         HI16(DMA_ADC_SRC_BASE), HI16(DMA_ADC_DST_BASE));
 123              		.loc 1 88 0
 124 0002 41F6FF73 		movw	r3, #8191
 125 0006 4FF48042 		mov	r2, #16384
 126 000a 0121     		movs	r1, #1
 127 000c 0220     		movs	r0, #2
 128 000e FFF7FEFF 		bl	DMA_ADC_DmaInitialize
 129              	.LVL3:
 130 0012 0C4D     		ldr	r5, .L14
 131 0014 2870     		strb	r0, [r5]
  91:asw/main.c    **** 
 132              		.loc 1 91 0
 133 0016 FFF7FEFF 		bl	CyDmaTdAllocate
 134              	.LVL4:
 135 001a 0B4C     		ldr	r4, .L14+4
 136 001c 2070     		strb	r0, [r4]
  93:asw/main.c    **** 
 137              		.loc 1 93 0
 138 001e 0623     		movs	r3, #6
 139 0020 FE22     		movs	r2, #254
 140 0022 4FF40061 		mov	r1, #2048
 141 0026 FFF7FEFF 		bl	CyDmaTdSetConfiguration
 142              	.LVL5:
  95:asw/main.c    ****     CyDmaChSetInitialTd(DMA_ADC_Chan, DMA_ADC_TD[0]);
 143              		.loc 1 95 0
 144 002a 084A     		ldr	r2, .L14+8
 145 002c 92B2     		uxth	r2, r2
ARM GAS  C:\Users\vboxuser\AppData\Local\Temp\ccFW4uY0.s 			page 6


 146 002e 44F61061 		movw	r1, #19984
 147 0032 2078     		ldrb	r0, [r4]	@ zero_extendqisi2
 148 0034 FFF7FEFF 		bl	CyDmaTdSetAddress
 149              	.LVL6:
  96:asw/main.c    ****     
 150              		.loc 1 96 0
 151 0038 2178     		ldrb	r1, [r4]	@ zero_extendqisi2
 152 003a 2878     		ldrb	r0, [r5]	@ zero_extendqisi2
 153 003c FFF7FEFF 		bl	CyDmaChSetInitialTd
 154              	.LVL7:
 155 0040 38BD     		pop	{r3, r4, r5, pc}
 156              	.L15:
 157 0042 00BF     		.align	2
 158              	.L14:
 159 0044 00000000 		.word	DMA_ADC_Chan
 160 0048 00000000 		.word	DMA_ADC_TD
 161 004c 02000000 		.word	.LANCHOR0+2
 162              		.cfi_endproc
 163              	.LFE123:
 164              		.size	DMA_Config, .-DMA_Config
 165              		.section	.text.shieldInit,"ax",%progbits
 166              		.align	2
 167              		.global	shieldInit
 168              		.thumb
 169              		.thumb_func
 170              		.type	shieldInit, %function
 171              	shieldInit:
 172              	.LFB124:
 102:asw/main.c    **** 
 173              		.loc 1 102 0
 174              		.cfi_startproc
 175              		@ args = 0, pretend = 0, frame = 0
 176              		@ frame_needed = 0, uses_anonymous_args = 0
 177              		@ link register save eliminated.
 104:asw/main.c    ****    shieldData.count = 1;
 178              		.loc 1 104 0
 179 0000 0A4A     		ldr	r2, .L19
 180 0002 0023     		movs	r3, #0
 181 0004 45F60801 		movw	r1, #22536
 182 0008 5354     		strb	r3, [r2, r1]
 105:asw/main.c    ****    shieldData.uartStatus= NONE;
 183              		.loc 1 105 0
 184 000a 0121     		movs	r1, #1
 185 000c 1170     		strb	r1, [r2]
 106:asw/main.c    ****    for (int16_t i=0; i< NUMBER_OF_SAMPLE; i++){
 186              		.loc 1 106 0
 187 000e 45F60901 		movw	r1, #22537
 188 0012 5354     		strb	r3, [r2, r1]
 189              	.LVL8:
 190              	.LBB2:
 107:asw/main.c    ****     shieldData.sensor_data[i] =0;    
 191              		.loc 1 107 0
 192 0014 06E0     		b	.L17
 193              	.LVL9:
 194              	.L18:
 108:asw/main.c    ****     }
 195              		.loc 1 108 0 discriminator 3
ARM GAS  C:\Users\vboxuser\AppData\Local\Temp\ccFW4uY0.s 			page 7


 196 0016 054A     		ldr	r2, .L19
 197 0018 02EB4302 		add	r2, r2, r3, lsl #1
 198 001c 0021     		movs	r1, #0
 199 001e 5180     		strh	r1, [r2, #2]	@ movhi
 107:asw/main.c    ****     shieldData.sensor_data[i] =0;    
 200              		.loc 1 107 0 discriminator 3
 201 0020 0133     		adds	r3, r3, #1
 202              	.LVL10:
 203 0022 1BB2     		sxth	r3, r3
 204              	.LVL11:
 205              	.L17:
 107:asw/main.c    ****     shieldData.sensor_data[i] =0;    
 206              		.loc 1 107 0 is_stmt 0 discriminator 1
 207 0024 B3F5806F 		cmp	r3, #1024
 208 0028 F5DB     		blt	.L18
 209              	.LBE2:
 111:asw/main.c    **** 
 210              		.loc 1 111 0 is_stmt 1
 211 002a 7047     		bx	lr
 212              	.L20:
 213              		.align	2
 214              	.L19:
 215 002c 00000000 		.word	.LANCHOR0
 216              		.cfi_endproc
 217              	.LFE124:
 218              		.size	shieldInit, .-shieldInit
 219              		.section	.text.main,"ax",%progbits
 220              		.align	2
 221              		.global	main
 222              		.thumb
 223              		.thumb_func
 224              		.type	main, %function
 225              	main:
 226              	.LFB127:
 136:asw/main.c    ****     }
 137:asw/main.c    **** }
 138:asw/main.c    **** int main(void)
 139:asw/main.c    **** {
 227              		.loc 1 139 0
 228              		.cfi_startproc
 229              		@ args = 0, pretend = 0, frame = 168
 230              		@ frame_needed = 0, uses_anonymous_args = 0
 231 0000 70B5     		push	{r4, r5, r6, lr}
 232              		.cfi_def_cfa_offset 16
 233              		.cfi_offset 4, -16
 234              		.cfi_offset 5, -12
 235              		.cfi_offset 6, -8
 236              		.cfi_offset 14, -4
 237 0002 B0B0     		sub	sp, sp, #192
 238              		.cfi_def_cfa_offset 208
 140:asw/main.c    ****     CyGlobalIntEnable; /* Enable global interrupts. */
 239              		.loc 1 140 0
 240              		.syntax unified
 241              	@ 140 "asw\main.c" 1
 242 0004 62B6     		CPSIE   i
 243              	@ 0 "" 2
 141:asw/main.c    ****     WaveDAC8_Start();
ARM GAS  C:\Users\vboxuser\AppData\Local\Temp\ccFW4uY0.s 			page 8


 244              		.loc 1 141 0
 245              		.thumb
 246              		.syntax unified
 247 0006 FFF7FEFF 		bl	WaveDAC8_Start
 248              	.LVL12:
 142:asw/main.c    ****     WaveDAC8_Enable(); 
 249              		.loc 1 142 0
 250 000a FFF7FEFF 		bl	WaveDAC8_Enable
 251              	.LVL13:
 143:asw/main.c    ****     
 144:asw/main.c    ****     // Assign Interrupt
 145:asw/main.c    ****     isr_button_StartEx(isr_button_handler);
 252              		.loc 1 145 0
 253 000e 6248     		ldr	r0, .L32+8
 254 0010 FFF7FEFF 		bl	isr_button_StartEx
 255              	.LVL14:
 146:asw/main.c    ****     isr_rx_StartEx(isr_rx_handler);
 256              		.loc 1 146 0
 257 0014 6148     		ldr	r0, .L32+12
 258 0016 FFF7FEFF 		bl	isr_rx_StartEx
 259              	.LVL15:
 147:asw/main.c    ****     
 148:asw/main.c    ****     ADC_Start();
 260              		.loc 1 148 0
 261 001a FFF7FEFF 		bl	ADC_Start
 262              	.LVL16:
 149:asw/main.c    ****     
 150:asw/main.c    ****     LED_Init();
 263              		.loc 1 150 0
 264 001e FFF7FEFF 		bl	LED_Init
 265              	.LVL17:
 151:asw/main.c    **** 
 152:asw/main.c    ****     LOG_Init();
 266              		.loc 1 152 0
 267 0022 FFF7FEFF 		bl	LOG_Init
 268              	.LVL18:
 153:asw/main.c    ****     shieldInit();
 269              		.loc 1 153 0
 270 0026 FFF7FEFF 		bl	shieldInit
 271              	.LVL19:
 154:asw/main.c    **** 
 155:asw/main.c    ****     DMA_Config();
 272              		.loc 1 155 0
 273 002a FFF7FEFF 		bl	DMA_Config
 274              	.LVL20:
 275              	.L23:
 156:asw/main.c    ****     
 157:asw/main.c    ****     
 158:asw/main.c    ****     for(;;)
 159:asw/main.c    ****     {
 160:asw/main.c    ****         /* Place your application code here. */
 161:asw/main.c    **** 
 162:asw/main.c    ****         switch(shieldData.currentState){
 276              		.loc 1 162 0
 277 002e 45F60803 		movw	r3, #22536
 278 0032 5B4A     		ldr	r2, .L32+16
 279 0034 D35C     		ldrb	r3, [r2, r3]	@ zero_extendqisi2
ARM GAS  C:\Users\vboxuser\AppData\Local\Temp\ccFW4uY0.s 			page 9


 280 0036 012B     		cmp	r3, #1
 281 0038 08D0     		beq	.L24
 282 003a 13B1     		cbz	r3, .L25
 283 003c 022B     		cmp	r3, #2
 284 003e 56D0     		beq	.L26
 285 0040 F5E7     		b	.L23
 286              	.L25:
 287              	.LBB3:
 163:asw/main.c    ****             
 164:asw/main.c    ****         case IDLE:
 165:asw/main.c    **** 
 166:asw/main.c    ****             
 167:asw/main.c    ****             LED_Set(LED_GREEN, 1);
 288              		.loc 1 167 0
 289 0042 0121     		movs	r1, #1
 290 0044 0220     		movs	r0, #2
 291 0046 FFF7FEFF 		bl	LED_Set
 292              	.LVL21:
 168:asw/main.c    ****             
 169:asw/main.c    ****             break;
 293              		.loc 1 169 0
 294 004a F0E7     		b	.L23
 295              	.L24:
 170:asw/main.c    ****         case SAMPLING:
 171:asw/main.c    ****             LED_Set(LED_YELLOW, 1);
 296              		.loc 1 171 0
 297 004c 0121     		movs	r1, #1
 298 004e 0846     		mov	r0, r1
 299 0050 FFF7FEFF 		bl	LED_Set
 300              	.LVL22:
 172:asw/main.c    ****             ADC_StartConvert();
 301              		.loc 1 172 0
 302 0054 FFF7FEFF 		bl	ADC_StartConvert
 303              	.LVL23:
 173:asw/main.c    ****             CyDmaChEnable(DMA_ADC_Chan, 1);
 304              		.loc 1 173 0
 305 0058 0121     		movs	r1, #1
 306 005a 524B     		ldr	r3, .L32+20
 307 005c 1878     		ldrb	r0, [r3]	@ zero_extendqisi2
 308 005e FFF7FEFF 		bl	CyDmaChEnable
 309              	.LVL24:
 174:asw/main.c    **** 
 175:asw/main.c    ****             if (Status_Reg_1_Read()){
 310              		.loc 1 175 0
 311 0062 FFF7FEFF 		bl	Status_Reg_1_Read
 312              	.LVL25:
 313 0066 0028     		cmp	r0, #0
 314 0068 E1D0     		beq	.L23
 176:asw/main.c    ****                     
 177:asw/main.c    ****                     // When DMA transfer finished , turn on DMA Channel 
 178:asw/main.c    ****                     // Switch to next stage       
 179:asw/main.c    ****                     ADC_StopConvert();
 315              		.loc 1 179 0
 316 006a FFF7FEFF 		bl	ADC_StopConvert
 317              	.LVL26:
 180:asw/main.c    ****                     CyDmaChDisable(DMA_ADC_Chan);
 318              		.loc 1 180 0
ARM GAS  C:\Users\vboxuser\AppData\Local\Temp\ccFW4uY0.s 			page 10


 319 006e 4D4B     		ldr	r3, .L32+20
 320 0070 1878     		ldrb	r0, [r3]	@ zero_extendqisi2
 321 0072 FFF7FEFF 		bl	CyDmaChDisable
 322              	.LVL27:
 181:asw/main.c    ****                     shieldData.currentState = DETECTING;
 323              		.loc 1 181 0
 324 0076 4A4C     		ldr	r4, .L32+16
 325 0078 0222     		movs	r2, #2
 326 007a 45F60803 		movw	r3, #22536
 327 007e E254     		strb	r2, [r4, r3]
 182:asw/main.c    ****                     
 183:asw/main.c    ****                     // Apply Hanning window for ADC data sampling
 184:asw/main.c    ****                     applyHanningWindow(shieldData.sensor_data, NUMBER_OF_SAMPLE);
 328              		.loc 1 184 0
 329 0080 A518     		adds	r5, r4, r2
 330 0082 4FF48061 		mov	r1, #1024
 331 0086 2846     		mov	r0, r5
 332 0088 FFF7FEFF 		bl	applyHanningWindow
 333              	.LVL28:
 185:asw/main.c    ****                     
 186:asw/main.c    ****                     // Fast fourier transform our windowned data
 187:asw/main.c    ****                     fft_app(shieldData.sensor_data, shieldData.sensor_fft.fft_sensor_data, NUMBER_O
 334              		.loc 1 187 0
 335 008c 04F60406 		addw	r6, r4, #2052
 336 0090 4FF48062 		mov	r2, #1024
 337 0094 3146     		mov	r1, r6
 338 0096 2846     		mov	r0, r5
 339 0098 FFF7FEFF 		bl	fft_app
 340              	.LVL29:
 188:asw/main.c    ****                     
 189:asw/main.c    ****                     // Calculate power spectrum , return in Db 
 190:asw/main.c    ****                     calcPowerSpectrum(shieldData.sensor_fft.fft_sensor_data, NUMBER_OF_SAMPLE*2,shi
 341              		.loc 1 190 0
 342 009c 04F52055 		add	r5, r4, #10240
 343 00a0 0435     		adds	r5, r5, #4
 344 00a2 04F56053 		add	r3, r4, #14336
 345 00a6 0433     		adds	r3, r3, #4
 346 00a8 2A46     		mov	r2, r5
 347 00aa 4FF40061 		mov	r1, #2048
 348 00ae 3046     		mov	r0, r6
 349 00b0 FFF7FEFF 		bl	calcPowerSpectrum
 350              	.LVL30:
 191:asw/main.c    **** 
 192:asw/main.c    ****                     // Calculate threshold using CA_CFAR algorithm
 193:asw/main.c    ****                     CA_CFAR(shieldData.sensor_fft.mag, NUMBER_OF_SAMPLE, NUMBER_OF_GUARD, NUMBER_OF
 351              		.loc 1 193 0
 352 00b4 04F5B043 		add	r3, r4, #22528
 353 00b8 0633     		adds	r3, r3, #6
 354 00ba 0493     		str	r3, [sp, #16]
 355 00bc 04F5B043 		add	r3, r4, #22528
 356 00c0 0433     		adds	r3, r3, #4
 357 00c2 0393     		str	r3, [sp, #12]
 358 00c4 04F59044 		add	r4, r4, #18432
 359 00c8 0434     		adds	r4, r4, #4
 360 00ca 0294     		str	r4, [sp, #8]
 361 00cc 30A3     		adr	r3, .L32
 362 00ce D3E90023 		ldrd	r2, [r3]
ARM GAS  C:\Users\vboxuser\AppData\Local\Temp\ccFW4uY0.s 			page 11


 363 00d2 CDE90023 		strd	r2, [sp]
 364 00d6 3223     		movs	r3, #50
 365 00d8 0422     		movs	r2, #4
 366 00da 4FF48061 		mov	r1, #1024
 367 00de 2846     		mov	r0, r5
 368 00e0 FFF7FEFF 		bl	CA_CFAR
 369              	.LVL31:
 194:asw/main.c    ****                     LED_Set(LED_YELLOW, 0);
 370              		.loc 1 194 0
 371 00e4 0021     		movs	r1, #0
 372 00e6 0120     		movs	r0, #1
 373 00e8 FFF7FEFF 		bl	LED_Set
 374              	.LVL32:
 375 00ec 9FE7     		b	.L23
 376              	.L26:
 195:asw/main.c    ****   
 196:asw/main.c    **** 
 197:asw/main.c    ****             }
 198:asw/main.c    **** 
 199:asw/main.c    ****             break;
 200:asw/main.c    ****         case DETECTING:
 201:asw/main.c    **** 
 202:asw/main.c    ****             shieldData.currentState = SAMPLING;
 377              		.loc 1 202 0
 378 00ee 2C4D     		ldr	r5, .L32+16
 379 00f0 0121     		movs	r1, #1
 380 00f2 45F60803 		movw	r3, #22536
 381 00f6 E954     		strb	r1, [r5, r3]
 203:asw/main.c    ****             LED_Set(LED_GREEN, 1);
 382              		.loc 1 203 0
 383 00f8 0220     		movs	r0, #2
 384 00fa FFF7FEFF 		bl	LED_Set
 385              	.LVL33:
 204:asw/main.c    ****             shieldData.uartStatus = NONE;
 386              		.loc 1 204 0
 387 00fe 0024     		movs	r4, #0
 388 0100 45F60903 		movw	r3, #22537
 389 0104 EC54     		strb	r4, [r5, r3]
 390              	.LVL34:
 391              	.LBB4:
 205:asw/main.c    **** 
 206:asw/main.c    ****             uint32_t count_detection = 0;
 207:asw/main.c    ****             for (int i=shieldData.cfar.startCUTIdx; i <= shieldData.cfar.stopCUTIdx; i++){
 392              		.loc 1 207 0
 393 0106 45F60403 		movw	r3, #22532
 394 010a EB5A     		ldrh	r3, [r5, r3]
 395              	.LVL35:
 396 010c 0EE0     		b	.L28
 397              	.LVL36:
 398              	.L30:
 208:asw/main.c    ****                 if ( shieldData.cfar.threshhold[i] < shieldData.sensor_fft.power[i]){
 399              		.loc 1 208 0
 400 010e 244A     		ldr	r2, .L32+16
 401 0110 03F59051 		add	r1, r3, #4608
 402 0114 02EB8101 		add	r1, r2, r1, lsl #2
 403 0118 4968     		ldr	r1, [r1, #4]
 404 011a 03F56060 		add	r0, r3, #3584
ARM GAS  C:\Users\vboxuser\AppData\Local\Temp\ccFW4uY0.s 			page 12


 405 011e 02EB8002 		add	r2, r2, r0, lsl #2
 406 0122 5268     		ldr	r2, [r2, #4]
 407 0124 9142     		cmp	r1, r2
 408 0126 00DA     		bge	.L29
 209:asw/main.c    ****                     count_detection++;
 409              		.loc 1 209 0
 410 0128 0134     		adds	r4, r4, #1
 411              	.LVL37:
 412              	.L29:
 207:asw/main.c    ****                 if ( shieldData.cfar.threshhold[i] < shieldData.sensor_fft.power[i]){
 413              		.loc 1 207 0 discriminator 2
 414 012a 0133     		adds	r3, r3, #1
 415              	.LVL38:
 416              	.L28:
 207:asw/main.c    ****                 if ( shieldData.cfar.threshhold[i] < shieldData.sensor_fft.power[i]){
 417              		.loc 1 207 0 is_stmt 0 discriminator 1
 418 012c 45F60602 		movw	r2, #22534
 419 0130 1B49     		ldr	r1, .L32+16
 420 0132 8A5A     		ldrh	r2, [r1, r2]
 421 0134 9342     		cmp	r3, r2
 422 0136 EADD     		ble	.L30
 423              	.LBE4:
 424              	.LBB5:
 210:asw/main.c    ****                 }                        
 211:asw/main.c    ****             }
 212:asw/main.c    ****             LOG_I("Count detection","%i",count_detection);
 425              		.loc 1 212 0 is_stmt 1 discriminator 1
 426 0138 0123     		movs	r3, #1
 427              	.LVL39:
 428 013a 8DF81830 		strb	r3, [sp, #24]
 429 013e 1A4D     		ldr	r5, .L32+24
 430 0140 0FCD     		ldmia	r5!, {r0, r1, r2, r3}
 431 0142 CDF81900 		str	r0, [sp, #25]	@ unaligned
 432 0146 CDF81D10 		str	r1, [sp, #29]	@ unaligned
 433 014a CDF82120 		str	r2, [sp, #33]	@ unaligned
 434 014e CDF82530 		str	r3, [sp, #37]	@ unaligned
 435 0152 2246     		mov	r2, r4
 436 0154 1549     		ldr	r1, .L32+28
 437 0156 0DF12900 		add	r0, sp, #41
 438 015a FFF7FEFF 		bl	sprintf
 439              	.LVL40:
 440 015e 06A8     		add	r0, sp, #24
 441 0160 FFF7FEFF 		bl	LOG_send
 442              	.LVL41:
 443              	.LBE5:
 213:asw/main.c    ****             if (count_detection > COUNT_DETECTION_THRESHOLD){
 444              		.loc 1 213 0 discriminator 1
 445 0164 0F2C     		cmp	r4, #15
 446 0166 7FF662AF 		bls	.L23
 214:asw/main.c    ****                 LED_Set(LED_GREEN,0);
 447              		.loc 1 214 0
 448 016a 0021     		movs	r1, #0
 449 016c 0220     		movs	r0, #2
 450 016e FFF7FEFF 		bl	LED_Set
 451              	.LVL42:
 215:asw/main.c    ****                 LED_Set(LED_RED, 1);
 452              		.loc 1 215 0
ARM GAS  C:\Users\vboxuser\AppData\Local\Temp\ccFW4uY0.s 			page 13


 453 0172 0121     		movs	r1, #1
 454 0174 0020     		movs	r0, #0
 455 0176 FFF7FEFF 		bl	LED_Set
 456              	.LVL43:
 216:asw/main.c    ****                 CyDelay(500);
 457              		.loc 1 216 0
 458 017a 4FF4FA70 		mov	r0, #500
 459 017e FFF7FEFF 		bl	CyDelay
 460              	.LVL44:
 217:asw/main.c    ****                 LED_Set(LED_RED, 0);
 461              		.loc 1 217 0
 462 0182 0021     		movs	r1, #0
 463 0184 0846     		mov	r0, r1
 464 0186 FFF7FEFF 		bl	LED_Set
 465              	.LVL45:
 466 018a 50E7     		b	.L23
 467              	.L33:
 468 018c AFF30080 		.align	3
 469              	.L32:
 470 0190 8DEDB5A0 		.word	-1598689907
 471 0194 F7C6B03E 		.word	1051772663
 472 0198 00000000 		.word	isr_button_handler
 473 019c 00000000 		.word	isr_rx_handler
 474 01a0 00000000 		.word	.LANCHOR0
 475 01a4 00000000 		.word	DMA_ADC_Chan
 476 01a8 04000000 		.word	.LC0
 477 01ac 00000000 		.word	.LC1
 478              	.LBE3:
 479              		.cfi_endproc
 480              	.LFE127:
 481              		.size	main, .-main
 482              		.comm	DMA_ADC_TD,1,4
 483              		.comm	DMA_ADC_Chan,1,1
 484              		.section	.rodata.str1.4,"aMS",%progbits,1
 485              		.align	2
 486              	.LC1:
 487 0000 256900   		.ascii	"%i\000"
 488 0003 00       		.space	1
 489              	.LC0:
 490 0004 436F756E 		.ascii	"Count detection\000"
 490      74206465 
 490      74656374 
 490      696F6E00 
 491              		.bss
 492              		.align	2
 493              		.set	.LANCHOR0,. + 0
 494              		.type	shieldData, %object
 495              		.size	shieldData, 22540
 496              	shieldData:
 497 0000 00000000 		.space	22540
 497      00000000 
 497      00000000 
 497      00000000 
 497      00000000 
 498              		.text
 499              	.Letext0:
 500              		.file 2 "c:\\program files (x86)\\cypress\\psoc creator\\4.4\\psoc creator\\import\\gnu\\arm\\5.4.
ARM GAS  C:\Users\vboxuser\AppData\Local\Temp\ccFW4uY0.s 			page 14


 501              		.file 3 "c:\\program files (x86)\\cypress\\psoc creator\\4.4\\psoc creator\\import\\gnu\\arm\\5.4.
 502              		.file 4 "Generated_Source\\PSoC5/cytypes.h"
 503              		.file 5 ".\\bsw/global.h"
 504              		.file 6 ".\\bsw\\Services/logging.h"
 505              		.file 7 "./dsp.h"
 506              		.file 8 "Generated_Source\\PSoC5/core_cm3.h"
 507              		.file 9 "Generated_Source\\PSoC5/Button.h"
 508              		.file 10 "Generated_Source\\PSoC5/isr_button.h"
 509              		.file 11 "Generated_Source\\PSoC5/UART_LOG.h"
 510              		.file 12 "Generated_Source\\PSoC5/DMA_ADC_dma.h"
 511              		.file 13 "Generated_Source\\PSoC5/CYDMAC.H"
 512              		.file 14 "c:\\program files (x86)\\cypress\\psoc creator\\4.4\\psoc creator\\import\\gnu\\arm\\5.4
 513              		.file 15 ".\\bsw/led.h"
 514              		.file 16 "Generated_Source\\PSoC5/ADC.h"
 515              		.file 17 "Generated_Source\\PSoC5/Status_Reg_1.h"
 516              		.file 18 ".\\bsw\\fft_application/fft_application.h"
 517              		.file 19 "asw\\cfar.h"
 518              		.file 20 "Generated_Source\\PSoC5/CyLib.h"
 519              		.file 21 "Generated_Source\\PSoC5/WaveDAC8.h"
 520              		.file 22 "Generated_Source\\PSoC5/isr_rx.h"