ARM GAS  C:\Users\vboxuser\AppData\Local\Temp\ccKqkYuE.s 			page 1


   1              		.syntax unified
   2              		.cpu cortex-m3
   3              		.fpu softvfp
   4              		.eabi_attribute 20, 1
   5              		.eabi_attribute 21, 1
   6              		.eabi_attribute 23, 3
   7              		.eabi_attribute 24, 1
   8              		.eabi_attribute 25, 1
   9              		.eabi_attribute 26, 1
  10              		.eabi_attribute 30, 1
  11              		.eabi_attribute 34, 1
  12              		.eabi_attribute 18, 4
  13              		.thumb
  14              		.syntax unified
  15              		.file	"ADC_DelSig_2.c"
  16              		.text
  17              	.Ltext0:
  18              		.cfi_sections	.debug_frame
  19              		.section	.text.ADC_DelSig_2_GainCompensation,"ax",%progbits
  20              		.align	2
  21              		.thumb
  22              		.thumb_func
  23              		.type	ADC_DelSig_2_GainCompensation, %function
  24              	ADC_DelSig_2_GainCompensation:
  25              	.LFB21:
  26              		.file 1 "Generated_Source\\PSoC5\\ADC_DelSig_2.c"
   1:Generated_Source\PSoC5/ADC_DelSig_2.c **** /*******************************************************************************
   2:Generated_Source\PSoC5/ADC_DelSig_2.c **** * File Name: ADC_DelSig_2.c
   3:Generated_Source\PSoC5/ADC_DelSig_2.c **** * Version 3.30
   4:Generated_Source\PSoC5/ADC_DelSig_2.c **** *
   5:Generated_Source\PSoC5/ADC_DelSig_2.c **** * Description:
   6:Generated_Source\PSoC5/ADC_DelSig_2.c **** *  This file provides the source code to the API for the Delta-Sigma ADC
   7:Generated_Source\PSoC5/ADC_DelSig_2.c **** *  Component.
   8:Generated_Source\PSoC5/ADC_DelSig_2.c **** *
   9:Generated_Source\PSoC5/ADC_DelSig_2.c **** * Note:
  10:Generated_Source\PSoC5/ADC_DelSig_2.c **** *
  11:Generated_Source\PSoC5/ADC_DelSig_2.c **** ********************************************************************************
  12:Generated_Source\PSoC5/ADC_DelSig_2.c **** * Copyright 2008-2017, Cypress Semiconductor Corporation.  All rights reserved.
  13:Generated_Source\PSoC5/ADC_DelSig_2.c **** * You may use this file only in accordance with the license, terms, conditions,
  14:Generated_Source\PSoC5/ADC_DelSig_2.c **** * disclaimers, and limitations in the end user license agreement accompanying
  15:Generated_Source\PSoC5/ADC_DelSig_2.c **** * the software package with which this file was provided.
  16:Generated_Source\PSoC5/ADC_DelSig_2.c **** *******************************************************************************/
  17:Generated_Source\PSoC5/ADC_DelSig_2.c **** 
  18:Generated_Source\PSoC5/ADC_DelSig_2.c **** #include "ADC_DelSig_2.h"
  19:Generated_Source\PSoC5/ADC_DelSig_2.c **** 
  20:Generated_Source\PSoC5/ADC_DelSig_2.c **** #if(ADC_DelSig_2_DEFAULT_INTERNAL_CLK)
  21:Generated_Source\PSoC5/ADC_DelSig_2.c ****     #include "ADC_DelSig_2_theACLK.h"
  22:Generated_Source\PSoC5/ADC_DelSig_2.c **** #endif /* ADC_DelSig_2_DEFAULT_INTERNAL_CLK */
  23:Generated_Source\PSoC5/ADC_DelSig_2.c **** 
  24:Generated_Source\PSoC5/ADC_DelSig_2.c **** #include "ADC_DelSig_2_Ext_CP_Clk.h"
  25:Generated_Source\PSoC5/ADC_DelSig_2.c **** 
  26:Generated_Source\PSoC5/ADC_DelSig_2.c **** #if(ADC_DelSig_2_DEFAULT_INPUT_MODE)
  27:Generated_Source\PSoC5/ADC_DelSig_2.c ****     #include "ADC_DelSig_2_AMux.h"
  28:Generated_Source\PSoC5/ADC_DelSig_2.c **** #endif /* ADC_DelSig_2_DEFAULT_INPUT_MODE */
  29:Generated_Source\PSoC5/ADC_DelSig_2.c **** 
  30:Generated_Source\PSoC5/ADC_DelSig_2.c **** 
  31:Generated_Source\PSoC5/ADC_DelSig_2.c **** /***************************************
ARM GAS  C:\Users\vboxuser\AppData\Local\Temp\ccKqkYuE.s 			page 2


  32:Generated_Source\PSoC5/ADC_DelSig_2.c **** * Global data allocation
  33:Generated_Source\PSoC5/ADC_DelSig_2.c **** ***************************************/
  34:Generated_Source\PSoC5/ADC_DelSig_2.c **** 
  35:Generated_Source\PSoC5/ADC_DelSig_2.c **** /* Software flag for checking conversion completed or not */
  36:Generated_Source\PSoC5/ADC_DelSig_2.c **** volatile uint8 ADC_DelSig_2_convDone = 0u;
  37:Generated_Source\PSoC5/ADC_DelSig_2.c **** 
  38:Generated_Source\PSoC5/ADC_DelSig_2.c **** /* Software flag to stop conversion for single sample conversion mode
  39:Generated_Source\PSoC5/ADC_DelSig_2.c **** *   with resolution above 16 bits 
  40:Generated_Source\PSoC5/ADC_DelSig_2.c **** */
  41:Generated_Source\PSoC5/ADC_DelSig_2.c **** volatile uint8 ADC_DelSig_2_stopConversion = 0u;
  42:Generated_Source\PSoC5/ADC_DelSig_2.c **** 
  43:Generated_Source\PSoC5/ADC_DelSig_2.c **** /* To run the initialization block only at the start up */
  44:Generated_Source\PSoC5/ADC_DelSig_2.c **** uint8 ADC_DelSig_2_initVar = 0u;
  45:Generated_Source\PSoC5/ADC_DelSig_2.c **** 
  46:Generated_Source\PSoC5/ADC_DelSig_2.c **** /* To check whether ADC started or not before switching the configuration */
  47:Generated_Source\PSoC5/ADC_DelSig_2.c **** volatile uint8 ADC_DelSig_2_started = 0u;
  48:Generated_Source\PSoC5/ADC_DelSig_2.c **** 
  49:Generated_Source\PSoC5/ADC_DelSig_2.c **** /* Flag to hold ADC config number. By default active config is 1. */
  50:Generated_Source\PSoC5/ADC_DelSig_2.c **** volatile uint8 ADC_DelSig_2_Config = 1u;
  51:Generated_Source\PSoC5/ADC_DelSig_2.c **** 
  52:Generated_Source\PSoC5/ADC_DelSig_2.c **** volatile int32 ADC_DelSig_2_Offset = 0;
  53:Generated_Source\PSoC5/ADC_DelSig_2.c **** volatile int32 ADC_DelSig_2_CountsPerVolt;
  54:Generated_Source\PSoC5/ADC_DelSig_2.c **** 
  55:Generated_Source\PSoC5/ADC_DelSig_2.c **** 
  56:Generated_Source\PSoC5/ADC_DelSig_2.c **** /***************************************
  57:Generated_Source\PSoC5/ADC_DelSig_2.c **** * Local data allocation
  58:Generated_Source\PSoC5/ADC_DelSig_2.c **** ***************************************/
  59:Generated_Source\PSoC5/ADC_DelSig_2.c **** 
  60:Generated_Source\PSoC5/ADC_DelSig_2.c **** /* The array with precalculated gain compensation coefficients */
  61:Generated_Source\PSoC5/ADC_DelSig_2.c **** static ADC_DelSig_2_GCOR_STRUCT ADC_DelSig_2_gcor[ADC_DelSig_2_DEFAULT_NUM_CONFIGS];
  62:Generated_Source\PSoC5/ADC_DelSig_2.c **** 
  63:Generated_Source\PSoC5/ADC_DelSig_2.c **** 
  64:Generated_Source\PSoC5/ADC_DelSig_2.c **** 
  65:Generated_Source\PSoC5/ADC_DelSig_2.c **** /***************************************
  66:Generated_Source\PSoC5/ADC_DelSig_2.c **** * Forward function references
  67:Generated_Source\PSoC5/ADC_DelSig_2.c **** ***************************************/
  68:Generated_Source\PSoC5/ADC_DelSig_2.c **** static void ADC_DelSig_2_InitConfig(uint8 config) ;
  69:Generated_Source\PSoC5/ADC_DelSig_2.c **** static void ADC_DelSig_2_GainCompensation(uint8 inputRange, uint16 idealDecGain, uint16 idealOddDec
  70:Generated_Source\PSoC5/ADC_DelSig_2.c ****                             uint8 resolution, uint8 config) ;
  71:Generated_Source\PSoC5/ADC_DelSig_2.c **** static void ADC_DelSig_2_SetDSMRef0Reg(uint8 value) ;
  72:Generated_Source\PSoC5/ADC_DelSig_2.c **** 
  73:Generated_Source\PSoC5/ADC_DelSig_2.c **** 
  74:Generated_Source\PSoC5/ADC_DelSig_2.c **** /******************************************************************************
  75:Generated_Source\PSoC5/ADC_DelSig_2.c **** * Function Name: ADC_DelSig_2_Init
  76:Generated_Source\PSoC5/ADC_DelSig_2.c **** *******************************************************************************
  77:Generated_Source\PSoC5/ADC_DelSig_2.c **** *
  78:Generated_Source\PSoC5/ADC_DelSig_2.c **** * Summary:
  79:Generated_Source\PSoC5/ADC_DelSig_2.c **** *  Initialize component's parameters to the parameters set by user in the
  80:Generated_Source\PSoC5/ADC_DelSig_2.c **** *  customizer of the component placed onto schematic. Usually called in
  81:Generated_Source\PSoC5/ADC_DelSig_2.c **** * ADC_DelSig_2_Start().
  82:Generated_Source\PSoC5/ADC_DelSig_2.c **** *
  83:Generated_Source\PSoC5/ADC_DelSig_2.c **** *
  84:Generated_Source\PSoC5/ADC_DelSig_2.c **** * Parameters:
  85:Generated_Source\PSoC5/ADC_DelSig_2.c **** *  None
  86:Generated_Source\PSoC5/ADC_DelSig_2.c **** *
  87:Generated_Source\PSoC5/ADC_DelSig_2.c **** * Return:
  88:Generated_Source\PSoC5/ADC_DelSig_2.c **** *  None
ARM GAS  C:\Users\vboxuser\AppData\Local\Temp\ccKqkYuE.s 			page 3


  89:Generated_Source\PSoC5/ADC_DelSig_2.c **** *
  90:Generated_Source\PSoC5/ADC_DelSig_2.c **** *******************************************************************************/
  91:Generated_Source\PSoC5/ADC_DelSig_2.c **** void ADC_DelSig_2_Init(void) 
  92:Generated_Source\PSoC5/ADC_DelSig_2.c **** {
  93:Generated_Source\PSoC5/ADC_DelSig_2.c **** 
  94:Generated_Source\PSoC5/ADC_DelSig_2.c ****     ADC_DelSig_2_Config = 1u;
  95:Generated_Source\PSoC5/ADC_DelSig_2.c ****     ADC_DelSig_2_convDone = 0u;
  96:Generated_Source\PSoC5/ADC_DelSig_2.c **** 
  97:Generated_Source\PSoC5/ADC_DelSig_2.c ****     ADC_DelSig_2_Ext_CP_Clk_SetMode(CYCLK_DUTY);
  98:Generated_Source\PSoC5/ADC_DelSig_2.c **** 
  99:Generated_Source\PSoC5/ADC_DelSig_2.c ****     /* This is only valid if there is an internal clock */
 100:Generated_Source\PSoC5/ADC_DelSig_2.c ****     #if(ADC_DelSig_2_DEFAULT_INTERNAL_CLK)
 101:Generated_Source\PSoC5/ADC_DelSig_2.c ****         ADC_DelSig_2_theACLK_SetMode(CYCLK_DUTY);
 102:Generated_Source\PSoC5/ADC_DelSig_2.c ****     #endif /* ADC_DelSig_2_DEFAULT_INTERNAL_CLK */
 103:Generated_Source\PSoC5/ADC_DelSig_2.c **** 
 104:Generated_Source\PSoC5/ADC_DelSig_2.c ****     #if(ADC_DelSig_2_IRQ_REMOVE == 0u)
 105:Generated_Source\PSoC5/ADC_DelSig_2.c ****         /* Set interrupt priority */
 106:Generated_Source\PSoC5/ADC_DelSig_2.c ****         CyIntSetPriority(ADC_DelSig_2_INTC_NUMBER, ADC_DelSig_2_INTC_PRIOR_NUMBER);
 107:Generated_Source\PSoC5/ADC_DelSig_2.c ****     #endif   /* End ADC_DelSig_2_IRQ_REMOVE */
 108:Generated_Source\PSoC5/ADC_DelSig_2.c **** 
 109:Generated_Source\PSoC5/ADC_DelSig_2.c ****     /* Init static registers with common configuration */
 110:Generated_Source\PSoC5/ADC_DelSig_2.c ****     ADC_DelSig_2_DSM_DEM0_REG    = ADC_DelSig_2_CFG1_DSM_DEM0;
 111:Generated_Source\PSoC5/ADC_DelSig_2.c ****     ADC_DelSig_2_DSM_DEM1_REG    = ADC_DelSig_2_CFG1_DSM_DEM1;
 112:Generated_Source\PSoC5/ADC_DelSig_2.c ****     ADC_DelSig_2_DSM_MISC_REG    = ADC_DelSig_2_CFG1_DSM_MISC;
 113:Generated_Source\PSoC5/ADC_DelSig_2.c ****     ADC_DelSig_2_DSM_CLK_REG    |= ADC_DelSig_2_CFG1_DSM_CLK;
 114:Generated_Source\PSoC5/ADC_DelSig_2.c ****     ADC_DelSig_2_DSM_REF1_REG    = ADC_DelSig_2_CFG1_DSM_REF1;
 115:Generated_Source\PSoC5/ADC_DelSig_2.c **** 
 116:Generated_Source\PSoC5/ADC_DelSig_2.c ****     ADC_DelSig_2_DSM_OUT0_REG    = ADC_DelSig_2_CFG1_DSM_OUT0;
 117:Generated_Source\PSoC5/ADC_DelSig_2.c ****     ADC_DelSig_2_DSM_OUT1_REG    = ADC_DelSig_2_CFG1_DSM_OUT1;
 118:Generated_Source\PSoC5/ADC_DelSig_2.c **** 
 119:Generated_Source\PSoC5/ADC_DelSig_2.c ****     ADC_DelSig_2_DSM_CR0_REG     = ADC_DelSig_2_CFG1_DSM_CR0;
 120:Generated_Source\PSoC5/ADC_DelSig_2.c ****     ADC_DelSig_2_DSM_CR1_REG     = ADC_DelSig_2_CFG1_DSM_CR1;
 121:Generated_Source\PSoC5/ADC_DelSig_2.c **** #if(ADC_DelSig_2_MI_ENABLE != 0u) /* Enable Modulator Input */
 122:Generated_Source\PSoC5/ADC_DelSig_2.c ****     ADC_DelSig_2_DSM_CR3_REG     |= ADC_DelSig_2_DSM_MODBIT_EN;
 123:Generated_Source\PSoC5/ADC_DelSig_2.c **** #else
 124:Generated_Source\PSoC5/ADC_DelSig_2.c ****     ADC_DelSig_2_DSM_CR3_REG     = ADC_DelSig_2_CFG1_DSM_CR3;
 125:Generated_Source\PSoC5/ADC_DelSig_2.c **** #endif /* ADC_DelSig_2_MI_ENABLE != 0u*/    
 126:Generated_Source\PSoC5/ADC_DelSig_2.c ****     ADC_DelSig_2_DSM_CR8_REG     = ADC_DelSig_2_CFG1_DSM_CR8;
 127:Generated_Source\PSoC5/ADC_DelSig_2.c ****     ADC_DelSig_2_DSM_CR9_REG     = ADC_DelSig_2_CFG1_DSM_CR9;
 128:Generated_Source\PSoC5/ADC_DelSig_2.c ****     ADC_DelSig_2_DSM_CR13_REG    = ADC_DelSig_2_CFG1_DSM_CR13;
 129:Generated_Source\PSoC5/ADC_DelSig_2.c **** 
 130:Generated_Source\PSoC5/ADC_DelSig_2.c ****     ADC_DelSig_2_DEC_SR_REG      = ADC_DelSig_2_CFG1_DEC_SR;
 131:Generated_Source\PSoC5/ADC_DelSig_2.c **** 
 132:Generated_Source\PSoC5/ADC_DelSig_2.c ****     /* Calculate Gain compensation coefficients for all configurations */
 133:Generated_Source\PSoC5/ADC_DelSig_2.c ****     ADC_DelSig_2_GainCompensation(ADC_DelSig_2_CFG1_INPUT_RANGE,
 134:Generated_Source\PSoC5/ADC_DelSig_2.c ****                                       ADC_DelSig_2_CFG1_IDEAL_DEC_GAIN,
 135:Generated_Source\PSoC5/ADC_DelSig_2.c ****                                       ADC_DelSig_2_CFG1_IDEAL_ODDDEC_GAIN,
 136:Generated_Source\PSoC5/ADC_DelSig_2.c ****                                       ADC_DelSig_2_CFG1_RESOLUTION,
 137:Generated_Source\PSoC5/ADC_DelSig_2.c ****                                       ADC_DelSig_2_CFG1);
 138:Generated_Source\PSoC5/ADC_DelSig_2.c ****     #if(ADC_DelSig_2_DEFAULT_NUM_CONFIGS > 1)
 139:Generated_Source\PSoC5/ADC_DelSig_2.c ****         ADC_DelSig_2_GainCompensation(ADC_DelSig_2_CFG2_INPUT_RANGE,
 140:Generated_Source\PSoC5/ADC_DelSig_2.c ****                                           ADC_DelSig_2_CFG2_IDEAL_DEC_GAIN,
 141:Generated_Source\PSoC5/ADC_DelSig_2.c ****                                           ADC_DelSig_2_CFG2_IDEAL_ODDDEC_GAIN,
 142:Generated_Source\PSoC5/ADC_DelSig_2.c ****                                           ADC_DelSig_2_CFG2_RESOLUTION,
 143:Generated_Source\PSoC5/ADC_DelSig_2.c ****                                           ADC_DelSig_2_CFG2);
 144:Generated_Source\PSoC5/ADC_DelSig_2.c ****     #endif /* ADC_DelSig_2_DEFAULT_NUM_CONFIGS > 1 */
 145:Generated_Source\PSoC5/ADC_DelSig_2.c ****     #if(ADC_DelSig_2_DEFAULT_NUM_CONFIGS > 2)
ARM GAS  C:\Users\vboxuser\AppData\Local\Temp\ccKqkYuE.s 			page 4


 146:Generated_Source\PSoC5/ADC_DelSig_2.c ****         ADC_DelSig_2_GainCompensation(ADC_DelSig_2_CFG3_INPUT_RANGE,
 147:Generated_Source\PSoC5/ADC_DelSig_2.c ****                                           ADC_DelSig_2_CFG3_IDEAL_DEC_GAIN,
 148:Generated_Source\PSoC5/ADC_DelSig_2.c ****                                           ADC_DelSig_2_CFG3_IDEAL_ODDDEC_GAIN,
 149:Generated_Source\PSoC5/ADC_DelSig_2.c ****                                           ADC_DelSig_2_CFG3_RESOLUTION,
 150:Generated_Source\PSoC5/ADC_DelSig_2.c ****                                           ADC_DelSig_2_CFG3);
 151:Generated_Source\PSoC5/ADC_DelSig_2.c ****     #endif /* ADC_DelSig_2_DEFAULT_NUM_CONFIGS > 2 */
 152:Generated_Source\PSoC5/ADC_DelSig_2.c ****     #if(ADC_DelSig_2_DEFAULT_NUM_CONFIGS > 3)
 153:Generated_Source\PSoC5/ADC_DelSig_2.c ****         ADC_DelSig_2_GainCompensation(ADC_DelSig_2_CFG4_INPUT_RANGE,
 154:Generated_Source\PSoC5/ADC_DelSig_2.c ****                                           ADC_DelSig_2_CFG4_IDEAL_DEC_GAIN,
 155:Generated_Source\PSoC5/ADC_DelSig_2.c ****                                           ADC_DelSig_2_CFG4_IDEAL_ODDDEC_GAIN,
 156:Generated_Source\PSoC5/ADC_DelSig_2.c ****                                           ADC_DelSig_2_CFG4_RESOLUTION,
 157:Generated_Source\PSoC5/ADC_DelSig_2.c ****                                           ADC_DelSig_2_CFG4);
 158:Generated_Source\PSoC5/ADC_DelSig_2.c ****     #endif /* ADC_DelSig_2_DEFAULT_NUM_CONFIGS > 3 */
 159:Generated_Source\PSoC5/ADC_DelSig_2.c **** 
 160:Generated_Source\PSoC5/ADC_DelSig_2.c ****     /* Set GCOR register for config1 */
 161:Generated_Source\PSoC5/ADC_DelSig_2.c ****     ADC_DelSig_2_DEC_GVAL_REG = ADC_DelSig_2_gcor[ADC_DelSig_2_Config - 1u].gval;
 162:Generated_Source\PSoC5/ADC_DelSig_2.c ****     CY_SET_REG16(ADC_DelSig_2_DEC_GCOR_16B_PTR, ADC_DelSig_2_gcor[ADC_DelSig_2_Config - 1u].gcor);
 163:Generated_Source\PSoC5/ADC_DelSig_2.c **** 
 164:Generated_Source\PSoC5/ADC_DelSig_2.c ****     /* Initialize the registers with default customizer settings for config1 */
 165:Generated_Source\PSoC5/ADC_DelSig_2.c ****     ADC_DelSig_2_InitConfig(ADC_DelSig_2_Config);
 166:Generated_Source\PSoC5/ADC_DelSig_2.c **** }
 167:Generated_Source\PSoC5/ADC_DelSig_2.c **** 
 168:Generated_Source\PSoC5/ADC_DelSig_2.c **** 
 169:Generated_Source\PSoC5/ADC_DelSig_2.c **** /******************************************************************************
 170:Generated_Source\PSoC5/ADC_DelSig_2.c **** * Function Name: ADC_DelSig_2_Enable
 171:Generated_Source\PSoC5/ADC_DelSig_2.c **** *******************************************************************************
 172:Generated_Source\PSoC5/ADC_DelSig_2.c **** *
 173:Generated_Source\PSoC5/ADC_DelSig_2.c **** * Summary:
 174:Generated_Source\PSoC5/ADC_DelSig_2.c **** *  Enables the ADC DelSig block operation.
 175:Generated_Source\PSoC5/ADC_DelSig_2.c **** *
 176:Generated_Source\PSoC5/ADC_DelSig_2.c **** * Parameters:
 177:Generated_Source\PSoC5/ADC_DelSig_2.c **** *  None
 178:Generated_Source\PSoC5/ADC_DelSig_2.c **** *
 179:Generated_Source\PSoC5/ADC_DelSig_2.c **** * Return:
 180:Generated_Source\PSoC5/ADC_DelSig_2.c **** *  None
 181:Generated_Source\PSoC5/ADC_DelSig_2.c **** *
 182:Generated_Source\PSoC5/ADC_DelSig_2.c **** * Side Effects: 
 183:Generated_Source\PSoC5/ADC_DelSig_2.c **** *  Enables internal interrupt.
 184:Generated_Source\PSoC5/ADC_DelSig_2.c **** *
 185:Generated_Source\PSoC5/ADC_DelSig_2.c **** *******************************************************************************/
 186:Generated_Source\PSoC5/ADC_DelSig_2.c **** void ADC_DelSig_2_Enable(void) 
 187:Generated_Source\PSoC5/ADC_DelSig_2.c **** {
 188:Generated_Source\PSoC5/ADC_DelSig_2.c **** 	uint8 config;
 189:Generated_Source\PSoC5/ADC_DelSig_2.c ****     uint8 enableInterrupts;
 190:Generated_Source\PSoC5/ADC_DelSig_2.c ****     enableInterrupts = CyEnterCriticalSection();
 191:Generated_Source\PSoC5/ADC_DelSig_2.c **** 
 192:Generated_Source\PSoC5/ADC_DelSig_2.c ****     /* Read volatile variable to the local variable */
 193:Generated_Source\PSoC5/ADC_DelSig_2.c ****     config = ADC_DelSig_2_Config;
 194:Generated_Source\PSoC5/ADC_DelSig_2.c ****     
 195:Generated_Source\PSoC5/ADC_DelSig_2.c ****     /* Enable active mode power for ADC */
 196:Generated_Source\PSoC5/ADC_DelSig_2.c ****     ADC_DelSig_2_PWRMGR_DEC_REG |= ADC_DelSig_2_ACT_PWR_DEC_EN;
 197:Generated_Source\PSoC5/ADC_DelSig_2.c ****     ADC_DelSig_2_PWRMGR_DSM_REG |= ADC_DelSig_2_ACT_PWR_DSM_EN;
 198:Generated_Source\PSoC5/ADC_DelSig_2.c **** 
 199:Generated_Source\PSoC5/ADC_DelSig_2.c ****      /* Enable alternative active mode power for ADC */
 200:Generated_Source\PSoC5/ADC_DelSig_2.c ****     ADC_DelSig_2_STBY_PWRMGR_DEC_REG |= ADC_DelSig_2_STBY_PWR_DEC_EN;
 201:Generated_Source\PSoC5/ADC_DelSig_2.c ****     ADC_DelSig_2_STBY_PWRMGR_DSM_REG |= ADC_DelSig_2_STBY_PWR_DSM_EN;
 202:Generated_Source\PSoC5/ADC_DelSig_2.c **** 
ARM GAS  C:\Users\vboxuser\AppData\Local\Temp\ccKqkYuE.s 			page 5


 203:Generated_Source\PSoC5/ADC_DelSig_2.c ****     /* Disable PRES, Enable power to VCMBUF0, REFBUF0 and REFBUF1, enable PRES */
 204:Generated_Source\PSoC5/ADC_DelSig_2.c ****     ADC_DelSig_2_RESET_CR4_REG |= ADC_DelSig_2_IGNORE_PRESA1;
 205:Generated_Source\PSoC5/ADC_DelSig_2.c ****     ADC_DelSig_2_RESET_CR5_REG |= ADC_DelSig_2_IGNORE_PRESA2;
 206:Generated_Source\PSoC5/ADC_DelSig_2.c **** 
 207:Generated_Source\PSoC5/ADC_DelSig_2.c ****     ADC_DelSig_2_DSM_CR17_REG |= (ADC_DelSig_2_DSM_EN_BUF_VREF | ADC_DelSig_2_DSM_EN_BUF_VCM);
 208:Generated_Source\PSoC5/ADC_DelSig_2.c **** 
 209:Generated_Source\PSoC5/ADC_DelSig_2.c ****     /* Code to disable the REFBUF0 if reference chosen is External ref */
 210:Generated_Source\PSoC5/ADC_DelSig_2.c ****     #if (((ADC_DelSig_2_CFG1_REFERENCE == ADC_DelSig_2_EXT_REF_ON_P03) || \
 211:Generated_Source\PSoC5/ADC_DelSig_2.c ****           (ADC_DelSig_2_CFG1_REFERENCE == ADC_DelSig_2_EXT_REF_ON_P32)) || \
 212:Generated_Source\PSoC5/ADC_DelSig_2.c ****          ((ADC_DelSig_2_DEFAULT_NUM_CONFIGS > 1) && \
 213:Generated_Source\PSoC5/ADC_DelSig_2.c ****           ((ADC_DelSig_2_CFG2_REFERENCE == ADC_DelSig_2_EXT_REF_ON_P03) ||  \
 214:Generated_Source\PSoC5/ADC_DelSig_2.c ****            (ADC_DelSig_2_CFG2_REFERENCE == ADC_DelSig_2_EXT_REF_ON_P32))) || \
 215:Generated_Source\PSoC5/ADC_DelSig_2.c ****          ((ADC_DelSig_2_DEFAULT_NUM_CONFIGS > 2) && \
 216:Generated_Source\PSoC5/ADC_DelSig_2.c ****           ((ADC_DelSig_2_CFG3_REFERENCE == ADC_DelSig_2_EXT_REF_ON_P03) ||  \
 217:Generated_Source\PSoC5/ADC_DelSig_2.c ****            (ADC_DelSig_2_CFG3_REFERENCE == ADC_DelSig_2_EXT_REF_ON_P32))) || \
 218:Generated_Source\PSoC5/ADC_DelSig_2.c ****          ((ADC_DelSig_2_DEFAULT_NUM_CONFIGS > 3) && \
 219:Generated_Source\PSoC5/ADC_DelSig_2.c ****           ((ADC_DelSig_2_CFG4_REFERENCE == ADC_DelSig_2_EXT_REF_ON_P03) || \
 220:Generated_Source\PSoC5/ADC_DelSig_2.c ****            (ADC_DelSig_2_CFG4_REFERENCE == ADC_DelSig_2_EXT_REF_ON_P32))))
 221:Generated_Source\PSoC5/ADC_DelSig_2.c ****         if (((config == 1u) &&
 222:Generated_Source\PSoC5/ADC_DelSig_2.c ****             ((ADC_DelSig_2_CFG1_REFERENCE == ADC_DelSig_2_EXT_REF_ON_P03) ||
 223:Generated_Source\PSoC5/ADC_DelSig_2.c ****              (ADC_DelSig_2_CFG1_REFERENCE == ADC_DelSig_2_EXT_REF_ON_P32))) ||
 224:Generated_Source\PSoC5/ADC_DelSig_2.c ****             ((config == 2u) &&
 225:Generated_Source\PSoC5/ADC_DelSig_2.c ****             ((ADC_DelSig_2_CFG2_REFERENCE == ADC_DelSig_2_EXT_REF_ON_P03) ||
 226:Generated_Source\PSoC5/ADC_DelSig_2.c ****              (ADC_DelSig_2_CFG2_REFERENCE == ADC_DelSig_2_EXT_REF_ON_P32))) ||
 227:Generated_Source\PSoC5/ADC_DelSig_2.c ****             ((config == 3u) &&
 228:Generated_Source\PSoC5/ADC_DelSig_2.c ****             ((ADC_DelSig_2_CFG3_REFERENCE == ADC_DelSig_2_EXT_REF_ON_P03) ||
 229:Generated_Source\PSoC5/ADC_DelSig_2.c ****              (ADC_DelSig_2_CFG3_REFERENCE == ADC_DelSig_2_EXT_REF_ON_P32))) ||
 230:Generated_Source\PSoC5/ADC_DelSig_2.c ****             ((config == 4u) &&
 231:Generated_Source\PSoC5/ADC_DelSig_2.c ****             ((ADC_DelSig_2_CFG4_REFERENCE == ADC_DelSig_2_EXT_REF_ON_P03) ||
 232:Generated_Source\PSoC5/ADC_DelSig_2.c ****              (ADC_DelSig_2_CFG4_REFERENCE == ADC_DelSig_2_EXT_REF_ON_P32))))
 233:Generated_Source\PSoC5/ADC_DelSig_2.c ****         {
 234:Generated_Source\PSoC5/ADC_DelSig_2.c ****             /* Disable the REFBUF0 */
 235:Generated_Source\PSoC5/ADC_DelSig_2.c ****             ADC_DelSig_2_DSM_CR17_REG &= (uint8)~ADC_DelSig_2_DSM_EN_BUF_VREF;
 236:Generated_Source\PSoC5/ADC_DelSig_2.c ****         }
 237:Generated_Source\PSoC5/ADC_DelSig_2.c ****     #endif /* External ref */
 238:Generated_Source\PSoC5/ADC_DelSig_2.c **** 
 239:Generated_Source\PSoC5/ADC_DelSig_2.c ****     #if (((ADC_DelSig_2_CFG1_INPUT_RANGE == ADC_DelSig_2_IR_VSSA_TO_2VREF) || \
 240:Generated_Source\PSoC5/ADC_DelSig_2.c ****          ((ADC_DelSig_2_DEFAULT_NUM_CONFIGS > 1) && \
 241:Generated_Source\PSoC5/ADC_DelSig_2.c ****           (ADC_DelSig_2_CFG2_INPUT_RANGE == ADC_DelSig_2_IR_VSSA_TO_2VREF)) || \
 242:Generated_Source\PSoC5/ADC_DelSig_2.c ****          ((ADC_DelSig_2_DEFAULT_NUM_CONFIGS > 2) && \
 243:Generated_Source\PSoC5/ADC_DelSig_2.c ****           (ADC_DelSig_2_CFG3_INPUT_RANGE == ADC_DelSig_2_IR_VSSA_TO_2VREF)) || \
 244:Generated_Source\PSoC5/ADC_DelSig_2.c ****          ((ADC_DelSig_2_DEFAULT_NUM_CONFIGS > 3) && \
 245:Generated_Source\PSoC5/ADC_DelSig_2.c ****           (ADC_DelSig_2_CFG4_INPUT_RANGE == ADC_DelSig_2_IR_VSSA_TO_2VREF))))
 246:Generated_Source\PSoC5/ADC_DelSig_2.c ****         if(((config == 1u) &&
 247:Generated_Source\PSoC5/ADC_DelSig_2.c ****             (ADC_DelSig_2_CFG1_INPUT_RANGE == ADC_DelSig_2_IR_VSSA_TO_2VREF) &&
 248:Generated_Source\PSoC5/ADC_DelSig_2.c ****             ((ADC_DelSig_2_CFG1_REFERENCE != ADC_DelSig_2_EXT_REF_ON_P03) &&
 249:Generated_Source\PSoC5/ADC_DelSig_2.c ****              (ADC_DelSig_2_CFG1_REFERENCE != ADC_DelSig_2_EXT_REF_ON_P32))) ||
 250:Generated_Source\PSoC5/ADC_DelSig_2.c ****              ((config == 2u) &&
 251:Generated_Source\PSoC5/ADC_DelSig_2.c ****               (ADC_DelSig_2_CFG2_INPUT_RANGE == ADC_DelSig_2_IR_VSSA_TO_2VREF) &&
 252:Generated_Source\PSoC5/ADC_DelSig_2.c ****              ((ADC_DelSig_2_CFG2_REFERENCE != ADC_DelSig_2_EXT_REF_ON_P03) &&
 253:Generated_Source\PSoC5/ADC_DelSig_2.c ****              (ADC_DelSig_2_CFG2_REFERENCE != ADC_DelSig_2_EXT_REF_ON_P32))) ||
 254:Generated_Source\PSoC5/ADC_DelSig_2.c ****              ((config == 3u) &&
 255:Generated_Source\PSoC5/ADC_DelSig_2.c ****               (ADC_DelSig_2_CFG3_INPUT_RANGE == ADC_DelSig_2_IR_VSSA_TO_2VREF) &&
 256:Generated_Source\PSoC5/ADC_DelSig_2.c ****              ((ADC_DelSig_2_CFG3_REFERENCE != ADC_DelSig_2_EXT_REF_ON_P03) &&
 257:Generated_Source\PSoC5/ADC_DelSig_2.c ****              (ADC_DelSig_2_CFG3_REFERENCE != ADC_DelSig_2_EXT_REF_ON_P32))) ||
 258:Generated_Source\PSoC5/ADC_DelSig_2.c ****              ((config == 4u) &&
 259:Generated_Source\PSoC5/ADC_DelSig_2.c ****               (ADC_DelSig_2_CFG4_INPUT_RANGE == ADC_DelSig_2_IR_VSSA_TO_2VREF) &&
ARM GAS  C:\Users\vboxuser\AppData\Local\Temp\ccKqkYuE.s 			page 6


 260:Generated_Source\PSoC5/ADC_DelSig_2.c ****              ((ADC_DelSig_2_CFG4_REFERENCE != ADC_DelSig_2_EXT_REF_ON_P03) &&
 261:Generated_Source\PSoC5/ADC_DelSig_2.c ****              (ADC_DelSig_2_CFG4_REFERENCE != ADC_DelSig_2_EXT_REF_ON_P32))))
 262:Generated_Source\PSoC5/ADC_DelSig_2.c ****         {
 263:Generated_Source\PSoC5/ADC_DelSig_2.c ****             /* Enable the REFBUF1 */
 264:Generated_Source\PSoC5/ADC_DelSig_2.c ****             ADC_DelSig_2_DSM_REF0_REG |= ADC_DelSig_2_DSM_EN_BUF_VREF_INN;
 265:Generated_Source\PSoC5/ADC_DelSig_2.c ****         }
 266:Generated_Source\PSoC5/ADC_DelSig_2.c ****     #endif /* VSSA_TO_2VREF */
 267:Generated_Source\PSoC5/ADC_DelSig_2.c ****     if(config != 0u)
 268:Generated_Source\PSoC5/ADC_DelSig_2.c ****     {
 269:Generated_Source\PSoC5/ADC_DelSig_2.c ****         /* Suppress compiler warning */
 270:Generated_Source\PSoC5/ADC_DelSig_2.c ****     }
 271:Generated_Source\PSoC5/ADC_DelSig_2.c **** 
 272:Generated_Source\PSoC5/ADC_DelSig_2.c ****     /* Wait for 3 microseconds */
 273:Generated_Source\PSoC5/ADC_DelSig_2.c ****     CyDelayUs(ADC_DelSig_2_PRES_DELAY_TIME);
 274:Generated_Source\PSoC5/ADC_DelSig_2.c **** 
 275:Generated_Source\PSoC5/ADC_DelSig_2.c ****     /* Enable the press circuit */
 276:Generated_Source\PSoC5/ADC_DelSig_2.c ****     ADC_DelSig_2_RESET_CR4_REG &= (uint8)~ADC_DelSig_2_IGNORE_PRESA1;
 277:Generated_Source\PSoC5/ADC_DelSig_2.c ****     ADC_DelSig_2_RESET_CR5_REG &= (uint8)~ADC_DelSig_2_IGNORE_PRESA2;
 278:Generated_Source\PSoC5/ADC_DelSig_2.c **** 
 279:Generated_Source\PSoC5/ADC_DelSig_2.c ****     /* Enable negative pumps for DSM  */
 280:Generated_Source\PSoC5/ADC_DelSig_2.c ****     ADC_DelSig_2_PUMP_CR1_REG  |= ( ADC_DelSig_2_PUMP_CR1_CLKSEL | ADC_DelSig_2_PUMP_CR1_FORCE );
 281:Generated_Source\PSoC5/ADC_DelSig_2.c **** 
 282:Generated_Source\PSoC5/ADC_DelSig_2.c ****     /* Enable Modulator Chopping if required */
 283:Generated_Source\PSoC5/ADC_DelSig_2.c ****     ADC_DelSig_2_DSM_CR2_REG = ADC_DelSig_2_CFG1_DSM_CR2;
 284:Generated_Source\PSoC5/ADC_DelSig_2.c **** 
 285:Generated_Source\PSoC5/ADC_DelSig_2.c ****     /* This is only valid if there is an internal clock */
 286:Generated_Source\PSoC5/ADC_DelSig_2.c ****     #if(ADC_DelSig_2_DEFAULT_INTERNAL_CLK)
 287:Generated_Source\PSoC5/ADC_DelSig_2.c ****         ADC_DelSig_2_PWRMGR_CLK_REG |= ADC_DelSig_2_ACT_PWR_CLK_EN;
 288:Generated_Source\PSoC5/ADC_DelSig_2.c ****         ADC_DelSig_2_STBY_PWRMGR_CLK_REG |= ADC_DelSig_2_STBY_PWR_CLK_EN;
 289:Generated_Source\PSoC5/ADC_DelSig_2.c ****     #endif /* ADC_DelSig_2_DEFAULT_INTERNAL_CLK */
 290:Generated_Source\PSoC5/ADC_DelSig_2.c **** 
 291:Generated_Source\PSoC5/ADC_DelSig_2.c ****     /* Enable the active and alternate active power for charge pump clock */
 292:Generated_Source\PSoC5/ADC_DelSig_2.c ****     ADC_DelSig_2_PWRMGR_CHARGE_PUMP_CLK_REG |= ADC_DelSig_2_ACT_PWR_CHARGE_PUMP_CLK_EN;
 293:Generated_Source\PSoC5/ADC_DelSig_2.c ****     ADC_DelSig_2_STBY_PWRMGR_CHARGE_PUMP_CLK_REG |= ADC_DelSig_2_STBY_PWR_CHARGE_PUMP_CLK_EN;
 294:Generated_Source\PSoC5/ADC_DelSig_2.c **** 
 295:Generated_Source\PSoC5/ADC_DelSig_2.c ****     #if(ADC_DelSig_2_IRQ_REMOVE == 0u)
 296:Generated_Source\PSoC5/ADC_DelSig_2.c ****         /* Clear a pending interrupt */
 297:Generated_Source\PSoC5/ADC_DelSig_2.c ****         CyIntClearPending(ADC_DelSig_2_INTC_NUMBER);
 298:Generated_Source\PSoC5/ADC_DelSig_2.c ****         /* Enable interrupt */
 299:Generated_Source\PSoC5/ADC_DelSig_2.c ****         CyIntEnable(ADC_DelSig_2_INTC_NUMBER);
 300:Generated_Source\PSoC5/ADC_DelSig_2.c ****     #endif   /* End ADC_DelSig_2_IRQ_REMOVE */
 301:Generated_Source\PSoC5/ADC_DelSig_2.c **** 
 302:Generated_Source\PSoC5/ADC_DelSig_2.c ****     CyExitCriticalSection(enableInterrupts);
 303:Generated_Source\PSoC5/ADC_DelSig_2.c **** 
 304:Generated_Source\PSoC5/ADC_DelSig_2.c **** }
 305:Generated_Source\PSoC5/ADC_DelSig_2.c **** 
 306:Generated_Source\PSoC5/ADC_DelSig_2.c **** 
 307:Generated_Source\PSoC5/ADC_DelSig_2.c **** /*******************************************************************************
 308:Generated_Source\PSoC5/ADC_DelSig_2.c **** * Function Name: ADC_DelSig_2_Start
 309:Generated_Source\PSoC5/ADC_DelSig_2.c **** ********************************************************************************
 310:Generated_Source\PSoC5/ADC_DelSig_2.c **** *
 311:Generated_Source\PSoC5/ADC_DelSig_2.c **** * Summary:
 312:Generated_Source\PSoC5/ADC_DelSig_2.c **** *  Performs all required initialization for this component and enables
 313:Generated_Source\PSoC5/ADC_DelSig_2.c **** *  the power. It configure all the register the first time it is called.
 314:Generated_Source\PSoC5/ADC_DelSig_2.c **** *  Subsequent calls of the Start function only enable the ADC and turn
 315:Generated_Source\PSoC5/ADC_DelSig_2.c **** *  on the power. If multiple configurations are selected, it will
 316:Generated_Source\PSoC5/ADC_DelSig_2.c **** *  configure the ADC for configuration 1 by default, unless the
ARM GAS  C:\Users\vboxuser\AppData\Local\Temp\ccKqkYuE.s 			page 7


 317:Generated_Source\PSoC5/ADC_DelSig_2.c **** *  ADC_DelSig_2_SelectConfiguration( ) function has been called to change
 318:Generated_Source\PSoC5/ADC_DelSig_2.c **** *  the default setting.
 319:Generated_Source\PSoC5/ADC_DelSig_2.c **** *
 320:Generated_Source\PSoC5/ADC_DelSig_2.c **** * Parameters:
 321:Generated_Source\PSoC5/ADC_DelSig_2.c **** *  None
 322:Generated_Source\PSoC5/ADC_DelSig_2.c **** *
 323:Generated_Source\PSoC5/ADC_DelSig_2.c **** * Return:
 324:Generated_Source\PSoC5/ADC_DelSig_2.c **** *  None
 325:Generated_Source\PSoC5/ADC_DelSig_2.c **** *
 326:Generated_Source\PSoC5/ADC_DelSig_2.c **** * Global variables:
 327:Generated_Source\PSoC5/ADC_DelSig_2.c **** *  ADC_DelSig_2_initVar:  Used to check the initial configuration,
 328:Generated_Source\PSoC5/ADC_DelSig_2.c **** *  modified when this function is called for the first time.
 329:Generated_Source\PSoC5/ADC_DelSig_2.c **** *
 330:Generated_Source\PSoC5/ADC_DelSig_2.c **** * Side Effects: 
 331:Generated_Source\PSoC5/ADC_DelSig_2.c **** *  Enables internal interrupt.
 332:Generated_Source\PSoC5/ADC_DelSig_2.c **** *
 333:Generated_Source\PSoC5/ADC_DelSig_2.c **** *******************************************************************************/
 334:Generated_Source\PSoC5/ADC_DelSig_2.c **** void ADC_DelSig_2_Start(void) 
 335:Generated_Source\PSoC5/ADC_DelSig_2.c **** {
 336:Generated_Source\PSoC5/ADC_DelSig_2.c ****     if(ADC_DelSig_2_initVar == 0u)
 337:Generated_Source\PSoC5/ADC_DelSig_2.c ****     {
 338:Generated_Source\PSoC5/ADC_DelSig_2.c ****         if(ADC_DelSig_2_started == 0u)
 339:Generated_Source\PSoC5/ADC_DelSig_2.c ****         {
 340:Generated_Source\PSoC5/ADC_DelSig_2.c ****             ADC_DelSig_2_Init();
 341:Generated_Source\PSoC5/ADC_DelSig_2.c ****         }
 342:Generated_Source\PSoC5/ADC_DelSig_2.c ****         ADC_DelSig_2_initVar = 1u;
 343:Generated_Source\PSoC5/ADC_DelSig_2.c ****     }
 344:Generated_Source\PSoC5/ADC_DelSig_2.c **** 
 345:Generated_Source\PSoC5/ADC_DelSig_2.c ****     /* Enable the ADC */
 346:Generated_Source\PSoC5/ADC_DelSig_2.c ****     ADC_DelSig_2_Enable();
 347:Generated_Source\PSoC5/ADC_DelSig_2.c **** }
 348:Generated_Source\PSoC5/ADC_DelSig_2.c **** 
 349:Generated_Source\PSoC5/ADC_DelSig_2.c **** 
 350:Generated_Source\PSoC5/ADC_DelSig_2.c **** /*******************************************************************************
 351:Generated_Source\PSoC5/ADC_DelSig_2.c **** * Function Name: ADC_DelSig_2_Stop
 352:Generated_Source\PSoC5/ADC_DelSig_2.c **** ********************************************************************************
 353:Generated_Source\PSoC5/ADC_DelSig_2.c **** *
 354:Generated_Source\PSoC5/ADC_DelSig_2.c **** * Summary:
 355:Generated_Source\PSoC5/ADC_DelSig_2.c **** *  This function stops and powers down the ADC component and the internal
 356:Generated_Source\PSoC5/ADC_DelSig_2.c **** *  clock if the external clock is not selected. If an external clock is
 357:Generated_Source\PSoC5/ADC_DelSig_2.c **** *  used, it is up to the designer to power down the external clock it
 358:Generated_Source\PSoC5/ADC_DelSig_2.c **** *  required.
 359:Generated_Source\PSoC5/ADC_DelSig_2.c **** *
 360:Generated_Source\PSoC5/ADC_DelSig_2.c **** * Parameters:
 361:Generated_Source\PSoC5/ADC_DelSig_2.c **** *  None
 362:Generated_Source\PSoC5/ADC_DelSig_2.c **** *
 363:Generated_Source\PSoC5/ADC_DelSig_2.c **** * Return:
 364:Generated_Source\PSoC5/ADC_DelSig_2.c **** *  None
 365:Generated_Source\PSoC5/ADC_DelSig_2.c **** *
 366:Generated_Source\PSoC5/ADC_DelSig_2.c **** *******************************************************************************/
 367:Generated_Source\PSoC5/ADC_DelSig_2.c **** void ADC_DelSig_2_Stop(void) 
 368:Generated_Source\PSoC5/ADC_DelSig_2.c **** {
 369:Generated_Source\PSoC5/ADC_DelSig_2.c ****     uint8 enableInterrupts;
 370:Generated_Source\PSoC5/ADC_DelSig_2.c ****     enableInterrupts = CyEnterCriticalSection();
 371:Generated_Source\PSoC5/ADC_DelSig_2.c **** 
 372:Generated_Source\PSoC5/ADC_DelSig_2.c ****     /* Stop conversions */
 373:Generated_Source\PSoC5/ADC_DelSig_2.c ****     ADC_DelSig_2_DEC_CR_REG &= (uint8)~ADC_DelSig_2_DEC_START_CONV;
ARM GAS  C:\Users\vboxuser\AppData\Local\Temp\ccKqkYuE.s 			page 8


 374:Generated_Source\PSoC5/ADC_DelSig_2.c ****     ADC_DelSig_2_DEC_SR_REG |=  ADC_DelSig_2_DEC_INTR_CLEAR;
 375:Generated_Source\PSoC5/ADC_DelSig_2.c **** 
 376:Generated_Source\PSoC5/ADC_DelSig_2.c ****     /* Disable PRES, Disable power to VCMBUF0, REFBUF0 and REFBUF1,
 377:Generated_Source\PSoC5/ADC_DelSig_2.c ****        enable PRES */
 378:Generated_Source\PSoC5/ADC_DelSig_2.c ****     ADC_DelSig_2_RESET_CR4_REG |= ADC_DelSig_2_IGNORE_PRESA1;
 379:Generated_Source\PSoC5/ADC_DelSig_2.c ****     ADC_DelSig_2_RESET_CR5_REG |= ADC_DelSig_2_IGNORE_PRESA2;
 380:Generated_Source\PSoC5/ADC_DelSig_2.c **** 
 381:Generated_Source\PSoC5/ADC_DelSig_2.c ****     ADC_DelSig_2_DSM_CR17_REG &= (uint8)~(ADC_DelSig_2_DSM_EN_BUF_VREF | ADC_DelSig_2_DSM_EN_BUF_VC
 382:Generated_Source\PSoC5/ADC_DelSig_2.c ****     ADC_DelSig_2_DSM_REF0_REG &= (uint8)~ADC_DelSig_2_DSM_EN_BUF_VREF_INN;
 383:Generated_Source\PSoC5/ADC_DelSig_2.c **** 
 384:Generated_Source\PSoC5/ADC_DelSig_2.c ****     /* Wait for 3 microseconds. */
 385:Generated_Source\PSoC5/ADC_DelSig_2.c ****     CyDelayUs(ADC_DelSig_2_PRES_DELAY_TIME);
 386:Generated_Source\PSoC5/ADC_DelSig_2.c **** 
 387:Generated_Source\PSoC5/ADC_DelSig_2.c ****     /* Enable the press circuit */
 388:Generated_Source\PSoC5/ADC_DelSig_2.c ****     ADC_DelSig_2_RESET_CR4_REG &= (uint8)~ADC_DelSig_2_IGNORE_PRESA1;
 389:Generated_Source\PSoC5/ADC_DelSig_2.c ****     ADC_DelSig_2_RESET_CR5_REG &= (uint8)~ADC_DelSig_2_IGNORE_PRESA2;
 390:Generated_Source\PSoC5/ADC_DelSig_2.c **** 
 391:Generated_Source\PSoC5/ADC_DelSig_2.c ****     /* Disable power to the ADC */
 392:Generated_Source\PSoC5/ADC_DelSig_2.c ****     ADC_DelSig_2_PWRMGR_DSM_REG &= (uint8)~ADC_DelSig_2_ACT_PWR_DSM_EN;
 393:Generated_Source\PSoC5/ADC_DelSig_2.c **** 
 394:Generated_Source\PSoC5/ADC_DelSig_2.c ****     /* Disable power to Decimator block */
 395:Generated_Source\PSoC5/ADC_DelSig_2.c ****     ADC_DelSig_2_PWRMGR_DEC_REG &= (uint8)~ADC_DelSig_2_ACT_PWR_DEC_EN;
 396:Generated_Source\PSoC5/ADC_DelSig_2.c **** 
 397:Generated_Source\PSoC5/ADC_DelSig_2.c ****     /* Disable alternative active power to the ADC */
 398:Generated_Source\PSoC5/ADC_DelSig_2.c ****     ADC_DelSig_2_STBY_PWRMGR_DEC_REG &= (uint8)~ADC_DelSig_2_STBY_PWR_DEC_EN;
 399:Generated_Source\PSoC5/ADC_DelSig_2.c ****     ADC_DelSig_2_STBY_PWRMGR_DSM_REG &= (uint8)~ADC_DelSig_2_STBY_PWR_DSM_EN;
 400:Generated_Source\PSoC5/ADC_DelSig_2.c **** 
 401:Generated_Source\PSoC5/ADC_DelSig_2.c ****    /* Disable negative pumps for DSM  */
 402:Generated_Source\PSoC5/ADC_DelSig_2.c ****     ADC_DelSig_2_PUMP_CR1_REG &= (uint8)~(ADC_DelSig_2_PUMP_CR1_CLKSEL | ADC_DelSig_2_PUMP_CR1_FORC
 403:Generated_Source\PSoC5/ADC_DelSig_2.c **** 
 404:Generated_Source\PSoC5/ADC_DelSig_2.c ****     /* This is only valid if there is an internal clock */
 405:Generated_Source\PSoC5/ADC_DelSig_2.c ****     #if(ADC_DelSig_2_DEFAULT_INTERNAL_CLK)
 406:Generated_Source\PSoC5/ADC_DelSig_2.c ****         ADC_DelSig_2_PWRMGR_CLK_REG &= (uint8)~ADC_DelSig_2_ACT_PWR_CLK_EN;
 407:Generated_Source\PSoC5/ADC_DelSig_2.c ****         ADC_DelSig_2_STBY_PWRMGR_CLK_REG &= (uint8)~ADC_DelSig_2_STBY_PWR_CLK_EN;
 408:Generated_Source\PSoC5/ADC_DelSig_2.c ****     #endif /* ADC_DelSig_2_DEFAULT_INTERNAL_CLK */
 409:Generated_Source\PSoC5/ADC_DelSig_2.c **** 
 410:Generated_Source\PSoC5/ADC_DelSig_2.c ****     /* Disable Modulator Chopping */
 411:Generated_Source\PSoC5/ADC_DelSig_2.c ****     ADC_DelSig_2_DSM_CR2_REG &= (uint8)~ADC_DelSig_2_DSM_MOD_CHOP_EN;
 412:Generated_Source\PSoC5/ADC_DelSig_2.c ****     /* Disable power to charge pump clock */
 413:Generated_Source\PSoC5/ADC_DelSig_2.c ****     ADC_DelSig_2_PWRMGR_CHARGE_PUMP_CLK_REG &= (uint8)~ADC_DelSig_2_ACT_PWR_CHARGE_PUMP_CLK_EN;
 414:Generated_Source\PSoC5/ADC_DelSig_2.c ****     ADC_DelSig_2_STBY_PWRMGR_CHARGE_PUMP_CLK_REG &= (uint8)~ADC_DelSig_2_STBY_PWR_CHARGE_PUMP_CLK_E
 415:Generated_Source\PSoC5/ADC_DelSig_2.c ****     
 416:Generated_Source\PSoC5/ADC_DelSig_2.c ****     CyExitCriticalSection(enableInterrupts);
 417:Generated_Source\PSoC5/ADC_DelSig_2.c **** }
 418:Generated_Source\PSoC5/ADC_DelSig_2.c **** 
 419:Generated_Source\PSoC5/ADC_DelSig_2.c **** 
 420:Generated_Source\PSoC5/ADC_DelSig_2.c **** /*******************************************************************************
 421:Generated_Source\PSoC5/ADC_DelSig_2.c **** * Function Name: ADC_DelSig_2_SetBufferGain
 422:Generated_Source\PSoC5/ADC_DelSig_2.c **** ********************************************************************************
 423:Generated_Source\PSoC5/ADC_DelSig_2.c **** *
 424:Generated_Source\PSoC5/ADC_DelSig_2.c **** * Summary:
 425:Generated_Source\PSoC5/ADC_DelSig_2.c **** *  Sets input buffer gain.
 426:Generated_Source\PSoC5/ADC_DelSig_2.c **** *
 427:Generated_Source\PSoC5/ADC_DelSig_2.c **** * Parameters:
 428:Generated_Source\PSoC5/ADC_DelSig_2.c **** *  gain:  Two bit value to select a gain of 1, 2, 4, or 8.
 429:Generated_Source\PSoC5/ADC_DelSig_2.c **** *
 430:Generated_Source\PSoC5/ADC_DelSig_2.c **** * Return:
ARM GAS  C:\Users\vboxuser\AppData\Local\Temp\ccKqkYuE.s 			page 9


 431:Generated_Source\PSoC5/ADC_DelSig_2.c **** *  None
 432:Generated_Source\PSoC5/ADC_DelSig_2.c **** *
 433:Generated_Source\PSoC5/ADC_DelSig_2.c **** *******************************************************************************/
 434:Generated_Source\PSoC5/ADC_DelSig_2.c **** void ADC_DelSig_2_SetBufferGain(uint8 gain) 
 435:Generated_Source\PSoC5/ADC_DelSig_2.c **** {
 436:Generated_Source\PSoC5/ADC_DelSig_2.c ****     uint8 tmpReg;
 437:Generated_Source\PSoC5/ADC_DelSig_2.c ****     tmpReg = ADC_DelSig_2_DSM_BUF1_REG & (uint8)~ADC_DelSig_2_DSM_GAIN_MASK;
 438:Generated_Source\PSoC5/ADC_DelSig_2.c ****     tmpReg |= (uint8)(gain << ADC_DelSig_2_DSM_GAIN_SHIFT) & ADC_DelSig_2_DSM_GAIN_MASK;
 439:Generated_Source\PSoC5/ADC_DelSig_2.c ****     ADC_DelSig_2_DSM_BUF1_REG = tmpReg;
 440:Generated_Source\PSoC5/ADC_DelSig_2.c **** }
 441:Generated_Source\PSoC5/ADC_DelSig_2.c **** 
 442:Generated_Source\PSoC5/ADC_DelSig_2.c **** 
 443:Generated_Source\PSoC5/ADC_DelSig_2.c **** /*******************************************************************************
 444:Generated_Source\PSoC5/ADC_DelSig_2.c **** * Function Name: ADC_DelSig_2_SetCoherency
 445:Generated_Source\PSoC5/ADC_DelSig_2.c **** ********************************************************************************
 446:Generated_Source\PSoC5/ADC_DelSig_2.c **** *
 447:Generated_Source\PSoC5/ADC_DelSig_2.c **** * Summary:
 448:Generated_Source\PSoC5/ADC_DelSig_2.c **** *  This function allows the user to change which of the ADC's 3 word
 449:Generated_Source\PSoC5/ADC_DelSig_2.c **** *  result will trigger a coherency unlock. The ADC's result will not be
 450:Generated_Source\PSoC5/ADC_DelSig_2.c **** *  updated until the set byte is read either by the ADC or DMA. 
 451:Generated_Source\PSoC5/ADC_DelSig_2.c **** *  By default the LSB is the coherency byte for right alignment data format. 
 452:Generated_Source\PSoC5/ADC_DelSig_2.c **** *  The middle or high byte is set automatically depend on left alignment 
 453:Generated_Source\PSoC5/ADC_DelSig_2.c **** *  configuration for DMA data transfer.
 454:Generated_Source\PSoC5/ADC_DelSig_2.c **** *  If DMA or if a custom API requires different byte to be read the last,
 455:Generated_Source\PSoC5/ADC_DelSig_2.c **** *  this API should be used to set the last byte of the ADC result that is read. 
 456:Generated_Source\PSoC5/ADC_DelSig_2.c **** *  If a multibyte read is performed either by DMA or the ARM processor, the
 457:Generated_Source\PSoC5/ADC_DelSig_2.c **** *  coherency can be set to any byte in the last word read.
 458:Generated_Source\PSoC5/ADC_DelSig_2.c **** *
 459:Generated_Source\PSoC5/ADC_DelSig_2.c **** * Parameters:
 460:Generated_Source\PSoC5/ADC_DelSig_2.c **** *  coherency:  Two bit value to set the coherency bit.
 461:Generated_Source\PSoC5/ADC_DelSig_2.c **** *           00-Coherency checking off
 462:Generated_Source\PSoC5/ADC_DelSig_2.c **** *           01-low byte is key byte
 463:Generated_Source\PSoC5/ADC_DelSig_2.c **** *           02-middle byte is the key byte
 464:Generated_Source\PSoC5/ADC_DelSig_2.c **** *           03-high byte is the key byte
 465:Generated_Source\PSoC5/ADC_DelSig_2.c **** *
 466:Generated_Source\PSoC5/ADC_DelSig_2.c **** * Return:
 467:Generated_Source\PSoC5/ADC_DelSig_2.c **** *  None
 468:Generated_Source\PSoC5/ADC_DelSig_2.c **** *
 469:Generated_Source\PSoC5/ADC_DelSig_2.c **** *******************************************************************************/
 470:Generated_Source\PSoC5/ADC_DelSig_2.c **** void ADC_DelSig_2_SetCoherency(uint8 coherency) 
 471:Generated_Source\PSoC5/ADC_DelSig_2.c **** {
 472:Generated_Source\PSoC5/ADC_DelSig_2.c ****     uint8 tmpReg;
 473:Generated_Source\PSoC5/ADC_DelSig_2.c **** 
 474:Generated_Source\PSoC5/ADC_DelSig_2.c ****     tmpReg = ADC_DelSig_2_DEC_COHER_REG & (uint8)~ADC_DelSig_2_DEC_SAMP_KEY_MASK;
 475:Generated_Source\PSoC5/ADC_DelSig_2.c ****     tmpReg |= coherency & ADC_DelSig_2_DEC_SAMP_KEY_MASK;
 476:Generated_Source\PSoC5/ADC_DelSig_2.c ****     ADC_DelSig_2_DEC_COHER_REG = tmpReg;
 477:Generated_Source\PSoC5/ADC_DelSig_2.c **** }
 478:Generated_Source\PSoC5/ADC_DelSig_2.c **** 
 479:Generated_Source\PSoC5/ADC_DelSig_2.c **** 
 480:Generated_Source\PSoC5/ADC_DelSig_2.c **** /*******************************************************************************
 481:Generated_Source\PSoC5/ADC_DelSig_2.c **** * Function Name: ADC_DelSig_2_SetGCOR
 482:Generated_Source\PSoC5/ADC_DelSig_2.c **** ********************************************************************************
 483:Generated_Source\PSoC5/ADC_DelSig_2.c **** *
 484:Generated_Source\PSoC5/ADC_DelSig_2.c **** * Summary:
 485:Generated_Source\PSoC5/ADC_DelSig_2.c **** *  Calculates a new GCOR value and writes it into the GCOR register. 
 486:Generated_Source\PSoC5/ADC_DelSig_2.c **** *  The GCOR value is a 16-bit value that represents a gain of 0 to 2. 
 487:Generated_Source\PSoC5/ADC_DelSig_2.c **** *  The ADC result is multiplied by this value before it is placed in the ADC 
ARM GAS  C:\Users\vboxuser\AppData\Local\Temp\ccKqkYuE.s 			page 10


 488:Generated_Source\PSoC5/ADC_DelSig_2.c **** *  output registers. The numerical format for the GCOR value is:
 489:Generated_Source\PSoC5/ADC_DelSig_2.c **** *  0x0000 -> 0.000
 490:Generated_Source\PSoC5/ADC_DelSig_2.c **** *  0x8000 -> 1.000
 491:Generated_Source\PSoC5/ADC_DelSig_2.c **** *  0xFFFF -> 1.99997
 492:Generated_Source\PSoC5/ADC_DelSig_2.c **** *  When executing the function, the old GCOR value is multiplied by
 493:Generated_Source\PSoC5/ADC_DelSig_2.c **** *  gainAdjust and reloaded into the GCOR register.
 494:Generated_Source\PSoC5/ADC_DelSig_2.c **** *
 495:Generated_Source\PSoC5/ADC_DelSig_2.c **** * Parameters:
 496:Generated_Source\PSoC5/ADC_DelSig_2.c **** *  gainAdjust:  floating point value to set GCOR registers.
 497:Generated_Source\PSoC5/ADC_DelSig_2.c **** *
 498:Generated_Source\PSoC5/ADC_DelSig_2.c **** * Return:
 499:Generated_Source\PSoC5/ADC_DelSig_2.c **** *  uint8: 0 - if GCOR value is within the expected range.
 500:Generated_Source\PSoC5/ADC_DelSig_2.c **** *         1 - the correction value is outside GCOR value range of
 501:Generated_Source\PSoC5/ADC_DelSig_2.c **** *             0.00 to 1.9999.
 502:Generated_Source\PSoC5/ADC_DelSig_2.c **** *
 503:Generated_Source\PSoC5/ADC_DelSig_2.c **** * Side Effects:  The GVAL register is set to the amount of valid bits in the
 504:Generated_Source\PSoC5/ADC_DelSig_2.c **** *                GCOR  register minus one. If GVAL is 15 (0x0F), all 16 bits
 505:Generated_Source\PSoC5/ADC_DelSig_2.c **** *                of the GCOR registers will be valid. If for example GVAL is
 506:Generated_Source\PSoC5/ADC_DelSig_2.c **** *                11 (0x0B) only 12 bits will be valid. The least 4 bits will
 507:Generated_Source\PSoC5/ADC_DelSig_2.c **** *                be lost when the GCOR value is shifted 4 places to the right.
 508:Generated_Source\PSoC5/ADC_DelSig_2.c **** *
 509:Generated_Source\PSoC5/ADC_DelSig_2.c **** ******************************************************************************/
 510:Generated_Source\PSoC5/ADC_DelSig_2.c **** uint8 ADC_DelSig_2_SetGCOR(float32 gainAdjust) 
 511:Generated_Source\PSoC5/ADC_DelSig_2.c **** {
 512:Generated_Source\PSoC5/ADC_DelSig_2.c ****     uint16 tmpReg;
 513:Generated_Source\PSoC5/ADC_DelSig_2.c ****     uint8 status;
 514:Generated_Source\PSoC5/ADC_DelSig_2.c ****     float32 tmpValue;
 515:Generated_Source\PSoC5/ADC_DelSig_2.c **** 
 516:Generated_Source\PSoC5/ADC_DelSig_2.c ****     tmpReg = ADC_DelSig_2_gcor[ADC_DelSig_2_Config - 1u].gcor;
 517:Generated_Source\PSoC5/ADC_DelSig_2.c ****     tmpValue = ((float32)tmpReg / (float32)ADC_DelSig_2_IDEAL_GAIN_CONST);
 518:Generated_Source\PSoC5/ADC_DelSig_2.c ****     tmpValue = tmpValue * gainAdjust;
 519:Generated_Source\PSoC5/ADC_DelSig_2.c **** 
 520:Generated_Source\PSoC5/ADC_DelSig_2.c ****     if (tmpValue > 1.9999)
 521:Generated_Source\PSoC5/ADC_DelSig_2.c ****     {
 522:Generated_Source\PSoC5/ADC_DelSig_2.c ****         status = 1u;
 523:Generated_Source\PSoC5/ADC_DelSig_2.c ****     }
 524:Generated_Source\PSoC5/ADC_DelSig_2.c ****     else
 525:Generated_Source\PSoC5/ADC_DelSig_2.c ****     {
 526:Generated_Source\PSoC5/ADC_DelSig_2.c ****         tmpValue *= (float32)ADC_DelSig_2_IDEAL_GAIN_CONST;
 527:Generated_Source\PSoC5/ADC_DelSig_2.c **** 		tmpReg = (uint16)tmpValue;
 528:Generated_Source\PSoC5/ADC_DelSig_2.c ****         CY_SET_REG16(ADC_DelSig_2_DEC_GCOR_16B_PTR, tmpReg);
 529:Generated_Source\PSoC5/ADC_DelSig_2.c ****         /* Update gain array to be used by SelectConfiguration() API */
 530:Generated_Source\PSoC5/ADC_DelSig_2.c ****        ADC_DelSig_2_gcor[ADC_DelSig_2_Config - 1u].gcor = tmpReg;
 531:Generated_Source\PSoC5/ADC_DelSig_2.c **** 
 532:Generated_Source\PSoC5/ADC_DelSig_2.c ****         status = 0u;
 533:Generated_Source\PSoC5/ADC_DelSig_2.c **** 
 534:Generated_Source\PSoC5/ADC_DelSig_2.c ****     }
 535:Generated_Source\PSoC5/ADC_DelSig_2.c ****     return(status);
 536:Generated_Source\PSoC5/ADC_DelSig_2.c **** }
 537:Generated_Source\PSoC5/ADC_DelSig_2.c **** 
 538:Generated_Source\PSoC5/ADC_DelSig_2.c **** 
 539:Generated_Source\PSoC5/ADC_DelSig_2.c **** /******************************************************************************
 540:Generated_Source\PSoC5/ADC_DelSig_2.c **** * Function Name: ADC_DelSig_2_ReadGCOR
 541:Generated_Source\PSoC5/ADC_DelSig_2.c **** *******************************************************************************
 542:Generated_Source\PSoC5/ADC_DelSig_2.c **** *
 543:Generated_Source\PSoC5/ADC_DelSig_2.c **** * Summary:
 544:Generated_Source\PSoC5/ADC_DelSig_2.c **** *  This API returns the current GCOR register value, normalized based on the
ARM GAS  C:\Users\vboxuser\AppData\Local\Temp\ccKqkYuE.s 			page 11


 545:Generated_Source\PSoC5/ADC_DelSig_2.c **** *  GVAL register settings.
 546:Generated_Source\PSoC5/ADC_DelSig_2.c **** *  For example, if the GCOR value is 0x0812 and the GVAL register is set to 
 547:Generated_Source\PSoC5/ADC_DelSig_2.c **** *  11 (0x0B) then the returned value will be shifted by for bits to the left.
 548:Generated_Source\PSoC5/ADC_DelSig_2.c **** *  (Actual GCOR value = 0x0812, returned value = 0x8120)
 549:Generated_Source\PSoC5/ADC_DelSig_2.c **** *
 550:Generated_Source\PSoC5/ADC_DelSig_2.c **** * Parameters:
 551:Generated_Source\PSoC5/ADC_DelSig_2.c **** *  None
 552:Generated_Source\PSoC5/ADC_DelSig_2.c **** *
 553:Generated_Source\PSoC5/ADC_DelSig_2.c **** * Return:
 554:Generated_Source\PSoC5/ADC_DelSig_2.c **** *  uint16:  Normalized GCOR value.
 555:Generated_Source\PSoC5/ADC_DelSig_2.c **** *
 556:Generated_Source\PSoC5/ADC_DelSig_2.c **** *******************************************************************************/
 557:Generated_Source\PSoC5/ADC_DelSig_2.c **** uint16 ADC_DelSig_2_ReadGCOR(void) 
 558:Generated_Source\PSoC5/ADC_DelSig_2.c **** {
 559:Generated_Source\PSoC5/ADC_DelSig_2.c ****     uint8 gValue;
 560:Generated_Source\PSoC5/ADC_DelSig_2.c ****     uint16 gcorValue;
 561:Generated_Source\PSoC5/ADC_DelSig_2.c **** 
 562:Generated_Source\PSoC5/ADC_DelSig_2.c ****     gValue = ADC_DelSig_2_DEC_GVAL_REG;
 563:Generated_Source\PSoC5/ADC_DelSig_2.c ****     gcorValue = CY_GET_REG16(ADC_DelSig_2_DEC_GCOR_16B_PTR);
 564:Generated_Source\PSoC5/ADC_DelSig_2.c **** 
 565:Generated_Source\PSoC5/ADC_DelSig_2.c ****     if (gValue < ADC_DelSig_2_MAX_GVAL)
 566:Generated_Source\PSoC5/ADC_DelSig_2.c ****     {
 567:Generated_Source\PSoC5/ADC_DelSig_2.c ****         gcorValue <<= ADC_DelSig_2_MAX_GVAL - gValue;
 568:Generated_Source\PSoC5/ADC_DelSig_2.c ****     }
 569:Generated_Source\PSoC5/ADC_DelSig_2.c **** 
 570:Generated_Source\PSoC5/ADC_DelSig_2.c ****     return gcorValue;
 571:Generated_Source\PSoC5/ADC_DelSig_2.c **** }
 572:Generated_Source\PSoC5/ADC_DelSig_2.c **** 
 573:Generated_Source\PSoC5/ADC_DelSig_2.c **** 
 574:Generated_Source\PSoC5/ADC_DelSig_2.c **** /*******************************************************************************
 575:Generated_Source\PSoC5/ADC_DelSig_2.c **** * Function Name: ADC_DelSig_2_StartConvert
 576:Generated_Source\PSoC5/ADC_DelSig_2.c **** ********************************************************************************
 577:Generated_Source\PSoC5/ADC_DelSig_2.c **** *
 578:Generated_Source\PSoC5/ADC_DelSig_2.c **** * Summary:
 579:Generated_Source\PSoC5/ADC_DelSig_2.c **** *  Forces the ADC to initiate a conversion. If in the "Single Sample"
 580:Generated_Source\PSoC5/ADC_DelSig_2.c **** *  mode, one conversion will be performed then the ADC will halt. If in
 581:Generated_Source\PSoC5/ADC_DelSig_2.c **** *  one of the other three conversion modes, the ADC will run
 582:Generated_Source\PSoC5/ADC_DelSig_2.c **** *  continuously until the ADC_Stop() or ADC_StopConvert() is called.
 583:Generated_Source\PSoC5/ADC_DelSig_2.c **** *
 584:Generated_Source\PSoC5/ADC_DelSig_2.c **** * Parameters:
 585:Generated_Source\PSoC5/ADC_DelSig_2.c **** *  None
 586:Generated_Source\PSoC5/ADC_DelSig_2.c **** *
 587:Generated_Source\PSoC5/ADC_DelSig_2.c **** * Return:
 588:Generated_Source\PSoC5/ADC_DelSig_2.c **** *  None
 589:Generated_Source\PSoC5/ADC_DelSig_2.c **** *
 590:Generated_Source\PSoC5/ADC_DelSig_2.c **** *******************************************************************************/
 591:Generated_Source\PSoC5/ADC_DelSig_2.c **** void ADC_DelSig_2_StartConvert(void) 
 592:Generated_Source\PSoC5/ADC_DelSig_2.c **** {
 593:Generated_Source\PSoC5/ADC_DelSig_2.c ****     /* Start the conversion */
 594:Generated_Source\PSoC5/ADC_DelSig_2.c ****     ADC_DelSig_2_DEC_CR_REG |= ADC_DelSig_2_DEC_START_CONV;
 595:Generated_Source\PSoC5/ADC_DelSig_2.c **** }
 596:Generated_Source\PSoC5/ADC_DelSig_2.c **** 
 597:Generated_Source\PSoC5/ADC_DelSig_2.c **** 
 598:Generated_Source\PSoC5/ADC_DelSig_2.c **** /*******************************************************************************
 599:Generated_Source\PSoC5/ADC_DelSig_2.c **** * Function Name: ADC_DelSig_2_StopConvert
 600:Generated_Source\PSoC5/ADC_DelSig_2.c **** ********************************************************************************
 601:Generated_Source\PSoC5/ADC_DelSig_2.c **** *
ARM GAS  C:\Users\vboxuser\AppData\Local\Temp\ccKqkYuE.s 			page 12


 602:Generated_Source\PSoC5/ADC_DelSig_2.c **** * Summary:
 603:Generated_Source\PSoC5/ADC_DelSig_2.c **** *  Forces the ADC to stop all conversions. If the ADC is in the middle of a
 604:Generated_Source\PSoC5/ADC_DelSig_2.c **** *  conversion, the ADC will be reset and not provide a result for that partial
 605:Generated_Source\PSoC5/ADC_DelSig_2.c **** *  conversion.
 606:Generated_Source\PSoC5/ADC_DelSig_2.c **** *
 607:Generated_Source\PSoC5/ADC_DelSig_2.c **** * Parameters:
 608:Generated_Source\PSoC5/ADC_DelSig_2.c **** *  None
 609:Generated_Source\PSoC5/ADC_DelSig_2.c **** *
 610:Generated_Source\PSoC5/ADC_DelSig_2.c **** * Return:
 611:Generated_Source\PSoC5/ADC_DelSig_2.c **** *  None
 612:Generated_Source\PSoC5/ADC_DelSig_2.c **** *
 613:Generated_Source\PSoC5/ADC_DelSig_2.c **** *******************************************************************************/
 614:Generated_Source\PSoC5/ADC_DelSig_2.c **** void ADC_DelSig_2_StopConvert(void) 
 615:Generated_Source\PSoC5/ADC_DelSig_2.c **** {
 616:Generated_Source\PSoC5/ADC_DelSig_2.c ****     /* Stop all conversions */
 617:Generated_Source\PSoC5/ADC_DelSig_2.c ****     ADC_DelSig_2_DEC_CR_REG &= (uint8)~ADC_DelSig_2_DEC_START_CONV;
 618:Generated_Source\PSoC5/ADC_DelSig_2.c **** }
 619:Generated_Source\PSoC5/ADC_DelSig_2.c **** 
 620:Generated_Source\PSoC5/ADC_DelSig_2.c **** 
 621:Generated_Source\PSoC5/ADC_DelSig_2.c **** /*******************************************************************************
 622:Generated_Source\PSoC5/ADC_DelSig_2.c **** * Function Name: ADC_DelSig_2_IsEndConversion
 623:Generated_Source\PSoC5/ADC_DelSig_2.c **** ********************************************************************************
 624:Generated_Source\PSoC5/ADC_DelSig_2.c **** *
 625:Generated_Source\PSoC5/ADC_DelSig_2.c **** * Summary:
 626:Generated_Source\PSoC5/ADC_DelSig_2.c **** *  Checks the status that the most recently started conversion has completed.
 627:Generated_Source\PSoC5/ADC_DelSig_2.c **** *  The status is cleared by any of ADC_GetResult8(), ADC_GetResult16() or 
 628:Generated_Source\PSoC5/ADC_DelSig_2.c **** *  ADC_GetResult32() API.
 629:Generated_Source\PSoC5/ADC_DelSig_2.c **** *  This function provides the programmer with two options. In one mode this 
 630:Generated_Source\PSoC5/ADC_DelSig_2.c **** *  function immediately returns with the conversion status. In the other mode,
 631:Generated_Source\PSoC5/ADC_DelSig_2.c **** *  the function does not return (blocking) until the conversion has completed.
 632:Generated_Source\PSoC5/ADC_DelSig_2.c **** *
 633:Generated_Source\PSoC5/ADC_DelSig_2.c **** * Parameters:
 634:Generated_Source\PSoC5/ADC_DelSig_2.c **** *  retMode: Check conversion return mode. See the following table for options.
 635:Generated_Source\PSoC5/ADC_DelSig_2.c **** *   ADC_DelSig_2_RETURN_STATUS -   Immediately returns conversion result
 636:Generated_Source\PSoC5/ADC_DelSig_2.c **** *                                      status.
 637:Generated_Source\PSoC5/ADC_DelSig_2.c **** *   ADC_DelSig_2_WAIT_FOR_RESULT - Does not return until ADC conversion
 638:Generated_Source\PSoC5/ADC_DelSig_2.c **** *                                      is complete.
 639:Generated_Source\PSoC5/ADC_DelSig_2.c **** *
 640:Generated_Source\PSoC5/ADC_DelSig_2.c **** * Return:
 641:Generated_Source\PSoC5/ADC_DelSig_2.c **** *  If a nonzero value is returned, the last conversion has completed.
 642:Generated_Source\PSoC5/ADC_DelSig_2.c **** *  If the returned value is zero, the ADC is still calculating the last result.
 643:Generated_Source\PSoC5/ADC_DelSig_2.c **** *
 644:Generated_Source\PSoC5/ADC_DelSig_2.c **** * Global variables:
 645:Generated_Source\PSoC5/ADC_DelSig_2.c **** *  ADC_DelSig_2_convDone:  Used to check whether conversion is complete
 646:Generated_Source\PSoC5/ADC_DelSig_2.c **** *  or not for single sample mode with resolution is above 16
 647:Generated_Source\PSoC5/ADC_DelSig_2.c **** *
 648:Generated_Source\PSoC5/ADC_DelSig_2.c **** *******************************************************************************/
 649:Generated_Source\PSoC5/ADC_DelSig_2.c **** uint8 ADC_DelSig_2_IsEndConversion(uint8 retMode) 
 650:Generated_Source\PSoC5/ADC_DelSig_2.c **** {
 651:Generated_Source\PSoC5/ADC_DelSig_2.c ****     uint8 status;
 652:Generated_Source\PSoC5/ADC_DelSig_2.c **** 
 653:Generated_Source\PSoC5/ADC_DelSig_2.c ****     do
 654:Generated_Source\PSoC5/ADC_DelSig_2.c ****     {
 655:Generated_Source\PSoC5/ADC_DelSig_2.c ****         /* Check for stop convert if conversion mode is Single Sample with
 656:Generated_Source\PSoC5/ADC_DelSig_2.c ****         *   resolution above 16 bit
 657:Generated_Source\PSoC5/ADC_DelSig_2.c ****         */
 658:Generated_Source\PSoC5/ADC_DelSig_2.c ****         if(ADC_DelSig_2_stopConversion != 0u)
ARM GAS  C:\Users\vboxuser\AppData\Local\Temp\ccKqkYuE.s 			page 13


 659:Generated_Source\PSoC5/ADC_DelSig_2.c ****         {
 660:Generated_Source\PSoC5/ADC_DelSig_2.c ****             status = ADC_DelSig_2_convDone;
 661:Generated_Source\PSoC5/ADC_DelSig_2.c ****         }
 662:Generated_Source\PSoC5/ADC_DelSig_2.c ****         else
 663:Generated_Source\PSoC5/ADC_DelSig_2.c ****         {
 664:Generated_Source\PSoC5/ADC_DelSig_2.c ****             status = ADC_DelSig_2_DEC_SR_REG & ADC_DelSig_2_DEC_CONV_DONE;
 665:Generated_Source\PSoC5/ADC_DelSig_2.c ****         }
 666:Generated_Source\PSoC5/ADC_DelSig_2.c ****     }while((status != ADC_DelSig_2_DEC_CONV_DONE) && (retMode == ADC_DelSig_2_WAIT_FOR_RESULT));
 667:Generated_Source\PSoC5/ADC_DelSig_2.c **** 
 668:Generated_Source\PSoC5/ADC_DelSig_2.c ****     return(status);
 669:Generated_Source\PSoC5/ADC_DelSig_2.c **** }
 670:Generated_Source\PSoC5/ADC_DelSig_2.c **** 
 671:Generated_Source\PSoC5/ADC_DelSig_2.c **** 
 672:Generated_Source\PSoC5/ADC_DelSig_2.c **** /*******************************************************************************
 673:Generated_Source\PSoC5/ADC_DelSig_2.c **** * Function Name: ADC_DelSig_2_GetResult8
 674:Generated_Source\PSoC5/ADC_DelSig_2.c **** ********************************************************************************
 675:Generated_Source\PSoC5/ADC_DelSig_2.c **** *
 676:Generated_Source\PSoC5/ADC_DelSig_2.c **** * Summary:
 677:Generated_Source\PSoC5/ADC_DelSig_2.c **** *  This function returns the result of an 8-bit conversion. If the
 678:Generated_Source\PSoC5/ADC_DelSig_2.c **** *  resolution is set greater than 8-bits, the LSB of the result will be
 679:Generated_Source\PSoC5/ADC_DelSig_2.c **** *  returned. When the ADC is configured for 8-bit single ended mode,
 680:Generated_Source\PSoC5/ADC_DelSig_2.c **** *  the ADC_GetResult16() function should be used instead. This
 681:Generated_Source\PSoC5/ADC_DelSig_2.c **** *  function returns only signed 8-bit values. The maximum positive
 682:Generated_Source\PSoC5/ADC_DelSig_2.c **** *  signed 8-bit value is 127, but in singled ended 8-bit mode, the
 683:Generated_Source\PSoC5/ADC_DelSig_2.c **** *  maximum positive value is 255.
 684:Generated_Source\PSoC5/ADC_DelSig_2.c **** *
 685:Generated_Source\PSoC5/ADC_DelSig_2.c **** * Parameters:
 686:Generated_Source\PSoC5/ADC_DelSig_2.c **** *  None
 687:Generated_Source\PSoC5/ADC_DelSig_2.c **** *
 688:Generated_Source\PSoC5/ADC_DelSig_2.c **** * Return:
 689:Generated_Source\PSoC5/ADC_DelSig_2.c **** *  int8: The LSB of the last ADC conversion.
 690:Generated_Source\PSoC5/ADC_DelSig_2.c **** *
 691:Generated_Source\PSoC5/ADC_DelSig_2.c **** * Global variables:
 692:Generated_Source\PSoC5/ADC_DelSig_2.c **** *  ADC_DelSig_2_convDone:  Cleared in single sample mode with resolution
 693:Generated_Source\PSoC5/ADC_DelSig_2.c **** *                              above 16 bits
 694:Generated_Source\PSoC5/ADC_DelSig_2.c **** *
 695:Generated_Source\PSoC5/ADC_DelSig_2.c **** *******************************************************************************/
 696:Generated_Source\PSoC5/ADC_DelSig_2.c **** int8 ADC_DelSig_2_GetResult8( void ) 
 697:Generated_Source\PSoC5/ADC_DelSig_2.c **** {
 698:Generated_Source\PSoC5/ADC_DelSig_2.c ****     int8 result;
 699:Generated_Source\PSoC5/ADC_DelSig_2.c ****     uint8 coherency;
 700:Generated_Source\PSoC5/ADC_DelSig_2.c **** 
 701:Generated_Source\PSoC5/ADC_DelSig_2.c ****     /* Read active coherency configuration */
 702:Generated_Source\PSoC5/ADC_DelSig_2.c ****     coherency = ADC_DelSig_2_DEC_COHER_REG & ADC_DelSig_2_DEC_SAMP_KEY_MASK;
 703:Generated_Source\PSoC5/ADC_DelSig_2.c **** 
 704:Generated_Source\PSoC5/ADC_DelSig_2.c ****     result = (int8)ADC_DelSig_2_DEC_SAMP_REG;
 705:Generated_Source\PSoC5/ADC_DelSig_2.c **** 
 706:Generated_Source\PSoC5/ADC_DelSig_2.c ****     if(coherency == ADC_DelSig_2_DEC_SAMP_KEY_MID)
 707:Generated_Source\PSoC5/ADC_DelSig_2.c ****     {   /* Dummy read of the middle byte to unlock the coherency */
 708:Generated_Source\PSoC5/ADC_DelSig_2.c ****         (void)ADC_DelSig_2_DEC_SAMPM_REG;
 709:Generated_Source\PSoC5/ADC_DelSig_2.c ****     }
 710:Generated_Source\PSoC5/ADC_DelSig_2.c ****     else  if(coherency == ADC_DelSig_2_DEC_SAMP_KEY_HIGH)
 711:Generated_Source\PSoC5/ADC_DelSig_2.c ****     {   /* Dummy read of the MSB byte to unlock the coherency */
 712:Generated_Source\PSoC5/ADC_DelSig_2.c ****         (void)ADC_DelSig_2_DEC_SAMPH_REG;
 713:Generated_Source\PSoC5/ADC_DelSig_2.c ****     }
 714:Generated_Source\PSoC5/ADC_DelSig_2.c ****     else /*No action required for other coherency */
 715:Generated_Source\PSoC5/ADC_DelSig_2.c ****     {
ARM GAS  C:\Users\vboxuser\AppData\Local\Temp\ccKqkYuE.s 			page 14


 716:Generated_Source\PSoC5/ADC_DelSig_2.c ****     }
 717:Generated_Source\PSoC5/ADC_DelSig_2.c ****     /* Clear conversion complete status in Single Sample mode with resolution above 16 bit */
 718:Generated_Source\PSoC5/ADC_DelSig_2.c ****     if(ADC_DelSig_2_stopConversion != 0u)
 719:Generated_Source\PSoC5/ADC_DelSig_2.c ****     {
 720:Generated_Source\PSoC5/ADC_DelSig_2.c ****         ADC_DelSig_2_convDone = 0u;
 721:Generated_Source\PSoC5/ADC_DelSig_2.c ****     }
 722:Generated_Source\PSoC5/ADC_DelSig_2.c ****     return (result);
 723:Generated_Source\PSoC5/ADC_DelSig_2.c **** }
 724:Generated_Source\PSoC5/ADC_DelSig_2.c **** 
 725:Generated_Source\PSoC5/ADC_DelSig_2.c **** 
 726:Generated_Source\PSoC5/ADC_DelSig_2.c **** /*******************************************************************************
 727:Generated_Source\PSoC5/ADC_DelSig_2.c **** * Function Name: ADC_DelSig_2_GetResult16
 728:Generated_Source\PSoC5/ADC_DelSig_2.c **** ********************************************************************************
 729:Generated_Source\PSoC5/ADC_DelSig_2.c **** *
 730:Generated_Source\PSoC5/ADC_DelSig_2.c **** * Summary:
 731:Generated_Source\PSoC5/ADC_DelSig_2.c **** *  Returns a 16-bit result for a conversion with a result that has a
 732:Generated_Source\PSoC5/ADC_DelSig_2.c **** *  resolution of 8 to 16 bits. If the resolution is set greater than 16-bits,
 733:Generated_Source\PSoC5/ADC_DelSig_2.c **** *  it will return the 16 least significant bits of the result. When the ADC
 734:Generated_Source\PSoC5/ADC_DelSig_2.c **** *  is configured for 16-bit single ended mode, the ADC_GetResult32()
 735:Generated_Source\PSoC5/ADC_DelSig_2.c **** *  function should be used instead. This function returns only signed
 736:Generated_Source\PSoC5/ADC_DelSig_2.c **** *  16-bit result, which allows a maximum positive value of 32767, not 65535.
 737:Generated_Source\PSoC5/ADC_DelSig_2.c **** *  This function supports different coherency settings.
 738:Generated_Source\PSoC5/ADC_DelSig_2.c **** *
 739:Generated_Source\PSoC5/ADC_DelSig_2.c **** * Parameters:
 740:Generated_Source\PSoC5/ADC_DelSig_2.c **** *   void
 741:Generated_Source\PSoC5/ADC_DelSig_2.c **** *
 742:Generated_Source\PSoC5/ADC_DelSig_2.c **** * Return:
 743:Generated_Source\PSoC5/ADC_DelSig_2.c **** *  int16:  ADC result.
 744:Generated_Source\PSoC5/ADC_DelSig_2.c **** *
 745:Generated_Source\PSoC5/ADC_DelSig_2.c **** * Global variables:
 746:Generated_Source\PSoC5/ADC_DelSig_2.c **** *  ADC_DelSig_2_convDone:  Cleared in single sample mode with resolution
 747:Generated_Source\PSoC5/ADC_DelSig_2.c **** *                              above 16 bits
 748:Generated_Source\PSoC5/ADC_DelSig_2.c **** *
 749:Generated_Source\PSoC5/ADC_DelSig_2.c **** *******************************************************************************/
 750:Generated_Source\PSoC5/ADC_DelSig_2.c **** int16 ADC_DelSig_2_GetResult16(void) 
 751:Generated_Source\PSoC5/ADC_DelSig_2.c **** {
 752:Generated_Source\PSoC5/ADC_DelSig_2.c ****     uint16 result;
 753:Generated_Source\PSoC5/ADC_DelSig_2.c ****     uint8 coherency;
 754:Generated_Source\PSoC5/ADC_DelSig_2.c **** 
 755:Generated_Source\PSoC5/ADC_DelSig_2.c ****     /* Read active coherency configuration */
 756:Generated_Source\PSoC5/ADC_DelSig_2.c ****     coherency = ADC_DelSig_2_DEC_COHER_REG & ADC_DelSig_2_DEC_SAMP_KEY_MASK;
 757:Generated_Source\PSoC5/ADC_DelSig_2.c **** 
 758:Generated_Source\PSoC5/ADC_DelSig_2.c ****     if(coherency <= ADC_DelSig_2_DEC_SAMP_KEY_LOW)
 759:Generated_Source\PSoC5/ADC_DelSig_2.c ****     {   /*  Use default method to read result registers i.e. LSB byte read at the end*/
 760:Generated_Source\PSoC5/ADC_DelSig_2.c ****         #if (CY_PSOC3)
 761:Generated_Source\PSoC5/ADC_DelSig_2.c ****             result = ADC_DelSig_2_DEC_SAMPM_REG;
 762:Generated_Source\PSoC5/ADC_DelSig_2.c ****             result = (result << 8u) | ADC_DelSig_2_DEC_SAMP_REG;
 763:Generated_Source\PSoC5/ADC_DelSig_2.c ****         #else
 764:Generated_Source\PSoC5/ADC_DelSig_2.c ****             result = (CY_GET_REG16(ADC_DelSig_2_DEC_SAMP_16B_PTR));
 765:Generated_Source\PSoC5/ADC_DelSig_2.c ****         #endif /* CY_PSOC3 */
 766:Generated_Source\PSoC5/ADC_DelSig_2.c ****     }
 767:Generated_Source\PSoC5/ADC_DelSig_2.c ****     else /* MID or HIGH */
 768:Generated_Source\PSoC5/ADC_DelSig_2.c ****     {   /* Read middle byte at the end */
 769:Generated_Source\PSoC5/ADC_DelSig_2.c ****         #if (CY_PSOC3)
 770:Generated_Source\PSoC5/ADC_DelSig_2.c ****             result = (CY_GET_REG16(ADC_DelSig_2_DEC_SAMP_16B_PTR));
 771:Generated_Source\PSoC5/ADC_DelSig_2.c ****         #else
 772:Generated_Source\PSoC5/ADC_DelSig_2.c ****             result = ADC_DelSig_2_DEC_SAMP_REG;
ARM GAS  C:\Users\vboxuser\AppData\Local\Temp\ccKqkYuE.s 			page 15


 773:Generated_Source\PSoC5/ADC_DelSig_2.c ****             result |=  (uint16)((uint16)ADC_DelSig_2_DEC_SAMPM_REG << 8u);
 774:Generated_Source\PSoC5/ADC_DelSig_2.c ****         #endif /* CY_PSOC3 */
 775:Generated_Source\PSoC5/ADC_DelSig_2.c ****         if(coherency == ADC_DelSig_2_DEC_SAMP_KEY_HIGH)
 776:Generated_Source\PSoC5/ADC_DelSig_2.c ****         {   /* Dummy read of the MSB byte to unlock the coherency */
 777:Generated_Source\PSoC5/ADC_DelSig_2.c ****             (void)ADC_DelSig_2_DEC_SAMPH_REG;
 778:Generated_Source\PSoC5/ADC_DelSig_2.c ****         }
 779:Generated_Source\PSoC5/ADC_DelSig_2.c ****     }
 780:Generated_Source\PSoC5/ADC_DelSig_2.c ****     /* Clear conversion complete status in Single Sample mode with resolution above 16 bit */
 781:Generated_Source\PSoC5/ADC_DelSig_2.c ****     if(ADC_DelSig_2_stopConversion != 0u)
 782:Generated_Source\PSoC5/ADC_DelSig_2.c ****     {
 783:Generated_Source\PSoC5/ADC_DelSig_2.c ****         ADC_DelSig_2_convDone = 0u;
 784:Generated_Source\PSoC5/ADC_DelSig_2.c ****     }
 785:Generated_Source\PSoC5/ADC_DelSig_2.c **** 
 786:Generated_Source\PSoC5/ADC_DelSig_2.c ****     return ((int16)result);
 787:Generated_Source\PSoC5/ADC_DelSig_2.c **** }
 788:Generated_Source\PSoC5/ADC_DelSig_2.c **** 
 789:Generated_Source\PSoC5/ADC_DelSig_2.c **** 
 790:Generated_Source\PSoC5/ADC_DelSig_2.c **** /*******************************************************************************
 791:Generated_Source\PSoC5/ADC_DelSig_2.c **** * Function Name: ADC_DelSig_2_GetResult32
 792:Generated_Source\PSoC5/ADC_DelSig_2.c **** ********************************************************************************
 793:Generated_Source\PSoC5/ADC_DelSig_2.c **** *
 794:Generated_Source\PSoC5/ADC_DelSig_2.c **** * Summary:
 795:Generated_Source\PSoC5/ADC_DelSig_2.c **** *  Returns a 32-bit result for a conversion with a result that has a
 796:Generated_Source\PSoC5/ADC_DelSig_2.c **** *  resolution of 8 to 20 bits.
 797:Generated_Source\PSoC5/ADC_DelSig_2.c **** *  This function supports different coherency settings.
 798:Generated_Source\PSoC5/ADC_DelSig_2.c **** *
 799:Generated_Source\PSoC5/ADC_DelSig_2.c **** * Parameters:
 800:Generated_Source\PSoC5/ADC_DelSig_2.c **** *  None
 801:Generated_Source\PSoC5/ADC_DelSig_2.c **** *
 802:Generated_Source\PSoC5/ADC_DelSig_2.c **** * Return:
 803:Generated_Source\PSoC5/ADC_DelSig_2.c **** *  int32: Result of the last ADC conversion.
 804:Generated_Source\PSoC5/ADC_DelSig_2.c **** *
 805:Generated_Source\PSoC5/ADC_DelSig_2.c **** * Global variables:
 806:Generated_Source\PSoC5/ADC_DelSig_2.c **** *  ADC_DelSig_2_convDone:  Cleared in single sample mode with resolution
 807:Generated_Source\PSoC5/ADC_DelSig_2.c **** *                              above 16 bits
 808:Generated_Source\PSoC5/ADC_DelSig_2.c **** *
 809:Generated_Source\PSoC5/ADC_DelSig_2.c **** *******************************************************************************/
 810:Generated_Source\PSoC5/ADC_DelSig_2.c **** int32 ADC_DelSig_2_GetResult32(void) 
 811:Generated_Source\PSoC5/ADC_DelSig_2.c **** {
 812:Generated_Source\PSoC5/ADC_DelSig_2.c ****     uint32 result;
 813:Generated_Source\PSoC5/ADC_DelSig_2.c ****     uint8 coherency;
 814:Generated_Source\PSoC5/ADC_DelSig_2.c ****     #if (CY_PSOC3)
 815:Generated_Source\PSoC5/ADC_DelSig_2.c **** 	    uint16 tmp;
 816:Generated_Source\PSoC5/ADC_DelSig_2.c ****     #endif /* CY_PSOC3 */
 817:Generated_Source\PSoC5/ADC_DelSig_2.c **** 
 818:Generated_Source\PSoC5/ADC_DelSig_2.c ****     /* Read active coherency configuration */
 819:Generated_Source\PSoC5/ADC_DelSig_2.c ****     coherency = ADC_DelSig_2_DEC_COHER_REG & ADC_DelSig_2_DEC_SAMP_KEY_MASK;
 820:Generated_Source\PSoC5/ADC_DelSig_2.c **** 
 821:Generated_Source\PSoC5/ADC_DelSig_2.c ****     if(coherency <= ADC_DelSig_2_DEC_SAMP_KEY_LOW)
 822:Generated_Source\PSoC5/ADC_DelSig_2.c ****     {   /*  Use default method to read result registers i.e. LSB byte read at the end*/
 823:Generated_Source\PSoC5/ADC_DelSig_2.c ****         #if (CY_PSOC3)
 824:Generated_Source\PSoC5/ADC_DelSig_2.c ****             result = ADC_DelSig_2_DEC_SAMPH_REG;
 825:Generated_Source\PSoC5/ADC_DelSig_2.c ****             if((result & 0x80u) != 0u)
 826:Generated_Source\PSoC5/ADC_DelSig_2.c ****             {   /* Sign extend */
 827:Generated_Source\PSoC5/ADC_DelSig_2.c ****                 result |= 0xFF00u;
 828:Generated_Source\PSoC5/ADC_DelSig_2.c ****             }
 829:Generated_Source\PSoC5/ADC_DelSig_2.c ****             result = (result << 8u) | ADC_DelSig_2_DEC_SAMPM_REG;
ARM GAS  C:\Users\vboxuser\AppData\Local\Temp\ccKqkYuE.s 			page 16


 830:Generated_Source\PSoC5/ADC_DelSig_2.c ****             result = (result << 8u) | ADC_DelSig_2_DEC_SAMP_REG;
 831:Generated_Source\PSoC5/ADC_DelSig_2.c ****         #else
 832:Generated_Source\PSoC5/ADC_DelSig_2.c ****             result = CY_GET_REG16(ADC_DelSig_2_DEC_SAMPH_16B_PTR);
 833:Generated_Source\PSoC5/ADC_DelSig_2.c ****             result = (result << 16u) | (CY_GET_REG16(ADC_DelSig_2_DEC_SAMP_16B_PTR));
 834:Generated_Source\PSoC5/ADC_DelSig_2.c ****         #endif /* CY_PSOC3 */
 835:Generated_Source\PSoC5/ADC_DelSig_2.c ****     }
 836:Generated_Source\PSoC5/ADC_DelSig_2.c ****     else if(coherency == ADC_DelSig_2_DEC_SAMP_KEY_MID)
 837:Generated_Source\PSoC5/ADC_DelSig_2.c ****     {   /* Read middle byte at the end */
 838:Generated_Source\PSoC5/ADC_DelSig_2.c ****         #if (CY_PSOC3)
 839:Generated_Source\PSoC5/ADC_DelSig_2.c ****             result = ADC_DelSig_2_DEC_SAMPH_REG;
 840:Generated_Source\PSoC5/ADC_DelSig_2.c ****             if((result & 0x80u) != 0u)
 841:Generated_Source\PSoC5/ADC_DelSig_2.c ****             {   /* Sign extend */
 842:Generated_Source\PSoC5/ADC_DelSig_2.c ****                 result |= 0xFF00u;
 843:Generated_Source\PSoC5/ADC_DelSig_2.c ****             }
 844:Generated_Source\PSoC5/ADC_DelSig_2.c ****             result = (result << 16u) | (CY_GET_REG16(ADC_DelSig_2_DEC_SAMP_16B_PTR));
 845:Generated_Source\PSoC5/ADC_DelSig_2.c ****         #else
 846:Generated_Source\PSoC5/ADC_DelSig_2.c ****             result = CY_GET_REG16(ADC_DelSig_2_DEC_SAMPH_16B_PTR);
 847:Generated_Source\PSoC5/ADC_DelSig_2.c ****             result = (result << 16u) | ADC_DelSig_2_DEC_SAMP_REG;
 848:Generated_Source\PSoC5/ADC_DelSig_2.c ****             result |=  (uint32)((uint32)ADC_DelSig_2_DEC_SAMPM_REG << 8u);
 849:Generated_Source\PSoC5/ADC_DelSig_2.c ****         #endif /* CY_PSOC3 */
 850:Generated_Source\PSoC5/ADC_DelSig_2.c ****     }
 851:Generated_Source\PSoC5/ADC_DelSig_2.c ****     else /*ADC_DelSig_2_DEC_SAMP_KEY_HIGH */
 852:Generated_Source\PSoC5/ADC_DelSig_2.c ****     {
 853:Generated_Source\PSoC5/ADC_DelSig_2.c ****         /* Read MSB byte at the end */
 854:Generated_Source\PSoC5/ADC_DelSig_2.c ****         #if (CY_PSOC3)
 855:Generated_Source\PSoC5/ADC_DelSig_2.c ****             result = CY_GET_REG16(ADC_DelSig_2_DEC_SAMP_16B_PTR);
 856:Generated_Source\PSoC5/ADC_DelSig_2.c **** 			tmp = ADC_DelSig_2_DEC_SAMPH_REG;
 857:Generated_Source\PSoC5/ADC_DelSig_2.c ****             if((tmp & 0x80u) != 0u)
 858:Generated_Source\PSoC5/ADC_DelSig_2.c ****             {   /* Sign extend */
 859:Generated_Source\PSoC5/ADC_DelSig_2.c ****                 tmp |= 0xFF00u;
 860:Generated_Source\PSoC5/ADC_DelSig_2.c ****             }
 861:Generated_Source\PSoC5/ADC_DelSig_2.c ****             result |= (uint32)tmp << 16u;
 862:Generated_Source\PSoC5/ADC_DelSig_2.c ****         #else
 863:Generated_Source\PSoC5/ADC_DelSig_2.c ****             result = CY_GET_REG16(ADC_DelSig_2_DEC_SAMP_16B_PTR);
 864:Generated_Source\PSoC5/ADC_DelSig_2.c ****             result |= (uint32)((uint32)CY_GET_REG16(ADC_DelSig_2_DEC_SAMPH_16B_PTR) << 16u);
 865:Generated_Source\PSoC5/ADC_DelSig_2.c ****         #endif /* CY_PSOC3 */
 866:Generated_Source\PSoC5/ADC_DelSig_2.c ****     }
 867:Generated_Source\PSoC5/ADC_DelSig_2.c ****     /* Clear conversion complete status in Single Sample mode with resolution above 16 bit */
 868:Generated_Source\PSoC5/ADC_DelSig_2.c ****     if(ADC_DelSig_2_stopConversion != 0u)
 869:Generated_Source\PSoC5/ADC_DelSig_2.c ****     {
 870:Generated_Source\PSoC5/ADC_DelSig_2.c ****         ADC_DelSig_2_convDone = 0u;
 871:Generated_Source\PSoC5/ADC_DelSig_2.c ****     }
 872:Generated_Source\PSoC5/ADC_DelSig_2.c **** 
 873:Generated_Source\PSoC5/ADC_DelSig_2.c ****     return ((int32)result);
 874:Generated_Source\PSoC5/ADC_DelSig_2.c **** }
 875:Generated_Source\PSoC5/ADC_DelSig_2.c **** 
 876:Generated_Source\PSoC5/ADC_DelSig_2.c **** 
 877:Generated_Source\PSoC5/ADC_DelSig_2.c **** /*******************************************************************************
 878:Generated_Source\PSoC5/ADC_DelSig_2.c **** * Function Name: ADC_DelSig_2_SetOffset
 879:Generated_Source\PSoC5/ADC_DelSig_2.c **** ********************************************************************************
 880:Generated_Source\PSoC5/ADC_DelSig_2.c **** *
 881:Generated_Source\PSoC5/ADC_DelSig_2.c **** * Summary:
 882:Generated_Source\PSoC5/ADC_DelSig_2.c **** *  Sets the ADC offset which is used by the functions ADC_CountsTo_uVolts, 
 883:Generated_Source\PSoC5/ADC_DelSig_2.c **** *  ADC_CountsTo_mVolts, and ADC_CountsTo_Volts to subtract the offset from the 
 884:Generated_Source\PSoC5/ADC_DelSig_2.c **** *  given reading before calculating the voltage conversion.
 885:Generated_Source\PSoC5/ADC_DelSig_2.c **** *
 886:Generated_Source\PSoC5/ADC_DelSig_2.c **** * Parameters:
ARM GAS  C:\Users\vboxuser\AppData\Local\Temp\ccKqkYuE.s 			page 17


 887:Generated_Source\PSoC5/ADC_DelSig_2.c **** *  int32:  This value is a measured value when the inputs are shorted or 
 888:Generated_Source\PSoC5/ADC_DelSig_2.c **** *          connected to the same input voltage.
 889:Generated_Source\PSoC5/ADC_DelSig_2.c **** *
 890:Generated_Source\PSoC5/ADC_DelSig_2.c **** * Return:
 891:Generated_Source\PSoC5/ADC_DelSig_2.c **** *  None
 892:Generated_Source\PSoC5/ADC_DelSig_2.c **** *
 893:Generated_Source\PSoC5/ADC_DelSig_2.c **** * Global variables:
 894:Generated_Source\PSoC5/ADC_DelSig_2.c **** *  ADC_DelSig_2_Offset:  Modified to set the user provided offset. This
 895:Generated_Source\PSoC5/ADC_DelSig_2.c **** *  variable is used for offset calibration purpose.
 896:Generated_Source\PSoC5/ADC_DelSig_2.c **** *
 897:Generated_Source\PSoC5/ADC_DelSig_2.c **** * Side Effects:
 898:Generated_Source\PSoC5/ADC_DelSig_2.c **** *  Affects the ADC_DelSig_2_CountsTo_Volts,
 899:Generated_Source\PSoC5/ADC_DelSig_2.c **** *  ADC_DelSig_2_CountsTo_mVolts, ADC_DelSig_2_CountsTo_uVolts functions
 900:Generated_Source\PSoC5/ADC_DelSig_2.c **** *  by subtracting the given offset.
 901:Generated_Source\PSoC5/ADC_DelSig_2.c **** *
 902:Generated_Source\PSoC5/ADC_DelSig_2.c **** *******************************************************************************/
 903:Generated_Source\PSoC5/ADC_DelSig_2.c **** void ADC_DelSig_2_SetOffset(int32 offset) 
 904:Generated_Source\PSoC5/ADC_DelSig_2.c **** {
 905:Generated_Source\PSoC5/ADC_DelSig_2.c **** 
 906:Generated_Source\PSoC5/ADC_DelSig_2.c ****     ADC_DelSig_2_Offset = offset;
 907:Generated_Source\PSoC5/ADC_DelSig_2.c **** }
 908:Generated_Source\PSoC5/ADC_DelSig_2.c **** 
 909:Generated_Source\PSoC5/ADC_DelSig_2.c **** 
 910:Generated_Source\PSoC5/ADC_DelSig_2.c **** /*******************************************************************************
 911:Generated_Source\PSoC5/ADC_DelSig_2.c **** * Function Name: ADC_DelSig_2_SetGain
 912:Generated_Source\PSoC5/ADC_DelSig_2.c **** ********************************************************************************
 913:Generated_Source\PSoC5/ADC_DelSig_2.c **** *
 914:Generated_Source\PSoC5/ADC_DelSig_2.c **** * Summary:
 915:Generated_Source\PSoC5/ADC_DelSig_2.c **** *  Sets the ADC gain in counts per volt for the voltage conversion
 916:Generated_Source\PSoC5/ADC_DelSig_2.c **** *  functions below. This value is set by default by the reference and
 917:Generated_Source\PSoC5/ADC_DelSig_2.c **** *  input range settings. It should only be used to further calibrate the
 918:Generated_Source\PSoC5/ADC_DelSig_2.c **** *  ADC with a known input or if an external reference is used. This
 919:Generated_Source\PSoC5/ADC_DelSig_2.c **** *  function may also be used to calibrate an entire signal chain, not
 920:Generated_Source\PSoC5/ADC_DelSig_2.c **** *  just the ADC.
 921:Generated_Source\PSoC5/ADC_DelSig_2.c **** *
 922:Generated_Source\PSoC5/ADC_DelSig_2.c **** * Parameters:
 923:Generated_Source\PSoC5/ADC_DelSig_2.c **** *  int32: ADC gain in counts per volt.
 924:Generated_Source\PSoC5/ADC_DelSig_2.c **** *
 925:Generated_Source\PSoC5/ADC_DelSig_2.c **** * Return:
 926:Generated_Source\PSoC5/ADC_DelSig_2.c **** *  None
 927:Generated_Source\PSoC5/ADC_DelSig_2.c **** *
 928:Generated_Source\PSoC5/ADC_DelSig_2.c **** * Global variables:
 929:Generated_Source\PSoC5/ADC_DelSig_2.c **** *  ADC_DelSig_2_CountsPerVolt:  modified to set the ADC gain in counts
 930:Generated_Source\PSoC5/ADC_DelSig_2.c **** *   per volt.
 931:Generated_Source\PSoC5/ADC_DelSig_2.c **** *
 932:Generated_Source\PSoC5/ADC_DelSig_2.c **** * Side Effects:
 933:Generated_Source\PSoC5/ADC_DelSig_2.c **** *  Affects the ADC_DelSig_2_CountsTo_Volts,
 934:Generated_Source\PSoC5/ADC_DelSig_2.c **** *  ADC_DelSig_2_CountsTo_mVolts, ADC_DelSig_2_CountsTo_uVolts functions
 935:Generated_Source\PSoC5/ADC_DelSig_2.c **** *  supplying the correct conversion between ADC counts and voltage.
 936:Generated_Source\PSoC5/ADC_DelSig_2.c **** *
 937:Generated_Source\PSoC5/ADC_DelSig_2.c **** *******************************************************************************/
 938:Generated_Source\PSoC5/ADC_DelSig_2.c **** void ADC_DelSig_2_SetGain(int32 adcGain) 
 939:Generated_Source\PSoC5/ADC_DelSig_2.c **** {
 940:Generated_Source\PSoC5/ADC_DelSig_2.c ****     ADC_DelSig_2_CountsPerVolt = adcGain;
 941:Generated_Source\PSoC5/ADC_DelSig_2.c **** }
 942:Generated_Source\PSoC5/ADC_DelSig_2.c **** 
 943:Generated_Source\PSoC5/ADC_DelSig_2.c **** 
ARM GAS  C:\Users\vboxuser\AppData\Local\Temp\ccKqkYuE.s 			page 18


 944:Generated_Source\PSoC5/ADC_DelSig_2.c **** /*******************************************************************************
 945:Generated_Source\PSoC5/ADC_DelSig_2.c **** * Function Name: ADC_DelSig_2_CountsTo_mVolts
 946:Generated_Source\PSoC5/ADC_DelSig_2.c **** ********************************************************************************
 947:Generated_Source\PSoC5/ADC_DelSig_2.c **** *
 948:Generated_Source\PSoC5/ADC_DelSig_2.c **** * Summary:
 949:Generated_Source\PSoC5/ADC_DelSig_2.c **** *  Converts the ADC counts output to mVolts as a 16-bit integer. For
 950:Generated_Source\PSoC5/ADC_DelSig_2.c **** *  example, if the ADC measured 0.534 volts, the return value would
 951:Generated_Source\PSoC5/ADC_DelSig_2.c **** *  be 534 mVolts.
 952:Generated_Source\PSoC5/ADC_DelSig_2.c **** *
 953:Generated_Source\PSoC5/ADC_DelSig_2.c **** * Parameters:
 954:Generated_Source\PSoC5/ADC_DelSig_2.c **** *  int32: adcCounts Result from the ADC conversion.
 955:Generated_Source\PSoC5/ADC_DelSig_2.c **** *
 956:Generated_Source\PSoC5/ADC_DelSig_2.c **** * Return:
 957:Generated_Source\PSoC5/ADC_DelSig_2.c **** *  int16:  Result in mVolts
 958:Generated_Source\PSoC5/ADC_DelSig_2.c **** *
 959:Generated_Source\PSoC5/ADC_DelSig_2.c **** * Global variables:
 960:Generated_Source\PSoC5/ADC_DelSig_2.c **** *  ADC_DelSig_2_CountsPerVolt:  used to convert ADC counts to mVolts.
 961:Generated_Source\PSoC5/ADC_DelSig_2.c **** *  ADC_DelSig_2_Offset:  Used as the offset while converting ADC counts
 962:Generated_Source\PSoC5/ADC_DelSig_2.c **** *   to mVolts.
 963:Generated_Source\PSoC5/ADC_DelSig_2.c **** *
 964:Generated_Source\PSoC5/ADC_DelSig_2.c **** *******************************************************************************/
 965:Generated_Source\PSoC5/ADC_DelSig_2.c **** int16 ADC_DelSig_2_CountsTo_mVolts(int32 adcCounts) 
 966:Generated_Source\PSoC5/ADC_DelSig_2.c **** {
 967:Generated_Source\PSoC5/ADC_DelSig_2.c **** 
 968:Generated_Source\PSoC5/ADC_DelSig_2.c ****     int16 mVolts;
 969:Generated_Source\PSoC5/ADC_DelSig_2.c **** 
 970:Generated_Source\PSoC5/ADC_DelSig_2.c ****     /* Convert adcCounts to the right align if left option selected */
 971:Generated_Source\PSoC5/ADC_DelSig_2.c ****     #if(ADC_DelSig_2_CFG1_DEC_DIV != 0)
 972:Generated_Source\PSoC5/ADC_DelSig_2.c ****         if(ADC_DelSig_2_Config == ADC_DelSig_2_CFG1)
 973:Generated_Source\PSoC5/ADC_DelSig_2.c ****         {
 974:Generated_Source\PSoC5/ADC_DelSig_2.c ****             adcCounts /= ADC_DelSig_2_CFG1_DEC_DIV;
 975:Generated_Source\PSoC5/ADC_DelSig_2.c ****         }
 976:Generated_Source\PSoC5/ADC_DelSig_2.c ****     #endif /* ADC_DelSig_2_CFG1_DEC_DIV */
 977:Generated_Source\PSoC5/ADC_DelSig_2.c ****     #if((ADC_DelSig_2_CFG2_DEC_DIV != 0) && (ADC_DelSig_2_DEFAULT_NUM_CONFIGS > 1))
 978:Generated_Source\PSoC5/ADC_DelSig_2.c ****         if(ADC_DelSig_2_Config == ADC_DelSig_2_CFG2)
 979:Generated_Source\PSoC5/ADC_DelSig_2.c ****         {
 980:Generated_Source\PSoC5/ADC_DelSig_2.c ****             adcCounts /= ADC_DelSig_2_CFG2_DEC_DIV;
 981:Generated_Source\PSoC5/ADC_DelSig_2.c ****         }
 982:Generated_Source\PSoC5/ADC_DelSig_2.c ****     #endif /* ADC_DelSig_2_CFG2_DEC_DIV */
 983:Generated_Source\PSoC5/ADC_DelSig_2.c ****     #if((ADC_DelSig_2_CFG3_DEC_DIV != 0) && (ADC_DelSig_2_DEFAULT_NUM_CONFIGS > 2))
 984:Generated_Source\PSoC5/ADC_DelSig_2.c ****         if(ADC_DelSig_2_Config == ADC_DelSig_2_CFG3)
 985:Generated_Source\PSoC5/ADC_DelSig_2.c ****         {
 986:Generated_Source\PSoC5/ADC_DelSig_2.c ****             adcCounts /= ADC_DelSig_2_CFG3_DEC_DIV;
 987:Generated_Source\PSoC5/ADC_DelSig_2.c ****         }
 988:Generated_Source\PSoC5/ADC_DelSig_2.c ****     #endif /* ADC_DelSig_2_CFG2_DEC_DIV */
 989:Generated_Source\PSoC5/ADC_DelSig_2.c ****     #if((ADC_DelSig_2_CFG4_DEC_DIV != 0) && (ADC_DelSig_2_DEFAULT_NUM_CONFIGS > 3))
 990:Generated_Source\PSoC5/ADC_DelSig_2.c ****         if(ADC_DelSig_2_Config == ADC_DelSig_2_CFG4)
 991:Generated_Source\PSoC5/ADC_DelSig_2.c ****         {
 992:Generated_Source\PSoC5/ADC_DelSig_2.c ****             adcCounts /= ADC_DelSig_2_CFG4_DEC_DIV;
 993:Generated_Source\PSoC5/ADC_DelSig_2.c ****         }
 994:Generated_Source\PSoC5/ADC_DelSig_2.c ****     #endif /* ADC_DelSig_2_CFG2_DEC_DIV */
 995:Generated_Source\PSoC5/ADC_DelSig_2.c **** 
 996:Generated_Source\PSoC5/ADC_DelSig_2.c ****     /* Subtract ADC offset */
 997:Generated_Source\PSoC5/ADC_DelSig_2.c ****     adcCounts -= ADC_DelSig_2_Offset;
 998:Generated_Source\PSoC5/ADC_DelSig_2.c **** 
 999:Generated_Source\PSoC5/ADC_DelSig_2.c ****     mVolts = (int16)(( adcCounts * ADC_DelSig_2_1MV_COUNTS ) / ADC_DelSig_2_CountsPerVolt) ;
1000:Generated_Source\PSoC5/ADC_DelSig_2.c **** 
ARM GAS  C:\Users\vboxuser\AppData\Local\Temp\ccKqkYuE.s 			page 19


1001:Generated_Source\PSoC5/ADC_DelSig_2.c ****     return(mVolts);
1002:Generated_Source\PSoC5/ADC_DelSig_2.c **** }
1003:Generated_Source\PSoC5/ADC_DelSig_2.c **** 
1004:Generated_Source\PSoC5/ADC_DelSig_2.c **** 
1005:Generated_Source\PSoC5/ADC_DelSig_2.c **** /*******************************************************************************
1006:Generated_Source\PSoC5/ADC_DelSig_2.c **** * Function Name: ADC_DelSig_2_CountsTo_Volts
1007:Generated_Source\PSoC5/ADC_DelSig_2.c **** ********************************************************************************
1008:Generated_Source\PSoC5/ADC_DelSig_2.c **** *
1009:Generated_Source\PSoC5/ADC_DelSig_2.c **** * Summary:
1010:Generated_Source\PSoC5/ADC_DelSig_2.c **** *  Converts the ADC output to Volts as a floating point number. For
1011:Generated_Source\PSoC5/ADC_DelSig_2.c **** *  example, if the ADC measure a voltage of 1.2345 Volts, the
1012:Generated_Source\PSoC5/ADC_DelSig_2.c **** *  returned result would be +1.2345 Volts.
1013:Generated_Source\PSoC5/ADC_DelSig_2.c **** *
1014:Generated_Source\PSoC5/ADC_DelSig_2.c **** * Parameters:
1015:Generated_Source\PSoC5/ADC_DelSig_2.c **** *  int32 adcCounts:  Result from the ADC conversion.
1016:Generated_Source\PSoC5/ADC_DelSig_2.c **** *
1017:Generated_Source\PSoC5/ADC_DelSig_2.c **** * Return:
1018:Generated_Source\PSoC5/ADC_DelSig_2.c **** *  float32: Result in Volts
1019:Generated_Source\PSoC5/ADC_DelSig_2.c **** *
1020:Generated_Source\PSoC5/ADC_DelSig_2.c **** * Global variables:
1021:Generated_Source\PSoC5/ADC_DelSig_2.c **** *  ADC_DelSig_2_CountsPerVolt:  used to convert to Volts.
1022:Generated_Source\PSoC5/ADC_DelSig_2.c **** *  ADC_DelSig_2_Offset:  Used as the offset while converting ADC counts
1023:Generated_Source\PSoC5/ADC_DelSig_2.c **** *   to Volts.
1024:Generated_Source\PSoC5/ADC_DelSig_2.c **** *
1025:Generated_Source\PSoC5/ADC_DelSig_2.c **** *******************************************************************************/
1026:Generated_Source\PSoC5/ADC_DelSig_2.c **** float32 ADC_DelSig_2_CountsTo_Volts(int32 adcCounts) 
1027:Generated_Source\PSoC5/ADC_DelSig_2.c **** {
1028:Generated_Source\PSoC5/ADC_DelSig_2.c **** 
1029:Generated_Source\PSoC5/ADC_DelSig_2.c ****     float32 Volts;
1030:Generated_Source\PSoC5/ADC_DelSig_2.c **** 
1031:Generated_Source\PSoC5/ADC_DelSig_2.c ****     /* Convert adcCounts to the right align if left option selected */
1032:Generated_Source\PSoC5/ADC_DelSig_2.c ****     #if(ADC_DelSig_2_CFG1_DEC_DIV != 0)
1033:Generated_Source\PSoC5/ADC_DelSig_2.c ****         if(ADC_DelSig_2_Config == ADC_DelSig_2_CFG1)
1034:Generated_Source\PSoC5/ADC_DelSig_2.c ****         {
1035:Generated_Source\PSoC5/ADC_DelSig_2.c ****             adcCounts /= ADC_DelSig_2_CFG1_DEC_DIV;
1036:Generated_Source\PSoC5/ADC_DelSig_2.c ****         }
1037:Generated_Source\PSoC5/ADC_DelSig_2.c ****     #endif /* ADC_DelSig_2_CFG1_DEC_DIV */
1038:Generated_Source\PSoC5/ADC_DelSig_2.c ****     #if((ADC_DelSig_2_CFG2_DEC_DIV != 0) && (ADC_DelSig_2_DEFAULT_NUM_CONFIGS > 1))
1039:Generated_Source\PSoC5/ADC_DelSig_2.c ****         if(ADC_DelSig_2_Config == ADC_DelSig_2_CFG2)
1040:Generated_Source\PSoC5/ADC_DelSig_2.c ****         {
1041:Generated_Source\PSoC5/ADC_DelSig_2.c ****             adcCounts /= ADC_DelSig_2_CFG2_DEC_DIV;
1042:Generated_Source\PSoC5/ADC_DelSig_2.c ****         }
1043:Generated_Source\PSoC5/ADC_DelSig_2.c ****     #endif /* ADC_DelSig_2_CFG2_DEC_DIV */
1044:Generated_Source\PSoC5/ADC_DelSig_2.c ****     #if((ADC_DelSig_2_CFG3_DEC_DIV != 0) && (ADC_DelSig_2_DEFAULT_NUM_CONFIGS > 2))
1045:Generated_Source\PSoC5/ADC_DelSig_2.c ****         if(ADC_DelSig_2_Config == ADC_DelSig_2_CFG3)
1046:Generated_Source\PSoC5/ADC_DelSig_2.c ****         {
1047:Generated_Source\PSoC5/ADC_DelSig_2.c ****             adcCounts /= ADC_DelSig_2_CFG3_DEC_DIV;
1048:Generated_Source\PSoC5/ADC_DelSig_2.c ****         }
1049:Generated_Source\PSoC5/ADC_DelSig_2.c ****     #endif /* ADC_DelSig_2_CFG2_DEC_DIV */
1050:Generated_Source\PSoC5/ADC_DelSig_2.c ****     #if((ADC_DelSig_2_CFG4_DEC_DIV != 0) && (ADC_DelSig_2_DEFAULT_NUM_CONFIGS > 3))
1051:Generated_Source\PSoC5/ADC_DelSig_2.c ****         if(ADC_DelSig_2_Config == ADC_DelSig_2_CFG4)
1052:Generated_Source\PSoC5/ADC_DelSig_2.c ****         {
1053:Generated_Source\PSoC5/ADC_DelSig_2.c ****             adcCounts /= ADC_DelSig_2_CFG4_DEC_DIV;
1054:Generated_Source\PSoC5/ADC_DelSig_2.c ****         }
1055:Generated_Source\PSoC5/ADC_DelSig_2.c ****     #endif /* ADC_DelSig_2_CFG2_DEC_DIV */
1056:Generated_Source\PSoC5/ADC_DelSig_2.c **** 
1057:Generated_Source\PSoC5/ADC_DelSig_2.c ****     /* Subtract ADC offset */
ARM GAS  C:\Users\vboxuser\AppData\Local\Temp\ccKqkYuE.s 			page 20


1058:Generated_Source\PSoC5/ADC_DelSig_2.c ****     adcCounts -= ADC_DelSig_2_Offset;
1059:Generated_Source\PSoC5/ADC_DelSig_2.c **** 
1060:Generated_Source\PSoC5/ADC_DelSig_2.c ****     Volts = (float32)adcCounts / (float32)ADC_DelSig_2_CountsPerVolt;
1061:Generated_Source\PSoC5/ADC_DelSig_2.c **** 
1062:Generated_Source\PSoC5/ADC_DelSig_2.c ****     return( Volts );
1063:Generated_Source\PSoC5/ADC_DelSig_2.c **** }
1064:Generated_Source\PSoC5/ADC_DelSig_2.c **** 
1065:Generated_Source\PSoC5/ADC_DelSig_2.c **** 
1066:Generated_Source\PSoC5/ADC_DelSig_2.c **** /*******************************************************************************
1067:Generated_Source\PSoC5/ADC_DelSig_2.c **** * Function Name: ADC_DelSig_2_CountsTo_uVolts
1068:Generated_Source\PSoC5/ADC_DelSig_2.c **** ********************************************************************************
1069:Generated_Source\PSoC5/ADC_DelSig_2.c **** *
1070:Generated_Source\PSoC5/ADC_DelSig_2.c **** * Summary:
1071:Generated_Source\PSoC5/ADC_DelSig_2.c **** *  Converts the ADC output to uVolts as a 32-bit integer. For example,
1072:Generated_Source\PSoC5/ADC_DelSig_2.c **** *  if the ADC measured -0.02345 Volts, the return value would be -23450 uVolts.
1073:Generated_Source\PSoC5/ADC_DelSig_2.c **** *
1074:Generated_Source\PSoC5/ADC_DelSig_2.c **** * Parameters:
1075:Generated_Source\PSoC5/ADC_DelSig_2.c **** *  int32 adcCounts: Result from the ADC conversion.
1076:Generated_Source\PSoC5/ADC_DelSig_2.c **** *
1077:Generated_Source\PSoC5/ADC_DelSig_2.c **** * Return:
1078:Generated_Source\PSoC5/ADC_DelSig_2.c **** *  int32:  Result in uVolts
1079:Generated_Source\PSoC5/ADC_DelSig_2.c **** *
1080:Generated_Source\PSoC5/ADC_DelSig_2.c **** * Global variables:
1081:Generated_Source\PSoC5/ADC_DelSig_2.c **** *  ADC_DelSig_2_CountsPerVolt:  used to convert ADC counts to mVolts.
1082:Generated_Source\PSoC5/ADC_DelSig_2.c **** *  ADC_DelSig_2_Offset:  Used as the offset while converting ADC counts
1083:Generated_Source\PSoC5/ADC_DelSig_2.c **** *   to mVolts.
1084:Generated_Source\PSoC5/ADC_DelSig_2.c **** *
1085:Generated_Source\PSoC5/ADC_DelSig_2.c **** * Theory:
1086:Generated_Source\PSoC5/ADC_DelSig_2.c **** *  Care must be taken to not exceed the maximum value for a 31 bit signed
1087:Generated_Source\PSoC5/ADC_DelSig_2.c **** *  number in the conversion to uVolts and at the same time not lose resolution.
1088:Generated_Source\PSoC5/ADC_DelSig_2.c **** *
1089:Generated_Source\PSoC5/ADC_DelSig_2.c **** *  uVolts = ((A * adcCounts) / ((int32)ADC_DelSig_2_CountsPerVolt / B));
1090:Generated_Source\PSoC5/ADC_DelSig_2.c **** *
1091:Generated_Source\PSoC5/ADC_DelSig_2.c **** *******************************************************************************/
1092:Generated_Source\PSoC5/ADC_DelSig_2.c **** int32 ADC_DelSig_2_CountsTo_uVolts(int32 adcCounts) 
1093:Generated_Source\PSoC5/ADC_DelSig_2.c **** {
1094:Generated_Source\PSoC5/ADC_DelSig_2.c **** 
1095:Generated_Source\PSoC5/ADC_DelSig_2.c ****     int32 uVolts;
1096:Generated_Source\PSoC5/ADC_DelSig_2.c ****     int32 coefA;
1097:Generated_Source\PSoC5/ADC_DelSig_2.c ****     int32 coefB;
1098:Generated_Source\PSoC5/ADC_DelSig_2.c ****     uint8 resolution;
1099:Generated_Source\PSoC5/ADC_DelSig_2.c **** 
1100:Generated_Source\PSoC5/ADC_DelSig_2.c ****     /* Set the resolution based on the configuration */
1101:Generated_Source\PSoC5/ADC_DelSig_2.c ****     /* Convert adcCounts to the right align if left option selected */
1102:Generated_Source\PSoC5/ADC_DelSig_2.c ****     if (ADC_DelSig_2_Config == ADC_DelSig_2_CFG1)
1103:Generated_Source\PSoC5/ADC_DelSig_2.c ****     {
1104:Generated_Source\PSoC5/ADC_DelSig_2.c ****         resolution = ADC_DelSig_2_CFG1_RESOLUTION;
1105:Generated_Source\PSoC5/ADC_DelSig_2.c ****         #if(ADC_DelSig_2_CFG1_DEC_DIV != 0)
1106:Generated_Source\PSoC5/ADC_DelSig_2.c ****             adcCounts /= ADC_DelSig_2_CFG1_DEC_DIV;
1107:Generated_Source\PSoC5/ADC_DelSig_2.c ****         #endif /* ADC_DelSig_2_CFG1_DEC_DIV */
1108:Generated_Source\PSoC5/ADC_DelSig_2.c ****     }
1109:Generated_Source\PSoC5/ADC_DelSig_2.c ****     else if (ADC_DelSig_2_Config == ADC_DelSig_2_CFG2)
1110:Generated_Source\PSoC5/ADC_DelSig_2.c ****     {
1111:Generated_Source\PSoC5/ADC_DelSig_2.c ****         resolution = ADC_DelSig_2_CFG2_RESOLUTION;
1112:Generated_Source\PSoC5/ADC_DelSig_2.c ****         #if(ADC_DelSig_2_CFG2_DEC_DIV != 0)
1113:Generated_Source\PSoC5/ADC_DelSig_2.c ****             adcCounts /= ADC_DelSig_2_CFG2_DEC_DIV;
1114:Generated_Source\PSoC5/ADC_DelSig_2.c ****         #endif /* ADC_DelSig_2_CFG2_DEC_DIV */
ARM GAS  C:\Users\vboxuser\AppData\Local\Temp\ccKqkYuE.s 			page 21


1115:Generated_Source\PSoC5/ADC_DelSig_2.c ****     }
1116:Generated_Source\PSoC5/ADC_DelSig_2.c ****     else if (ADC_DelSig_2_Config == ADC_DelSig_2_CFG3)
1117:Generated_Source\PSoC5/ADC_DelSig_2.c ****     {
1118:Generated_Source\PSoC5/ADC_DelSig_2.c ****         resolution = ADC_DelSig_2_CFG3_RESOLUTION;
1119:Generated_Source\PSoC5/ADC_DelSig_2.c ****         #if(ADC_DelSig_2_CFG3_DEC_DIV != 0)
1120:Generated_Source\PSoC5/ADC_DelSig_2.c ****             adcCounts /= ADC_DelSig_2_CFG3_DEC_DIV;
1121:Generated_Source\PSoC5/ADC_DelSig_2.c ****         #endif /* ADC_DelSig_2_CFG3_DEC_DIV */
1122:Generated_Source\PSoC5/ADC_DelSig_2.c ****     }
1123:Generated_Source\PSoC5/ADC_DelSig_2.c ****     else
1124:Generated_Source\PSoC5/ADC_DelSig_2.c ****     {
1125:Generated_Source\PSoC5/ADC_DelSig_2.c ****         resolution = ADC_DelSig_2_CFG4_RESOLUTION;
1126:Generated_Source\PSoC5/ADC_DelSig_2.c ****         #if(ADC_DelSig_2_CFG4_DEC_DIV != 0)
1127:Generated_Source\PSoC5/ADC_DelSig_2.c ****             adcCounts /= ADC_DelSig_2_CFG4_DEC_DIV;
1128:Generated_Source\PSoC5/ADC_DelSig_2.c ****         #endif /* ADC_DelSig_2_CFG4_DEC_DIV */
1129:Generated_Source\PSoC5/ADC_DelSig_2.c ****     }
1130:Generated_Source\PSoC5/ADC_DelSig_2.c **** 
1131:Generated_Source\PSoC5/ADC_DelSig_2.c ****     switch (resolution)
1132:Generated_Source\PSoC5/ADC_DelSig_2.c ****     {
1133:Generated_Source\PSoC5/ADC_DelSig_2.c ****         #if( (ADC_DelSig_2_CFG1_RESOLUTION == ADC_DelSig_2__BITS_12) || \
1134:Generated_Source\PSoC5/ADC_DelSig_2.c ****              (ADC_DelSig_2_CFG2_RESOLUTION == ADC_DelSig_2__BITS_12) || \
1135:Generated_Source\PSoC5/ADC_DelSig_2.c ****              (ADC_DelSig_2_CFG3_RESOLUTION == ADC_DelSig_2__BITS_12) || \
1136:Generated_Source\PSoC5/ADC_DelSig_2.c ****              (ADC_DelSig_2_CFG4_RESOLUTION == ADC_DelSig_2__BITS_12) )
1137:Generated_Source\PSoC5/ADC_DelSig_2.c ****             case (uint8)ADC_DelSig_2__BITS_12:
1138:Generated_Source\PSoC5/ADC_DelSig_2.c ****                 coefA = ADC_DelSig_2_1UV_COUNTS / ADC_DelSig_2_DIVISOR_2;
1139:Generated_Source\PSoC5/ADC_DelSig_2.c ****                 coefB = ADC_DelSig_2_DIVISOR_2;
1140:Generated_Source\PSoC5/ADC_DelSig_2.c ****                 break;
1141:Generated_Source\PSoC5/ADC_DelSig_2.c ****         #endif /* ADC_DelSig_2__BITS_12 */    
1142:Generated_Source\PSoC5/ADC_DelSig_2.c ****         #if( (ADC_DelSig_2_CFG1_RESOLUTION == ADC_DelSig_2__BITS_13) || \
1143:Generated_Source\PSoC5/ADC_DelSig_2.c ****              (ADC_DelSig_2_CFG2_RESOLUTION == ADC_DelSig_2__BITS_13) || \
1144:Generated_Source\PSoC5/ADC_DelSig_2.c ****              (ADC_DelSig_2_CFG3_RESOLUTION == ADC_DelSig_2__BITS_13) || \
1145:Generated_Source\PSoC5/ADC_DelSig_2.c ****              (ADC_DelSig_2_CFG4_RESOLUTION == ADC_DelSig_2__BITS_13) )
1146:Generated_Source\PSoC5/ADC_DelSig_2.c ****             case (uint8)ADC_DelSig_2__BITS_13:
1147:Generated_Source\PSoC5/ADC_DelSig_2.c ****                 coefA = ADC_DelSig_2_1UV_COUNTS / ADC_DelSig_2_DIVISOR_4;
1148:Generated_Source\PSoC5/ADC_DelSig_2.c ****                 coefB = ADC_DelSig_2_DIVISOR_4;
1149:Generated_Source\PSoC5/ADC_DelSig_2.c ****                 break;
1150:Generated_Source\PSoC5/ADC_DelSig_2.c ****         #endif /* ADC_DelSig_2__BITS_13 */    
1151:Generated_Source\PSoC5/ADC_DelSig_2.c ****         #if( (ADC_DelSig_2_CFG1_RESOLUTION == ADC_DelSig_2__BITS_14) || \
1152:Generated_Source\PSoC5/ADC_DelSig_2.c ****              (ADC_DelSig_2_CFG2_RESOLUTION == ADC_DelSig_2__BITS_14) || \
1153:Generated_Source\PSoC5/ADC_DelSig_2.c ****              (ADC_DelSig_2_CFG3_RESOLUTION == ADC_DelSig_2__BITS_14) || \
1154:Generated_Source\PSoC5/ADC_DelSig_2.c ****              (ADC_DelSig_2_CFG4_RESOLUTION == ADC_DelSig_2__BITS_14) )
1155:Generated_Source\PSoC5/ADC_DelSig_2.c ****             case (uint8)ADC_DelSig_2__BITS_14:
1156:Generated_Source\PSoC5/ADC_DelSig_2.c ****                 coefA = ADC_DelSig_2_1UV_COUNTS / ADC_DelSig_2_DIVISOR_8;
1157:Generated_Source\PSoC5/ADC_DelSig_2.c ****                 coefB = ADC_DelSig_2_DIVISOR_8;
1158:Generated_Source\PSoC5/ADC_DelSig_2.c ****                 break;
1159:Generated_Source\PSoC5/ADC_DelSig_2.c ****         #endif /* ADC_DelSig_2__BITS_14 */    
1160:Generated_Source\PSoC5/ADC_DelSig_2.c ****         #if( (ADC_DelSig_2_CFG1_RESOLUTION == ADC_DelSig_2__BITS_15) || \
1161:Generated_Source\PSoC5/ADC_DelSig_2.c ****              (ADC_DelSig_2_CFG2_RESOLUTION == ADC_DelSig_2__BITS_15) || \
1162:Generated_Source\PSoC5/ADC_DelSig_2.c ****              (ADC_DelSig_2_CFG3_RESOLUTION == ADC_DelSig_2__BITS_15) || \
1163:Generated_Source\PSoC5/ADC_DelSig_2.c ****              (ADC_DelSig_2_CFG4_RESOLUTION == ADC_DelSig_2__BITS_15) )
1164:Generated_Source\PSoC5/ADC_DelSig_2.c ****             case (uint8)ADC_DelSig_2__BITS_15:
1165:Generated_Source\PSoC5/ADC_DelSig_2.c ****                 coefA = ADC_DelSig_2_1UV_COUNTS / ADC_DelSig_2_DIVISOR_16;
1166:Generated_Source\PSoC5/ADC_DelSig_2.c ****                 coefB = ADC_DelSig_2_DIVISOR_16;
1167:Generated_Source\PSoC5/ADC_DelSig_2.c ****                 break;
1168:Generated_Source\PSoC5/ADC_DelSig_2.c ****         #endif /* ADC_DelSig_2__BITS_15 */    
1169:Generated_Source\PSoC5/ADC_DelSig_2.c ****         #if( (ADC_DelSig_2_CFG1_RESOLUTION == ADC_DelSig_2__BITS_16) || \
1170:Generated_Source\PSoC5/ADC_DelSig_2.c ****              (ADC_DelSig_2_CFG2_RESOLUTION == ADC_DelSig_2__BITS_16) || \
1171:Generated_Source\PSoC5/ADC_DelSig_2.c ****              (ADC_DelSig_2_CFG3_RESOLUTION == ADC_DelSig_2__BITS_16) || \
ARM GAS  C:\Users\vboxuser\AppData\Local\Temp\ccKqkYuE.s 			page 22


1172:Generated_Source\PSoC5/ADC_DelSig_2.c ****              (ADC_DelSig_2_CFG4_RESOLUTION == ADC_DelSig_2__BITS_16) )
1173:Generated_Source\PSoC5/ADC_DelSig_2.c ****             case (uint8)ADC_DelSig_2__BITS_16:
1174:Generated_Source\PSoC5/ADC_DelSig_2.c ****                 coefA = ADC_DelSig_2_1UV_COUNTS / ADC_DelSig_2_DIVISOR_32;
1175:Generated_Source\PSoC5/ADC_DelSig_2.c ****                 coefB = ADC_DelSig_2_DIVISOR_32;
1176:Generated_Source\PSoC5/ADC_DelSig_2.c ****                 break;
1177:Generated_Source\PSoC5/ADC_DelSig_2.c ****         #endif /* ADC_DelSig_2__BITS_16 */    
1178:Generated_Source\PSoC5/ADC_DelSig_2.c ****         #if( (ADC_DelSig_2_CFG1_RESOLUTION == ADC_DelSig_2__BITS_17) || \
1179:Generated_Source\PSoC5/ADC_DelSig_2.c ****              (ADC_DelSig_2_CFG2_RESOLUTION == ADC_DelSig_2__BITS_17) || \
1180:Generated_Source\PSoC5/ADC_DelSig_2.c ****              (ADC_DelSig_2_CFG3_RESOLUTION == ADC_DelSig_2__BITS_17) || \
1181:Generated_Source\PSoC5/ADC_DelSig_2.c ****              (ADC_DelSig_2_CFG4_RESOLUTION == ADC_DelSig_2__BITS_17) )
1182:Generated_Source\PSoC5/ADC_DelSig_2.c ****             case (uint8)ADC_DelSig_2__BITS_17:
1183:Generated_Source\PSoC5/ADC_DelSig_2.c ****                 coefA = ADC_DelSig_2_1UV_COUNTS / ADC_DelSig_2_DIVISOR_64;
1184:Generated_Source\PSoC5/ADC_DelSig_2.c ****                 coefB = ADC_DelSig_2_DIVISOR_64;
1185:Generated_Source\PSoC5/ADC_DelSig_2.c ****                 break;
1186:Generated_Source\PSoC5/ADC_DelSig_2.c ****         #endif /* ADC_DelSig_2__BITS_17 */    
1187:Generated_Source\PSoC5/ADC_DelSig_2.c ****         #if( (ADC_DelSig_2_CFG1_RESOLUTION == ADC_DelSig_2__BITS_18) || \
1188:Generated_Source\PSoC5/ADC_DelSig_2.c ****              (ADC_DelSig_2_CFG2_RESOLUTION == ADC_DelSig_2__BITS_18) || \
1189:Generated_Source\PSoC5/ADC_DelSig_2.c ****              (ADC_DelSig_2_CFG3_RESOLUTION == ADC_DelSig_2__BITS_18) || \
1190:Generated_Source\PSoC5/ADC_DelSig_2.c ****              (ADC_DelSig_2_CFG4_RESOLUTION == ADC_DelSig_2__BITS_18) )
1191:Generated_Source\PSoC5/ADC_DelSig_2.c ****             case (uint8)ADC_DelSig_2__BITS_18:
1192:Generated_Source\PSoC5/ADC_DelSig_2.c ****                 coefA = ADC_DelSig_2_1UV_COUNTS / ADC_DelSig_2_DIVISOR_125;
1193:Generated_Source\PSoC5/ADC_DelSig_2.c ****                 coefB = ADC_DelSig_2_DIVISOR_125;
1194:Generated_Source\PSoC5/ADC_DelSig_2.c ****                 break;
1195:Generated_Source\PSoC5/ADC_DelSig_2.c ****         #endif /* ADC_DelSig_2__BITS_18 */    
1196:Generated_Source\PSoC5/ADC_DelSig_2.c ****         #if( (ADC_DelSig_2_CFG1_RESOLUTION == ADC_DelSig_2__BITS_19) || \
1197:Generated_Source\PSoC5/ADC_DelSig_2.c ****              (ADC_DelSig_2_CFG2_RESOLUTION == ADC_DelSig_2__BITS_19) || \
1198:Generated_Source\PSoC5/ADC_DelSig_2.c ****              (ADC_DelSig_2_CFG3_RESOLUTION == ADC_DelSig_2__BITS_19) || \
1199:Generated_Source\PSoC5/ADC_DelSig_2.c ****              (ADC_DelSig_2_CFG4_RESOLUTION == ADC_DelSig_2__BITS_19) )
1200:Generated_Source\PSoC5/ADC_DelSig_2.c ****             case (uint8)ADC_DelSig_2__BITS_19:
1201:Generated_Source\PSoC5/ADC_DelSig_2.c ****                 coefA = ADC_DelSig_2_1UV_COUNTS / ADC_DelSig_2_DIVISOR_250;
1202:Generated_Source\PSoC5/ADC_DelSig_2.c ****                 coefB = ADC_DelSig_2_DIVISOR_250;
1203:Generated_Source\PSoC5/ADC_DelSig_2.c ****                 break;
1204:Generated_Source\PSoC5/ADC_DelSig_2.c ****         #endif /* ADC_DelSig_2__BITS_19 */    
1205:Generated_Source\PSoC5/ADC_DelSig_2.c ****         #if( (ADC_DelSig_2_CFG1_RESOLUTION == ADC_DelSig_2__BITS_20) || \
1206:Generated_Source\PSoC5/ADC_DelSig_2.c ****              (ADC_DelSig_2_CFG2_RESOLUTION == ADC_DelSig_2__BITS_20) || \
1207:Generated_Source\PSoC5/ADC_DelSig_2.c ****              (ADC_DelSig_2_CFG3_RESOLUTION == ADC_DelSig_2__BITS_20) || \
1208:Generated_Source\PSoC5/ADC_DelSig_2.c ****              (ADC_DelSig_2_CFG4_RESOLUTION == ADC_DelSig_2__BITS_20) )
1209:Generated_Source\PSoC5/ADC_DelSig_2.c ****             case (uint8)ADC_DelSig_2__BITS_20:
1210:Generated_Source\PSoC5/ADC_DelSig_2.c ****                 coefA = ADC_DelSig_2_1UV_COUNTS / ADC_DelSig_2_DIVISOR_500;
1211:Generated_Source\PSoC5/ADC_DelSig_2.c ****                 coefB = ADC_DelSig_2_DIVISOR_500;
1212:Generated_Source\PSoC5/ADC_DelSig_2.c ****                 break;
1213:Generated_Source\PSoC5/ADC_DelSig_2.c ****         #endif /* ADC_DelSig_2__BITS_20 */    
1214:Generated_Source\PSoC5/ADC_DelSig_2.c ****         default:    /* resolution < 12 */
1215:Generated_Source\PSoC5/ADC_DelSig_2.c ****             /* 11 bits ADC + 2^20(1048576) = 31 bits */
1216:Generated_Source\PSoC5/ADC_DelSig_2.c ****             coefA = ADC_DelSig_2_1UV_COUNTS;
1217:Generated_Source\PSoC5/ADC_DelSig_2.c ****             coefB = ADC_DelSig_2_DIVISOR_1;
1218:Generated_Source\PSoC5/ADC_DelSig_2.c ****             break;
1219:Generated_Source\PSoC5/ADC_DelSig_2.c ****     }
1220:Generated_Source\PSoC5/ADC_DelSig_2.c ****     coefB = ADC_DelSig_2_CountsPerVolt / coefB;
1221:Generated_Source\PSoC5/ADC_DelSig_2.c ****     uVolts = ((coefA * adcCounts) / coefB) - ((coefA * ADC_DelSig_2_Offset) / coefB);
1222:Generated_Source\PSoC5/ADC_DelSig_2.c **** 
1223:Generated_Source\PSoC5/ADC_DelSig_2.c ****     return( uVolts );
1224:Generated_Source\PSoC5/ADC_DelSig_2.c **** }
1225:Generated_Source\PSoC5/ADC_DelSig_2.c **** 
1226:Generated_Source\PSoC5/ADC_DelSig_2.c **** 
1227:Generated_Source\PSoC5/ADC_DelSig_2.c **** /*******************************************************************************
1228:Generated_Source\PSoC5/ADC_DelSig_2.c **** * Function Name: ADC_DelSig_2_InitConfig(uint8 config)
ARM GAS  C:\Users\vboxuser\AppData\Local\Temp\ccKqkYuE.s 			page 23


1229:Generated_Source\PSoC5/ADC_DelSig_2.c **** ********************************************************************************
1230:Generated_Source\PSoC5/ADC_DelSig_2.c **** *
1231:Generated_Source\PSoC5/ADC_DelSig_2.c **** * Summary:
1232:Generated_Source\PSoC5/ADC_DelSig_2.c **** *  Initializes all registers based on customizer settings
1233:Generated_Source\PSoC5/ADC_DelSig_2.c **** *
1234:Generated_Source\PSoC5/ADC_DelSig_2.c **** * Parameters:
1235:Generated_Source\PSoC5/ADC_DelSig_2.c **** *   void
1236:Generated_Source\PSoC5/ADC_DelSig_2.c **** *
1237:Generated_Source\PSoC5/ADC_DelSig_2.c **** * Return:
1238:Generated_Source\PSoC5/ADC_DelSig_2.c **** *  None
1239:Generated_Source\PSoC5/ADC_DelSig_2.c **** *
1240:Generated_Source\PSoC5/ADC_DelSig_2.c **** * Global variables:
1241:Generated_Source\PSoC5/ADC_DelSig_2.c **** *  ADC_DelSig_2_CountsPerVolt:  Used to set the default counts per volt.
1242:Generated_Source\PSoC5/ADC_DelSig_2.c **** *
1243:Generated_Source\PSoC5/ADC_DelSig_2.c **** * Side Effects: Rewrites the coherency set by ADC_DelSig_2_SetCoherency()
1244:Generated_Source\PSoC5/ADC_DelSig_2.c **** *   API to the default value.
1245:Generated_Source\PSoC5/ADC_DelSig_2.c **** *
1246:Generated_Source\PSoC5/ADC_DelSig_2.c **** *******************************************************************************/
1247:Generated_Source\PSoC5/ADC_DelSig_2.c **** static void ADC_DelSig_2_InitConfig(uint8 config) 
1248:Generated_Source\PSoC5/ADC_DelSig_2.c **** {
1249:Generated_Source\PSoC5/ADC_DelSig_2.c ****     ADC_DelSig_2_stopConversion = 0u;
1250:Generated_Source\PSoC5/ADC_DelSig_2.c **** 
1251:Generated_Source\PSoC5/ADC_DelSig_2.c ****     if (config == 1u)
1252:Generated_Source\PSoC5/ADC_DelSig_2.c ****     {
1253:Generated_Source\PSoC5/ADC_DelSig_2.c ****         /* Default Config */
1254:Generated_Source\PSoC5/ADC_DelSig_2.c ****         ADC_DelSig_2_DEC_CR_REG      = ADC_DelSig_2_CFG1_DEC_CR;
1255:Generated_Source\PSoC5/ADC_DelSig_2.c ****         ADC_DelSig_2_DEC_SHIFT1_REG  = ADC_DelSig_2_CFG1_DEC_SHIFT1;
1256:Generated_Source\PSoC5/ADC_DelSig_2.c ****         ADC_DelSig_2_DEC_SHIFT2_REG  = ADC_DelSig_2_CFG1_DEC_SHIFT2;
1257:Generated_Source\PSoC5/ADC_DelSig_2.c ****         ADC_DelSig_2_DEC_DR2_REG     = ADC_DelSig_2_CFG1_DEC_DR2;
1258:Generated_Source\PSoC5/ADC_DelSig_2.c ****         ADC_DelSig_2_DEC_DR2H_REG    = ADC_DelSig_2_CFG1_DEC_DR2H;
1259:Generated_Source\PSoC5/ADC_DelSig_2.c ****         ADC_DelSig_2_DEC_DR1_REG     = ADC_DelSig_2_CFG1_DEC_DR1;
1260:Generated_Source\PSoC5/ADC_DelSig_2.c ****         ADC_DelSig_2_DEC_OCOR_REG    = ADC_DelSig_2_CFG1_DEC_OCOR;
1261:Generated_Source\PSoC5/ADC_DelSig_2.c ****         ADC_DelSig_2_DEC_OCORM_REG   = ADC_DelSig_2_CFG1_DEC_OCORM;
1262:Generated_Source\PSoC5/ADC_DelSig_2.c ****         ADC_DelSig_2_DEC_OCORH_REG   = ADC_DelSig_2_CFG1_DEC_OCORH;
1263:Generated_Source\PSoC5/ADC_DelSig_2.c ****         ADC_DelSig_2_DEC_COHER_REG   = ADC_DelSig_2_CFG1_DEC_COHER;
1264:Generated_Source\PSoC5/ADC_DelSig_2.c **** 
1265:Generated_Source\PSoC5/ADC_DelSig_2.c ****         ADC_DelSig_2_DSM_CR4_REG     = ADC_DelSig_2_CFG1_DSM_CR4;
1266:Generated_Source\PSoC5/ADC_DelSig_2.c ****         ADC_DelSig_2_DSM_CR5_REG     = ADC_DelSig_2_CFG1_DSM_CR5;
1267:Generated_Source\PSoC5/ADC_DelSig_2.c ****         ADC_DelSig_2_DSM_CR6_REG     = ADC_DelSig_2_CFG1_DSM_CR6;
1268:Generated_Source\PSoC5/ADC_DelSig_2.c ****         ADC_DelSig_2_DSM_CR7_REG     = ADC_DelSig_2_CFG1_DSM_CR7;
1269:Generated_Source\PSoC5/ADC_DelSig_2.c ****         ADC_DelSig_2_DSM_CR10_REG    = ADC_DelSig_2_CFG1_DSM_CR10;
1270:Generated_Source\PSoC5/ADC_DelSig_2.c ****         ADC_DelSig_2_DSM_CR11_REG    = ADC_DelSig_2_CFG1_DSM_CR11;
1271:Generated_Source\PSoC5/ADC_DelSig_2.c ****         ADC_DelSig_2_DSM_CR12_REG    = ADC_DelSig_2_CFG1_DSM_CR12;
1272:Generated_Source\PSoC5/ADC_DelSig_2.c ****         ADC_DelSig_2_DSM_CR14_REG    = ADC_DelSig_2_CFG1_DSM_CR14;
1273:Generated_Source\PSoC5/ADC_DelSig_2.c ****         ADC_DelSig_2_DSM_CR15_REG    = ADC_DelSig_2_CFG1_DSM_CR15;
1274:Generated_Source\PSoC5/ADC_DelSig_2.c ****         ADC_DelSig_2_DSM_CR16_REG    = ADC_DelSig_2_CFG1_DSM_CR16;
1275:Generated_Source\PSoC5/ADC_DelSig_2.c ****         ADC_DelSig_2_DSM_CR17_REG    = ADC_DelSig_2_CFG1_DSM_CR17;
1276:Generated_Source\PSoC5/ADC_DelSig_2.c ****         /* Set DSM_REF0_REG by disabling and enabling the PRESS circuit */
1277:Generated_Source\PSoC5/ADC_DelSig_2.c ****         ADC_DelSig_2_SetDSMRef0Reg(ADC_DelSig_2_CFG1_DSM_REF0);
1278:Generated_Source\PSoC5/ADC_DelSig_2.c ****         ADC_DelSig_2_DSM_REF2_REG    = ADC_DelSig_2_CFG1_DSM_REF2;
1279:Generated_Source\PSoC5/ADC_DelSig_2.c ****         ADC_DelSig_2_DSM_REF3_REG    = ADC_DelSig_2_CFG1_DSM_REF3;
1280:Generated_Source\PSoC5/ADC_DelSig_2.c **** 
1281:Generated_Source\PSoC5/ADC_DelSig_2.c ****         ADC_DelSig_2_DSM_BUF0_REG    = ADC_DelSig_2_CFG1_DSM_BUF0;
1282:Generated_Source\PSoC5/ADC_DelSig_2.c ****         ADC_DelSig_2_DSM_BUF1_REG    = ADC_DelSig_2_CFG1_DSM_BUF1;
1283:Generated_Source\PSoC5/ADC_DelSig_2.c ****         ADC_DelSig_2_DSM_BUF2_REG    = ADC_DelSig_2_CFG1_DSM_BUF2;
1284:Generated_Source\PSoC5/ADC_DelSig_2.c ****         ADC_DelSig_2_DSM_BUF3_REG    = ADC_DelSig_2_CFG1_DSM_BUF3;
1285:Generated_Source\PSoC5/ADC_DelSig_2.c **** 
ARM GAS  C:\Users\vboxuser\AppData\Local\Temp\ccKqkYuE.s 			page 24


1286:Generated_Source\PSoC5/ADC_DelSig_2.c ****         /* To select either Vssa or Vref to -ve input of DSM depending on
1287:Generated_Source\PSoC5/ADC_DelSig_2.c ****         *  the input  range selected.
1288:Generated_Source\PSoC5/ADC_DelSig_2.c ****         */
1289:Generated_Source\PSoC5/ADC_DelSig_2.c ****         #if(ADC_DelSig_2_DEFAULT_INPUT_MODE)
1290:Generated_Source\PSoC5/ADC_DelSig_2.c ****             #if (ADC_DelSig_2_CFG1_INPUT_RANGE == ADC_DelSig_2_IR_VSSA_TO_2VREF)
1291:Generated_Source\PSoC5/ADC_DelSig_2.c ****                 ADC_DelSig_2_AMux_Select(1u);
1292:Generated_Source\PSoC5/ADC_DelSig_2.c ****             #else
1293:Generated_Source\PSoC5/ADC_DelSig_2.c ****                 ADC_DelSig_2_AMux_Select(0u);
1294:Generated_Source\PSoC5/ADC_DelSig_2.c ****             #endif /* ADC_DelSig_2_IR_VSSA_TO_2VREF) */
1295:Generated_Source\PSoC5/ADC_DelSig_2.c ****         #endif /* ADC_DelSig_2_DEFAULT_INPUT_MODE */
1296:Generated_Source\PSoC5/ADC_DelSig_2.c **** 
1297:Generated_Source\PSoC5/ADC_DelSig_2.c ****         /* Set the Conversion stop if resolution is above 16 bit and conversion
1298:Generated_Source\PSoC5/ADC_DelSig_2.c ****         *   mode is Single sample
1299:Generated_Source\PSoC5/ADC_DelSig_2.c ****         */
1300:Generated_Source\PSoC5/ADC_DelSig_2.c ****         #if(ADC_DelSig_2_CFG1_RESOLUTION > 16 && \
1301:Generated_Source\PSoC5/ADC_DelSig_2.c ****             ADC_DelSig_2_CFG1_CONV_MODE == ADC_DelSig_2_MODE_SINGLE_SAMPLE)
1302:Generated_Source\PSoC5/ADC_DelSig_2.c ****             ADC_DelSig_2_stopConversion = 1u;
1303:Generated_Source\PSoC5/ADC_DelSig_2.c ****         #endif /* Single sample with resolution above 16 bits. */
1304:Generated_Source\PSoC5/ADC_DelSig_2.c **** 
1305:Generated_Source\PSoC5/ADC_DelSig_2.c ****         ADC_DelSig_2_CountsPerVolt = (int32)ADC_DelSig_2_CFG1_COUNTS_PER_VOLT;
1306:Generated_Source\PSoC5/ADC_DelSig_2.c **** 
1307:Generated_Source\PSoC5/ADC_DelSig_2.c ****         ADC_DelSig_2_Ext_CP_Clk_SetDividerRegister(ADC_DelSig_2_CFG1_CP_CLK_DIVIDER, 1u);
1308:Generated_Source\PSoC5/ADC_DelSig_2.c **** 
1309:Generated_Source\PSoC5/ADC_DelSig_2.c ****         /* This is only valid if there is an internal clock */
1310:Generated_Source\PSoC5/ADC_DelSig_2.c ****         #if(ADC_DelSig_2_DEFAULT_INTERNAL_CLK)
1311:Generated_Source\PSoC5/ADC_DelSig_2.c ****             ADC_DelSig_2_theACLK_SetDividerRegister(ADC_DelSig_2_CFG1_ADC_CLK_DIVIDER, 1u);
1312:Generated_Source\PSoC5/ADC_DelSig_2.c ****         #endif /* ADC_DelSig_2_DEFAULT_INTERNAL_CLK */
1313:Generated_Source\PSoC5/ADC_DelSig_2.c **** 
1314:Generated_Source\PSoC5/ADC_DelSig_2.c ****         #if(ADC_DelSig_2_IRQ_REMOVE == 0u)
1315:Generated_Source\PSoC5/ADC_DelSig_2.c ****             /* Set interrupt vector */
1316:Generated_Source\PSoC5/ADC_DelSig_2.c ****             (void)CyIntSetVector(ADC_DelSig_2_INTC_NUMBER, &ADC_DelSig_2_ISR1);
1317:Generated_Source\PSoC5/ADC_DelSig_2.c ****         #endif   /* End ADC_DelSig_2_IRQ_REMOVE */
1318:Generated_Source\PSoC5/ADC_DelSig_2.c ****     }
1319:Generated_Source\PSoC5/ADC_DelSig_2.c **** 
1320:Generated_Source\PSoC5/ADC_DelSig_2.c ****     #if(ADC_DelSig_2_DEFAULT_NUM_CONFIGS > 1)
1321:Generated_Source\PSoC5/ADC_DelSig_2.c ****         if(config == 2u)
1322:Generated_Source\PSoC5/ADC_DelSig_2.c ****         {
1323:Generated_Source\PSoC5/ADC_DelSig_2.c ****             /* Second Config */
1324:Generated_Source\PSoC5/ADC_DelSig_2.c ****             ADC_DelSig_2_DEC_CR_REG      = ADC_DelSig_2_CFG2_DEC_CR;
1325:Generated_Source\PSoC5/ADC_DelSig_2.c ****             ADC_DelSig_2_DEC_SHIFT1_REG  = ADC_DelSig_2_CFG2_DEC_SHIFT1;
1326:Generated_Source\PSoC5/ADC_DelSig_2.c ****             ADC_DelSig_2_DEC_SHIFT2_REG  = ADC_DelSig_2_CFG2_DEC_SHIFT2;
1327:Generated_Source\PSoC5/ADC_DelSig_2.c ****             ADC_DelSig_2_DEC_DR2_REG     = ADC_DelSig_2_CFG2_DEC_DR2;
1328:Generated_Source\PSoC5/ADC_DelSig_2.c ****             ADC_DelSig_2_DEC_DR2H_REG    = ADC_DelSig_2_CFG2_DEC_DR2H;
1329:Generated_Source\PSoC5/ADC_DelSig_2.c ****             ADC_DelSig_2_DEC_DR1_REG     = ADC_DelSig_2_CFG2_DEC_DR1;
1330:Generated_Source\PSoC5/ADC_DelSig_2.c ****             ADC_DelSig_2_DEC_OCOR_REG    = ADC_DelSig_2_CFG2_DEC_OCOR;
1331:Generated_Source\PSoC5/ADC_DelSig_2.c ****             ADC_DelSig_2_DEC_OCORM_REG   = ADC_DelSig_2_CFG2_DEC_OCORM;
1332:Generated_Source\PSoC5/ADC_DelSig_2.c ****             ADC_DelSig_2_DEC_OCORH_REG   = ADC_DelSig_2_CFG2_DEC_OCORH;
1333:Generated_Source\PSoC5/ADC_DelSig_2.c ****             ADC_DelSig_2_DEC_COHER_REG   = ADC_DelSig_2_CFG2_DEC_COHER;
1334:Generated_Source\PSoC5/ADC_DelSig_2.c **** 
1335:Generated_Source\PSoC5/ADC_DelSig_2.c ****             ADC_DelSig_2_DSM_CR4_REG     = ADC_DelSig_2_CFG2_DSM_CR4;
1336:Generated_Source\PSoC5/ADC_DelSig_2.c ****             ADC_DelSig_2_DSM_CR5_REG     = ADC_DelSig_2_CFG2_DSM_CR5;
1337:Generated_Source\PSoC5/ADC_DelSig_2.c ****             ADC_DelSig_2_DSM_CR6_REG     = ADC_DelSig_2_CFG2_DSM_CR6;
1338:Generated_Source\PSoC5/ADC_DelSig_2.c ****             ADC_DelSig_2_DSM_CR7_REG     = ADC_DelSig_2_CFG2_DSM_CR7;
1339:Generated_Source\PSoC5/ADC_DelSig_2.c ****             ADC_DelSig_2_DSM_CR10_REG    = ADC_DelSig_2_CFG2_DSM_CR10;
1340:Generated_Source\PSoC5/ADC_DelSig_2.c ****             ADC_DelSig_2_DSM_CR11_REG    = ADC_DelSig_2_CFG2_DSM_CR11;
1341:Generated_Source\PSoC5/ADC_DelSig_2.c ****             ADC_DelSig_2_DSM_CR12_REG    = ADC_DelSig_2_CFG2_DSM_CR12;
1342:Generated_Source\PSoC5/ADC_DelSig_2.c ****             ADC_DelSig_2_DSM_CR14_REG    = ADC_DelSig_2_CFG2_DSM_CR14;
ARM GAS  C:\Users\vboxuser\AppData\Local\Temp\ccKqkYuE.s 			page 25


1343:Generated_Source\PSoC5/ADC_DelSig_2.c ****             ADC_DelSig_2_DSM_CR15_REG    = ADC_DelSig_2_CFG2_DSM_CR15;
1344:Generated_Source\PSoC5/ADC_DelSig_2.c ****             ADC_DelSig_2_DSM_CR16_REG    = ADC_DelSig_2_CFG2_DSM_CR16;
1345:Generated_Source\PSoC5/ADC_DelSig_2.c ****             ADC_DelSig_2_DSM_CR17_REG    = ADC_DelSig_2_CFG2_DSM_CR17;
1346:Generated_Source\PSoC5/ADC_DelSig_2.c ****             /* Set DSM_REF0_REG by disabling and enabling the PRESS cirucit */
1347:Generated_Source\PSoC5/ADC_DelSig_2.c ****             ADC_DelSig_2_SetDSMRef0Reg(ADC_DelSig_2_CFG2_DSM_REF0);
1348:Generated_Source\PSoC5/ADC_DelSig_2.c ****             ADC_DelSig_2_DSM_REF2_REG    = ADC_DelSig_2_CFG2_DSM_REF2;
1349:Generated_Source\PSoC5/ADC_DelSig_2.c ****             ADC_DelSig_2_DSM_REF3_REG    = ADC_DelSig_2_CFG2_DSM_REF3;
1350:Generated_Source\PSoC5/ADC_DelSig_2.c **** 
1351:Generated_Source\PSoC5/ADC_DelSig_2.c ****             ADC_DelSig_2_DSM_BUF0_REG    = ADC_DelSig_2_CFG2_DSM_BUF0;
1352:Generated_Source\PSoC5/ADC_DelSig_2.c ****             ADC_DelSig_2_DSM_BUF1_REG    = ADC_DelSig_2_CFG2_DSM_BUF1;
1353:Generated_Source\PSoC5/ADC_DelSig_2.c ****             ADC_DelSig_2_DSM_BUF2_REG    = ADC_DelSig_2_CFG2_DSM_BUF2;
1354:Generated_Source\PSoC5/ADC_DelSig_2.c ****             ADC_DelSig_2_DSM_BUF3_REG    = ADC_DelSig_2_CFG2_DSM_BUF3;
1355:Generated_Source\PSoC5/ADC_DelSig_2.c **** 
1356:Generated_Source\PSoC5/ADC_DelSig_2.c ****             /* To select either Vssa or Vref to -ve input of DSM depending on
1357:Generated_Source\PSoC5/ADC_DelSig_2.c ****             *  the input range selected.
1358:Generated_Source\PSoC5/ADC_DelSig_2.c ****             */
1359:Generated_Source\PSoC5/ADC_DelSig_2.c **** 
1360:Generated_Source\PSoC5/ADC_DelSig_2.c ****             #if(ADC_DelSig_2_DEFAULT_INPUT_MODE)
1361:Generated_Source\PSoC5/ADC_DelSig_2.c ****                 #if (ADC_DelSig_2_CFG2_INPUT_RANGE == ADC_DelSig_2_IR_VSSA_TO_2VREF)
1362:Generated_Source\PSoC5/ADC_DelSig_2.c ****                     ADC_DelSig_2_AMux_Select(1u);
1363:Generated_Source\PSoC5/ADC_DelSig_2.c ****                 #else
1364:Generated_Source\PSoC5/ADC_DelSig_2.c ****                     ADC_DelSig_2_AMux_Select(0u);
1365:Generated_Source\PSoC5/ADC_DelSig_2.c ****                 #endif /* ADC_DelSig_2_IR_VSSA_TO_2VREF) */
1366:Generated_Source\PSoC5/ADC_DelSig_2.c ****             #endif /* ADC_DelSig_2_DEFAULT_INPUT_MODE */
1367:Generated_Source\PSoC5/ADC_DelSig_2.c **** 
1368:Generated_Source\PSoC5/ADC_DelSig_2.c ****             /* Set the Conversion stop if resolution is above 16 bit and
1369:Generated_Source\PSoC5/ADC_DelSig_2.c ****             *   conversion mode is Single sample
1370:Generated_Source\PSoC5/ADC_DelSig_2.c ****             */
1371:Generated_Source\PSoC5/ADC_DelSig_2.c ****             #if(ADC_DelSig_2_CFG2_RESOLUTION > 16 && \
1372:Generated_Source\PSoC5/ADC_DelSig_2.c ****                 ADC_DelSig_2_CFG2_CONV_MODE == ADC_DelSig_2_MODE_SINGLE_SAMPLE)
1373:Generated_Source\PSoC5/ADC_DelSig_2.c ****                 ADC_DelSig_2_stopConversion = 1u;
1374:Generated_Source\PSoC5/ADC_DelSig_2.c ****             #endif /* Single sample with resolution above 16 bits. */
1375:Generated_Source\PSoC5/ADC_DelSig_2.c **** 
1376:Generated_Source\PSoC5/ADC_DelSig_2.c ****             ADC_DelSig_2_CountsPerVolt = (int32)ADC_DelSig_2_CFG2_COUNTS_PER_VOLT;
1377:Generated_Source\PSoC5/ADC_DelSig_2.c **** 
1378:Generated_Source\PSoC5/ADC_DelSig_2.c ****             ADC_DelSig_2_Ext_CP_Clk_SetDividerRegister(ADC_DelSig_2_CFG2_CP_CLK_DIVIDER, 1u);
1379:Generated_Source\PSoC5/ADC_DelSig_2.c **** 
1380:Generated_Source\PSoC5/ADC_DelSig_2.c ****             /* This is only valid if there is an internal clock */
1381:Generated_Source\PSoC5/ADC_DelSig_2.c ****             #if(ADC_DelSig_2_DEFAULT_INTERNAL_CLK)
1382:Generated_Source\PSoC5/ADC_DelSig_2.c ****                 ADC_DelSig_2_theACLK_SetDividerRegister(ADC_DelSig_2_CFG2_ADC_CLK_DIVIDER, 1u);
1383:Generated_Source\PSoC5/ADC_DelSig_2.c ****             #endif /* ADC_DelSig_2_DEFAULT_INTERNAL_CLK */
1384:Generated_Source\PSoC5/ADC_DelSig_2.c **** 
1385:Generated_Source\PSoC5/ADC_DelSig_2.c ****             #if(ADC_DelSig_2_IRQ_REMOVE == 0u)
1386:Generated_Source\PSoC5/ADC_DelSig_2.c ****                 /* Set interrupt vector */
1387:Generated_Source\PSoC5/ADC_DelSig_2.c ****                 (void)CyIntSetVector(ADC_DelSig_2_INTC_NUMBER, &ADC_DelSig_2_ISR2);
1388:Generated_Source\PSoC5/ADC_DelSig_2.c ****             #endif   /* End ADC_DelSig_2_IRQ_REMOVE */
1389:Generated_Source\PSoC5/ADC_DelSig_2.c ****         }
1390:Generated_Source\PSoC5/ADC_DelSig_2.c ****     #endif /* ADC_DelSig_2_DEFAULT_NUM_CONFIGS > 1 */
1391:Generated_Source\PSoC5/ADC_DelSig_2.c **** 
1392:Generated_Source\PSoC5/ADC_DelSig_2.c ****     #if(ADC_DelSig_2_DEFAULT_NUM_CONFIGS > 2)
1393:Generated_Source\PSoC5/ADC_DelSig_2.c ****         if(config == 3u)
1394:Generated_Source\PSoC5/ADC_DelSig_2.c ****         {
1395:Generated_Source\PSoC5/ADC_DelSig_2.c ****             /* Third Config */
1396:Generated_Source\PSoC5/ADC_DelSig_2.c ****             ADC_DelSig_2_DEC_CR_REG      = ADC_DelSig_2_CFG3_DEC_CR;
1397:Generated_Source\PSoC5/ADC_DelSig_2.c ****             ADC_DelSig_2_DEC_SHIFT1_REG  = ADC_DelSig_2_CFG3_DEC_SHIFT1;
1398:Generated_Source\PSoC5/ADC_DelSig_2.c ****             ADC_DelSig_2_DEC_SHIFT2_REG  = ADC_DelSig_2_CFG3_DEC_SHIFT2;
1399:Generated_Source\PSoC5/ADC_DelSig_2.c ****             ADC_DelSig_2_DEC_DR2_REG     = ADC_DelSig_2_CFG3_DEC_DR2;
ARM GAS  C:\Users\vboxuser\AppData\Local\Temp\ccKqkYuE.s 			page 26


1400:Generated_Source\PSoC5/ADC_DelSig_2.c ****             ADC_DelSig_2_DEC_DR2H_REG    = ADC_DelSig_2_CFG3_DEC_DR2H;
1401:Generated_Source\PSoC5/ADC_DelSig_2.c ****             ADC_DelSig_2_DEC_DR1_REG     = ADC_DelSig_2_CFG3_DEC_DR1;
1402:Generated_Source\PSoC5/ADC_DelSig_2.c ****             ADC_DelSig_2_DEC_OCOR_REG    = ADC_DelSig_2_CFG3_DEC_OCOR;
1403:Generated_Source\PSoC5/ADC_DelSig_2.c ****             ADC_DelSig_2_DEC_OCORM_REG   = ADC_DelSig_2_CFG3_DEC_OCORM;
1404:Generated_Source\PSoC5/ADC_DelSig_2.c ****             ADC_DelSig_2_DEC_OCORH_REG   = ADC_DelSig_2_CFG3_DEC_OCORH;
1405:Generated_Source\PSoC5/ADC_DelSig_2.c ****             ADC_DelSig_2_DEC_COHER_REG   = ADC_DelSig_2_CFG3_DEC_COHER;
1406:Generated_Source\PSoC5/ADC_DelSig_2.c **** 
1407:Generated_Source\PSoC5/ADC_DelSig_2.c ****             ADC_DelSig_2_DSM_CR4_REG     = ADC_DelSig_2_CFG3_DSM_CR4;
1408:Generated_Source\PSoC5/ADC_DelSig_2.c ****             ADC_DelSig_2_DSM_CR5_REG     = ADC_DelSig_2_CFG3_DSM_CR5;
1409:Generated_Source\PSoC5/ADC_DelSig_2.c ****             ADC_DelSig_2_DSM_CR6_REG     = ADC_DelSig_2_CFG3_DSM_CR6;
1410:Generated_Source\PSoC5/ADC_DelSig_2.c ****             ADC_DelSig_2_DSM_CR7_REG     = ADC_DelSig_2_CFG3_DSM_CR7;
1411:Generated_Source\PSoC5/ADC_DelSig_2.c ****             ADC_DelSig_2_DSM_CR10_REG    = ADC_DelSig_2_CFG3_DSM_CR10;
1412:Generated_Source\PSoC5/ADC_DelSig_2.c ****             ADC_DelSig_2_DSM_CR11_REG    = ADC_DelSig_2_CFG3_DSM_CR11;
1413:Generated_Source\PSoC5/ADC_DelSig_2.c ****             ADC_DelSig_2_DSM_CR12_REG    = ADC_DelSig_2_CFG3_DSM_CR12;
1414:Generated_Source\PSoC5/ADC_DelSig_2.c ****             ADC_DelSig_2_DSM_CR14_REG    = ADC_DelSig_2_CFG3_DSM_CR14;
1415:Generated_Source\PSoC5/ADC_DelSig_2.c ****             ADC_DelSig_2_DSM_CR15_REG    = ADC_DelSig_2_CFG3_DSM_CR15;
1416:Generated_Source\PSoC5/ADC_DelSig_2.c ****             ADC_DelSig_2_DSM_CR16_REG    = ADC_DelSig_2_CFG3_DSM_CR16;
1417:Generated_Source\PSoC5/ADC_DelSig_2.c ****             ADC_DelSig_2_DSM_CR17_REG    = ADC_DelSig_2_CFG3_DSM_CR17;
1418:Generated_Source\PSoC5/ADC_DelSig_2.c ****             /* Set DSM_REF0_REG by disabling and enabling the PRESS circuit */
1419:Generated_Source\PSoC5/ADC_DelSig_2.c ****             ADC_DelSig_2_SetDSMRef0Reg(ADC_DelSig_2_CFG3_DSM_REF0);
1420:Generated_Source\PSoC5/ADC_DelSig_2.c ****             ADC_DelSig_2_DSM_REF2_REG    = ADC_DelSig_2_CFG3_DSM_REF2;
1421:Generated_Source\PSoC5/ADC_DelSig_2.c ****             ADC_DelSig_2_DSM_REF3_REG    = ADC_DelSig_2_CFG3_DSM_REF3;
1422:Generated_Source\PSoC5/ADC_DelSig_2.c **** 
1423:Generated_Source\PSoC5/ADC_DelSig_2.c ****             ADC_DelSig_2_DSM_BUF0_REG    = ADC_DelSig_2_CFG3_DSM_BUF0;
1424:Generated_Source\PSoC5/ADC_DelSig_2.c ****             ADC_DelSig_2_DSM_BUF1_REG    = ADC_DelSig_2_CFG3_DSM_BUF1;
1425:Generated_Source\PSoC5/ADC_DelSig_2.c ****             ADC_DelSig_2_DSM_BUF2_REG    = ADC_DelSig_2_CFG3_DSM_BUF2;
1426:Generated_Source\PSoC5/ADC_DelSig_2.c ****             ADC_DelSig_2_DSM_BUF3_REG    = ADC_DelSig_2_CFG3_DSM_BUF3;
1427:Generated_Source\PSoC5/ADC_DelSig_2.c **** 
1428:Generated_Source\PSoC5/ADC_DelSig_2.c ****             /* To select either Vssa or Vref to -ve input of DSM depending on
1429:Generated_Source\PSoC5/ADC_DelSig_2.c ****             *  the input range selected.
1430:Generated_Source\PSoC5/ADC_DelSig_2.c ****             */
1431:Generated_Source\PSoC5/ADC_DelSig_2.c ****             #if(ADC_DelSig_2_DEFAULT_INPUT_MODE)
1432:Generated_Source\PSoC5/ADC_DelSig_2.c ****                 #if (ADC_DelSig_2_CFG3_INPUT_RANGE == ADC_DelSig_2_IR_VSSA_TO_2VREF)
1433:Generated_Source\PSoC5/ADC_DelSig_2.c ****                     ADC_DelSig_2_AMux_Select(1u);
1434:Generated_Source\PSoC5/ADC_DelSig_2.c ****                 #else
1435:Generated_Source\PSoC5/ADC_DelSig_2.c ****                     ADC_DelSig_2_AMux_Select(0u);
1436:Generated_Source\PSoC5/ADC_DelSig_2.c ****                 #endif /* ADC_DelSig_2_IR_VSSA_TO_2VREF) */
1437:Generated_Source\PSoC5/ADC_DelSig_2.c ****             #endif /* ADC_DelSig_2_DEFAULT_INPUT_MODE */
1438:Generated_Source\PSoC5/ADC_DelSig_2.c **** 
1439:Generated_Source\PSoC5/ADC_DelSig_2.c ****             /* Set the Conversion stop if resolution is above 16 bit and
1440:Generated_Source\PSoC5/ADC_DelSig_2.c ****                conversion  mode is Single sample */
1441:Generated_Source\PSoC5/ADC_DelSig_2.c ****             #if(ADC_DelSig_2_CFG3_RESOLUTION > 16 && \
1442:Generated_Source\PSoC5/ADC_DelSig_2.c ****                 ADC_DelSig_2_CFG3_CONV_MODE == ADC_DelSig_2_MODE_SINGLE_SAMPLE)
1443:Generated_Source\PSoC5/ADC_DelSig_2.c ****                 ADC_DelSig_2_stopConversion = 1u;
1444:Generated_Source\PSoC5/ADC_DelSig_2.c ****             #endif /* Single sample with resolution above 16 bits */
1445:Generated_Source\PSoC5/ADC_DelSig_2.c **** 
1446:Generated_Source\PSoC5/ADC_DelSig_2.c ****             ADC_DelSig_2_CountsPerVolt = (int32)ADC_DelSig_2_CFG3_COUNTS_PER_VOLT;
1447:Generated_Source\PSoC5/ADC_DelSig_2.c **** 
1448:Generated_Source\PSoC5/ADC_DelSig_2.c ****             ADC_DelSig_2_Ext_CP_Clk_SetDividerRegister(ADC_DelSig_2_CFG3_CP_CLK_DIVIDER, 1u);
1449:Generated_Source\PSoC5/ADC_DelSig_2.c **** 
1450:Generated_Source\PSoC5/ADC_DelSig_2.c ****             /* This is only valid if there is an internal clock */
1451:Generated_Source\PSoC5/ADC_DelSig_2.c ****             #if(ADC_DelSig_2_DEFAULT_INTERNAL_CLK)
1452:Generated_Source\PSoC5/ADC_DelSig_2.c ****                 ADC_DelSig_2_theACLK_SetDividerRegister(ADC_DelSig_2_CFG3_ADC_CLK_DIVIDER, 1u);
1453:Generated_Source\PSoC5/ADC_DelSig_2.c ****             #endif /* ADC_DelSig_2_DEFAULT_INTERNAL_CLK */
1454:Generated_Source\PSoC5/ADC_DelSig_2.c **** 
1455:Generated_Source\PSoC5/ADC_DelSig_2.c ****             #if(ADC_DelSig_2_IRQ_REMOVE == 0u)
1456:Generated_Source\PSoC5/ADC_DelSig_2.c ****                 /* Set interrupt vector */
ARM GAS  C:\Users\vboxuser\AppData\Local\Temp\ccKqkYuE.s 			page 27


1457:Generated_Source\PSoC5/ADC_DelSig_2.c ****                 (void)CyIntSetVector(ADC_DelSig_2_INTC_NUMBER, &ADC_DelSig_2_ISR3);
1458:Generated_Source\PSoC5/ADC_DelSig_2.c ****             #endif   /* End ADC_DelSig_2_IRQ_REMOVE */
1459:Generated_Source\PSoC5/ADC_DelSig_2.c ****         }
1460:Generated_Source\PSoC5/ADC_DelSig_2.c ****     #endif /* ADC_DelSig_2_DEFAULT_NUM_CONFIGS > 2 */
1461:Generated_Source\PSoC5/ADC_DelSig_2.c **** 
1462:Generated_Source\PSoC5/ADC_DelSig_2.c ****     #if(ADC_DelSig_2_DEFAULT_NUM_CONFIGS > 3)
1463:Generated_Source\PSoC5/ADC_DelSig_2.c ****         if (config == 4u)
1464:Generated_Source\PSoC5/ADC_DelSig_2.c ****         {
1465:Generated_Source\PSoC5/ADC_DelSig_2.c ****             /* Fourth Config */
1466:Generated_Source\PSoC5/ADC_DelSig_2.c ****             ADC_DelSig_2_DEC_CR_REG      = ADC_DelSig_2_CFG4_DEC_CR;
1467:Generated_Source\PSoC5/ADC_DelSig_2.c ****             ADC_DelSig_2_DEC_SHIFT1_REG  = ADC_DelSig_2_CFG4_DEC_SHIFT1;
1468:Generated_Source\PSoC5/ADC_DelSig_2.c ****             ADC_DelSig_2_DEC_SHIFT2_REG  = ADC_DelSig_2_CFG4_DEC_SHIFT2;
1469:Generated_Source\PSoC5/ADC_DelSig_2.c ****             ADC_DelSig_2_DEC_DR2_REG     = ADC_DelSig_2_CFG4_DEC_DR2;
1470:Generated_Source\PSoC5/ADC_DelSig_2.c ****             ADC_DelSig_2_DEC_DR2H_REG    = ADC_DelSig_2_CFG4_DEC_DR2H;
1471:Generated_Source\PSoC5/ADC_DelSig_2.c ****             ADC_DelSig_2_DEC_DR1_REG     = ADC_DelSig_2_CFG4_DEC_DR1;
1472:Generated_Source\PSoC5/ADC_DelSig_2.c ****             ADC_DelSig_2_DEC_OCOR_REG    = ADC_DelSig_2_CFG4_DEC_OCOR;
1473:Generated_Source\PSoC5/ADC_DelSig_2.c ****             ADC_DelSig_2_DEC_OCORM_REG   = ADC_DelSig_2_CFG4_DEC_OCORM;
1474:Generated_Source\PSoC5/ADC_DelSig_2.c ****             ADC_DelSig_2_DEC_OCORH_REG   = ADC_DelSig_2_CFG4_DEC_OCORH;
1475:Generated_Source\PSoC5/ADC_DelSig_2.c ****             ADC_DelSig_2_DEC_COHER_REG   = ADC_DelSig_2_CFG4_DEC_COHER;
1476:Generated_Source\PSoC5/ADC_DelSig_2.c **** 
1477:Generated_Source\PSoC5/ADC_DelSig_2.c ****             ADC_DelSig_2_DSM_CR4_REG     = ADC_DelSig_2_CFG4_DSM_CR4;
1478:Generated_Source\PSoC5/ADC_DelSig_2.c ****             ADC_DelSig_2_DSM_CR5_REG     = ADC_DelSig_2_CFG4_DSM_CR5;
1479:Generated_Source\PSoC5/ADC_DelSig_2.c ****             ADC_DelSig_2_DSM_CR6_REG     = ADC_DelSig_2_CFG4_DSM_CR6;
1480:Generated_Source\PSoC5/ADC_DelSig_2.c ****             ADC_DelSig_2_DSM_CR7_REG     = ADC_DelSig_2_CFG4_DSM_CR7;
1481:Generated_Source\PSoC5/ADC_DelSig_2.c ****             ADC_DelSig_2_DSM_CR10_REG    = ADC_DelSig_2_CFG4_DSM_CR10;
1482:Generated_Source\PSoC5/ADC_DelSig_2.c ****             ADC_DelSig_2_DSM_CR11_REG    = ADC_DelSig_2_CFG4_DSM_CR11;
1483:Generated_Source\PSoC5/ADC_DelSig_2.c ****             ADC_DelSig_2_DSM_CR12_REG    = ADC_DelSig_2_CFG4_DSM_CR12;
1484:Generated_Source\PSoC5/ADC_DelSig_2.c ****             ADC_DelSig_2_DSM_CR14_REG    = ADC_DelSig_2_CFG4_DSM_CR14;
1485:Generated_Source\PSoC5/ADC_DelSig_2.c ****             ADC_DelSig_2_DSM_CR15_REG    = ADC_DelSig_2_CFG4_DSM_CR15;
1486:Generated_Source\PSoC5/ADC_DelSig_2.c ****             ADC_DelSig_2_DSM_CR16_REG    = ADC_DelSig_2_CFG4_DSM_CR16;
1487:Generated_Source\PSoC5/ADC_DelSig_2.c ****             ADC_DelSig_2_DSM_CR17_REG    = ADC_DelSig_2_CFG4_DSM_CR17;
1488:Generated_Source\PSoC5/ADC_DelSig_2.c ****             /* Set DSM_REF0_REG by disabling and enabling the PRESS circuit */
1489:Generated_Source\PSoC5/ADC_DelSig_2.c ****             ADC_DelSig_2_SetDSMRef0Reg(ADC_DelSig_2_CFG4_DSM_REF0);
1490:Generated_Source\PSoC5/ADC_DelSig_2.c ****             ADC_DelSig_2_DSM_REF2_REG    = ADC_DelSig_2_CFG4_DSM_REF2;
1491:Generated_Source\PSoC5/ADC_DelSig_2.c ****             ADC_DelSig_2_DSM_REF3_REG    = ADC_DelSig_2_CFG4_DSM_REF3;
1492:Generated_Source\PSoC5/ADC_DelSig_2.c **** 
1493:Generated_Source\PSoC5/ADC_DelSig_2.c ****             ADC_DelSig_2_DSM_BUF0_REG    = ADC_DelSig_2_CFG4_DSM_BUF0;
1494:Generated_Source\PSoC5/ADC_DelSig_2.c ****             ADC_DelSig_2_DSM_BUF1_REG    = ADC_DelSig_2_CFG4_DSM_BUF1;
1495:Generated_Source\PSoC5/ADC_DelSig_2.c ****             ADC_DelSig_2_DSM_BUF2_REG    = ADC_DelSig_2_CFG4_DSM_BUF2;
1496:Generated_Source\PSoC5/ADC_DelSig_2.c ****             ADC_DelSig_2_DSM_BUF3_REG    = ADC_DelSig_2_CFG4_DSM_BUF3;
1497:Generated_Source\PSoC5/ADC_DelSig_2.c **** 
1498:Generated_Source\PSoC5/ADC_DelSig_2.c ****             /* To select either Vssa or Vref to -ve input of DSM depending on
1499:Generated_Source\PSoC5/ADC_DelSig_2.c ****             *  the input range selected.
1500:Generated_Source\PSoC5/ADC_DelSig_2.c ****             */
1501:Generated_Source\PSoC5/ADC_DelSig_2.c ****             #if(ADC_DelSig_2_DEFAULT_INPUT_MODE)
1502:Generated_Source\PSoC5/ADC_DelSig_2.c ****                 #if (ADC_DelSig_2_CFG4_INPUT_RANGE == ADC_DelSig_2_IR_VSSA_TO_2VREF)
1503:Generated_Source\PSoC5/ADC_DelSig_2.c ****                     ADC_DelSig_2_AMux_Select(1u);
1504:Generated_Source\PSoC5/ADC_DelSig_2.c ****                 #else
1505:Generated_Source\PSoC5/ADC_DelSig_2.c ****                     ADC_DelSig_2_AMux_Select(0u);
1506:Generated_Source\PSoC5/ADC_DelSig_2.c ****                 #endif /* ADC_DelSig_2_IR_VSSA_TO_2VREF) */
1507:Generated_Source\PSoC5/ADC_DelSig_2.c ****             #endif /* ADC_DelSig_2_DEFAULT_INPUT_MODE */
1508:Generated_Source\PSoC5/ADC_DelSig_2.c **** 
1509:Generated_Source\PSoC5/ADC_DelSig_2.c ****             /* Set the Conversion stop if resolution is above 16 bit and
1510:Generated_Source\PSoC5/ADC_DelSig_2.c ****                conversion mode is Single sample */
1511:Generated_Source\PSoC5/ADC_DelSig_2.c ****             #if(ADC_DelSig_2_CFG4_RESOLUTION > 16 && \
1512:Generated_Source\PSoC5/ADC_DelSig_2.c ****                 ADC_DelSig_2_CFG4_CONV_MODE == ADC_DelSig_2_MODE_SINGLE_SAMPLE)
1513:Generated_Source\PSoC5/ADC_DelSig_2.c ****                 ADC_DelSig_2_stopConversion = 1u;
ARM GAS  C:\Users\vboxuser\AppData\Local\Temp\ccKqkYuE.s 			page 28


1514:Generated_Source\PSoC5/ADC_DelSig_2.c ****             #endif /* Single sample with resolution above 16 bits */
1515:Generated_Source\PSoC5/ADC_DelSig_2.c **** 
1516:Generated_Source\PSoC5/ADC_DelSig_2.c ****             ADC_DelSig_2_CountsPerVolt = (int32)ADC_DelSig_2_CFG4_COUNTS_PER_VOLT;
1517:Generated_Source\PSoC5/ADC_DelSig_2.c **** 
1518:Generated_Source\PSoC5/ADC_DelSig_2.c ****             ADC_DelSig_2_Ext_CP_Clk_SetDividerRegister(ADC_DelSig_2_CFG4_CP_CLK_DIVIDER, 1u);
1519:Generated_Source\PSoC5/ADC_DelSig_2.c **** 
1520:Generated_Source\PSoC5/ADC_DelSig_2.c ****             /* This is only valid if there is an internal clock */
1521:Generated_Source\PSoC5/ADC_DelSig_2.c ****             #if(ADC_DelSig_2_DEFAULT_INTERNAL_CLK)
1522:Generated_Source\PSoC5/ADC_DelSig_2.c ****                 ADC_DelSig_2_theACLK_SetDividerRegister(ADC_DelSig_2_CFG4_ADC_CLK_DIVIDER, 1u);
1523:Generated_Source\PSoC5/ADC_DelSig_2.c ****             #endif /* ADC_DelSig_2_DEFAULT_INTERNAL_CLK */
1524:Generated_Source\PSoC5/ADC_DelSig_2.c **** 
1525:Generated_Source\PSoC5/ADC_DelSig_2.c ****             #if(ADC_DelSig_2_IRQ_REMOVE == 0u)
1526:Generated_Source\PSoC5/ADC_DelSig_2.c ****                 /* Set interrupt vector */
1527:Generated_Source\PSoC5/ADC_DelSig_2.c ****                 (void)CyIntSetVector(ADC_DelSig_2_INTC_NUMBER, &ADC_DelSig_2_ISR4);
1528:Generated_Source\PSoC5/ADC_DelSig_2.c ****             #endif   /* End ADC_DelSig_2_IRQ_REMOVE */
1529:Generated_Source\PSoC5/ADC_DelSig_2.c ****         }
1530:Generated_Source\PSoC5/ADC_DelSig_2.c ****     #endif /* ADC_DelSig_2_DEFAULT_NUM_CONFIGS > 3 */
1531:Generated_Source\PSoC5/ADC_DelSig_2.c **** }
1532:Generated_Source\PSoC5/ADC_DelSig_2.c **** 
1533:Generated_Source\PSoC5/ADC_DelSig_2.c **** 
1534:Generated_Source\PSoC5/ADC_DelSig_2.c **** /*******************************************************************************
1535:Generated_Source\PSoC5/ADC_DelSig_2.c **** * Function Name: ADC_DelSig_2_SelectCofiguration
1536:Generated_Source\PSoC5/ADC_DelSig_2.c **** ********************************************************************************
1537:Generated_Source\PSoC5/ADC_DelSig_2.c **** *
1538:Generated_Source\PSoC5/ADC_DelSig_2.c **** * Summary:
1539:Generated_Source\PSoC5/ADC_DelSig_2.c **** *  Sets one of up to four ADC configurations. Before setting the new
1540:Generated_Source\PSoC5/ADC_DelSig_2.c **** *  configuration, the ADC is stopped and powered down. After setting
1541:Generated_Source\PSoC5/ADC_DelSig_2.c **** *  the new configuration, the ADC can be powered and conversion
1542:Generated_Source\PSoC5/ADC_DelSig_2.c **** *  can be restarted depending up on the value of second parameter
1543:Generated_Source\PSoC5/ADC_DelSig_2.c **** *  restart. If the value of this parameter is 1, then ADC will be
1544:Generated_Source\PSoC5/ADC_DelSig_2.c **** *  restarted. If this value is zero, then user must call ADC_DelSig_2_Start
1545:Generated_Source\PSoC5/ADC_DelSig_2.c **** *  and ADC_DelSig_2_StartConvert() to restart the conversion.
1546:Generated_Source\PSoC5/ADC_DelSig_2.c **** *
1547:Generated_Source\PSoC5/ADC_DelSig_2.c **** * Parameters:
1548:Generated_Source\PSoC5/ADC_DelSig_2.c **** *  config:  configuration user wants to select.
1549:Generated_Source\PSoC5/ADC_DelSig_2.c **** *           Valid range: 1..4
1550:Generated_Source\PSoC5/ADC_DelSig_2.c **** *  restart:  Restart option. 1 means start the ADC and restart the conversion.
1551:Generated_Source\PSoC5/ADC_DelSig_2.c **** *                            0 means do not start the ADC and conversion.
1552:Generated_Source\PSoC5/ADC_DelSig_2.c **** *
1553:Generated_Source\PSoC5/ADC_DelSig_2.c **** * Return:
1554:Generated_Source\PSoC5/ADC_DelSig_2.c **** *  None
1555:Generated_Source\PSoC5/ADC_DelSig_2.c **** *
1556:Generated_Source\PSoC5/ADC_DelSig_2.c **** * Side Effects: 
1557:Generated_Source\PSoC5/ADC_DelSig_2.c **** *  Enables internal interrupt.
1558:Generated_Source\PSoC5/ADC_DelSig_2.c **** *
1559:Generated_Source\PSoC5/ADC_DelSig_2.c **** *******************************************************************************/
1560:Generated_Source\PSoC5/ADC_DelSig_2.c **** void ADC_DelSig_2_SelectConfiguration(uint8 config, uint8 restart)
1561:Generated_Source\PSoC5/ADC_DelSig_2.c ****                                               
1562:Generated_Source\PSoC5/ADC_DelSig_2.c **** {
1563:Generated_Source\PSoC5/ADC_DelSig_2.c ****     /* Check whether the configuration number is valid or not */
1564:Generated_Source\PSoC5/ADC_DelSig_2.c ****     if((config > 0u) && (config <= ADC_DelSig_2_DEFAULT_NUM_CONFIGS))
1565:Generated_Source\PSoC5/ADC_DelSig_2.c ****     {
1566:Generated_Source\PSoC5/ADC_DelSig_2.c ****         /* Set the flag to ensure Start() API doesn't override the 
1567:Generated_Source\PSoC5/ADC_DelSig_2.c **** 		*  selected configuration
1568:Generated_Source\PSoC5/ADC_DelSig_2.c **** 		*/
1569:Generated_Source\PSoC5/ADC_DelSig_2.c ****         if(ADC_DelSig_2_initVar == 0u)
1570:Generated_Source\PSoC5/ADC_DelSig_2.c ****         {
ARM GAS  C:\Users\vboxuser\AppData\Local\Temp\ccKqkYuE.s 			page 29


1571:Generated_Source\PSoC5/ADC_DelSig_2.c ****             ADC_DelSig_2_started = 1u;
1572:Generated_Source\PSoC5/ADC_DelSig_2.c ****         }
1573:Generated_Source\PSoC5/ADC_DelSig_2.c **** 
1574:Generated_Source\PSoC5/ADC_DelSig_2.c ****         /* Update the config flag */
1575:Generated_Source\PSoC5/ADC_DelSig_2.c ****         ADC_DelSig_2_Config = config;
1576:Generated_Source\PSoC5/ADC_DelSig_2.c **** 
1577:Generated_Source\PSoC5/ADC_DelSig_2.c ****         /* Stop the ADC  */
1578:Generated_Source\PSoC5/ADC_DelSig_2.c ****         ADC_DelSig_2_Stop();
1579:Generated_Source\PSoC5/ADC_DelSig_2.c **** 
1580:Generated_Source\PSoC5/ADC_DelSig_2.c ****         /* Set the  ADC registers based on the configuration */
1581:Generated_Source\PSoC5/ADC_DelSig_2.c ****         ADC_DelSig_2_InitConfig(config);
1582:Generated_Source\PSoC5/ADC_DelSig_2.c **** 
1583:Generated_Source\PSoC5/ADC_DelSig_2.c ****         /* Compensate the gain */
1584:Generated_Source\PSoC5/ADC_DelSig_2.c ****         ADC_DelSig_2_DEC_GVAL_REG = ADC_DelSig_2_gcor[config - 1u].gval;
1585:Generated_Source\PSoC5/ADC_DelSig_2.c ****         CY_SET_REG16(ADC_DelSig_2_DEC_GCOR_16B_PTR, ADC_DelSig_2_gcor[config - 1u].gcor);
1586:Generated_Source\PSoC5/ADC_DelSig_2.c **** 
1587:Generated_Source\PSoC5/ADC_DelSig_2.c ****         if(restart == 1u)
1588:Generated_Source\PSoC5/ADC_DelSig_2.c ****         {
1589:Generated_Source\PSoC5/ADC_DelSig_2.c ****             /* Restart the ADC */
1590:Generated_Source\PSoC5/ADC_DelSig_2.c ****             ADC_DelSig_2_Start();
1591:Generated_Source\PSoC5/ADC_DelSig_2.c **** 
1592:Generated_Source\PSoC5/ADC_DelSig_2.c ****             /* Restart the ADC conversion */
1593:Generated_Source\PSoC5/ADC_DelSig_2.c ****             ADC_DelSig_2_StartConvert();
1594:Generated_Source\PSoC5/ADC_DelSig_2.c ****         }
1595:Generated_Source\PSoC5/ADC_DelSig_2.c ****     }
1596:Generated_Source\PSoC5/ADC_DelSig_2.c ****     else
1597:Generated_Source\PSoC5/ADC_DelSig_2.c ****     {
1598:Generated_Source\PSoC5/ADC_DelSig_2.c ****         /* Halt CPU in debug mode if config is out of valid range */
1599:Generated_Source\PSoC5/ADC_DelSig_2.c ****         CYASSERT(0u != 0u);
1600:Generated_Source\PSoC5/ADC_DelSig_2.c ****     }
1601:Generated_Source\PSoC5/ADC_DelSig_2.c **** }
1602:Generated_Source\PSoC5/ADC_DelSig_2.c **** 
1603:Generated_Source\PSoC5/ADC_DelSig_2.c **** 
1604:Generated_Source\PSoC5/ADC_DelSig_2.c **** /*******************************************************************************
1605:Generated_Source\PSoC5/ADC_DelSig_2.c **** * Function Name: ADC_DelSig_2_GainCompensation
1606:Generated_Source\PSoC5/ADC_DelSig_2.c **** ********************************************************************************
1607:Generated_Source\PSoC5/ADC_DelSig_2.c **** *
1608:Generated_Source\PSoC5/ADC_DelSig_2.c **** * Summary:
1609:Generated_Source\PSoC5/ADC_DelSig_2.c **** *  This API calculates the trim value and then store this to gcor structure.
1610:Generated_Source\PSoC5/ADC_DelSig_2.c **** *
1611:Generated_Source\PSoC5/ADC_DelSig_2.c **** * Parameters:
1612:Generated_Source\PSoC5/ADC_DelSig_2.c **** *  inputRange:  input range for which trim value is to be calculated.
1613:Generated_Source\PSoC5/ADC_DelSig_2.c **** *  IdealDecGain:  Ideal Decimator gain for the selected resolution and
1614:Generated_Source\PSoC5/ADC_DelSig_2.c **** *                 conversion  mode.
1615:Generated_Source\PSoC5/ADC_DelSig_2.c **** *  IdealOddDecGain:  Ideal odd decimation gain for the selected resolution and
1616:Generated_Source\PSoC5/ADC_DelSig_2.c ****                      conversion mode.
1617:Generated_Source\PSoC5/ADC_DelSig_2.c **** *  resolution:  Resolution to select the proper flash location for trim value.
1618:Generated_Source\PSoC5/ADC_DelSig_2.c **** *  config:      Specifies the configuration number
1619:Generated_Source\PSoC5/ADC_DelSig_2.c **** *               Valid range: 1..4
1620:Generated_Source\PSoC5/ADC_DelSig_2.c **** *
1621:Generated_Source\PSoC5/ADC_DelSig_2.c **** * Return:
1622:Generated_Source\PSoC5/ADC_DelSig_2.c **** *  None
1623:Generated_Source\PSoC5/ADC_DelSig_2.c **** *
1624:Generated_Source\PSoC5/ADC_DelSig_2.c **** *******************************************************************************/
1625:Generated_Source\PSoC5/ADC_DelSig_2.c **** static void ADC_DelSig_2_GainCompensation(uint8 inputRange, uint16 idealDecGain, uint16 idealOddDec
1626:Generated_Source\PSoC5/ADC_DelSig_2.c ****                               uint8 resolution, uint8 config) 
1627:Generated_Source\PSoC5/ADC_DelSig_2.c **** {
ARM GAS  C:\Users\vboxuser\AppData\Local\Temp\ccKqkYuE.s 			page 30


  27              		.loc 1 1627 0
  28              		.cfi_startproc
  29              		@ args = 4, pretend = 0, frame = 0
  30              		@ frame_needed = 0, uses_anonymous_args = 0
  31              	.LVL0:
  32 0000 10B5     		push	{r4, lr}
  33              		.cfi_def_cfa_offset 8
  34              		.cfi_offset 4, -8
  35              		.cfi_offset 14, -4
  36 0002 9DF80840 		ldrb	r4, [sp, #8]	@ zero_extendqisi2
1628:Generated_Source\PSoC5/ADC_DelSig_2.c ****     int8 flash;
1629:Generated_Source\PSoC5/ADC_DelSig_2.c **** 	int32 normalised;
1630:Generated_Source\PSoC5/ADC_DelSig_2.c **** 	uint16 gcorValue;
1631:Generated_Source\PSoC5/ADC_DelSig_2.c ****     uint32 gcorTmp;
1632:Generated_Source\PSoC5/ADC_DelSig_2.c **** 
1633:Generated_Source\PSoC5/ADC_DelSig_2.c ****     if((config > 0u) && (config <= ADC_DelSig_2_DEFAULT_NUM_CONFIGS))
  37              		.loc 1 1633 0
  38 0006 012C     		cmp	r4, #1
  39 0008 51D1     		bne	.L2
1634:Generated_Source\PSoC5/ADC_DelSig_2.c ****     {
1635:Generated_Source\PSoC5/ADC_DelSig_2.c ****         switch(inputRange)
  40              		.loc 1 1635 0
  41 000a 0138     		subs	r0, r0, #1
  42              	.LVL1:
  43 000c 0928     		cmp	r0, #9
  44 000e 2ED8     		bhi	.L16
  45 0010 DFE800F0 		tbb	[pc, r0]
  46              	.L5:
  47 0014 05       		.byte	(.L4-.L5)/2
  48 0015 2D       		.byte	(.L16-.L5)/2
  49 0016 2D       		.byte	(.L16-.L5)/2
  50 0017 05       		.byte	(.L4-.L5)/2
  51 0018 2D       		.byte	(.L16-.L5)/2
  52 0019 2D       		.byte	(.L16-.L5)/2
  53 001a 0F       		.byte	(.L6-.L5)/2
  54 001b 19       		.byte	(.L7-.L5)/2
  55 001c 2D       		.byte	(.L16-.L5)/2
  56 001d 23       		.byte	(.L8-.L5)/2
  57              		.p2align 1
  58              	.L4:
1636:Generated_Source\PSoC5/ADC_DelSig_2.c ****         {
1637:Generated_Source\PSoC5/ADC_DelSig_2.c ****             case ADC_DelSig_2_IR_VNEG_VREF_DIFF:
1638:Generated_Source\PSoC5/ADC_DelSig_2.c ****             case ADC_DelSig_2_IR_VSSA_TO_2VREF:
1639:Generated_Source\PSoC5/ADC_DelSig_2.c ****                 /* Normalize the flash Value */
1640:Generated_Source\PSoC5/ADC_DelSig_2.c ****                 if(resolution > 15u)
  59              		.loc 1 1640 0
  60 001e 0F2B     		cmp	r3, #15
  61 0020 03D9     		bls	.L9
1641:Generated_Source\PSoC5/ADC_DelSig_2.c ****                 {
1642:Generated_Source\PSoC5/ADC_DelSig_2.c ****                     flash = ADC_DelSig_2_DEC_TRIM_VREF_DIFF_16_20;
  62              		.loc 1 1642 0
  63 0022 2548     		ldr	r0, .L18
  64 0024 0078     		ldrb	r0, [r0]	@ zero_extendqisi2
  65 0026 40B2     		sxtb	r0, r0
  66              	.LVL2:
  67 0028 22E0     		b	.L3
  68              	.LVL3:
ARM GAS  C:\Users\vboxuser\AppData\Local\Temp\ccKqkYuE.s 			page 31


  69              	.L9:
1643:Generated_Source\PSoC5/ADC_DelSig_2.c ****                 }
1644:Generated_Source\PSoC5/ADC_DelSig_2.c ****                 else
1645:Generated_Source\PSoC5/ADC_DelSig_2.c ****                 {
1646:Generated_Source\PSoC5/ADC_DelSig_2.c ****                     flash = ADC_DelSig_2_DEC_TRIM_VREF_DIFF_8_15;
  70              		.loc 1 1646 0
  71 002a 2448     		ldr	r0, .L18+4
  72 002c 0078     		ldrb	r0, [r0]	@ zero_extendqisi2
  73 002e 40B2     		sxtb	r0, r0
  74              	.LVL4:
  75 0030 1EE0     		b	.L3
  76              	.LVL5:
  77              	.L6:
1647:Generated_Source\PSoC5/ADC_DelSig_2.c ****                 }
1648:Generated_Source\PSoC5/ADC_DelSig_2.c ****                 break;
1649:Generated_Source\PSoC5/ADC_DelSig_2.c **** 
1650:Generated_Source\PSoC5/ADC_DelSig_2.c ****             case ADC_DelSig_2_IR_VNEG_VREF_2_DIFF:
1651:Generated_Source\PSoC5/ADC_DelSig_2.c ****                 /* Normalize the flash Value */
1652:Generated_Source\PSoC5/ADC_DelSig_2.c ****                 if(resolution > 15u)
  78              		.loc 1 1652 0
  79 0032 0F2B     		cmp	r3, #15
  80 0034 03D9     		bls	.L10
1653:Generated_Source\PSoC5/ADC_DelSig_2.c ****                 {
1654:Generated_Source\PSoC5/ADC_DelSig_2.c ****                     flash = ADC_DelSig_2_DEC_TRIM_VREF_2_DIFF_16_20;
  81              		.loc 1 1654 0
  82 0036 2248     		ldr	r0, .L18+8
  83 0038 0078     		ldrb	r0, [r0]	@ zero_extendqisi2
  84 003a 40B2     		sxtb	r0, r0
  85              	.LVL6:
  86 003c 18E0     		b	.L3
  87              	.LVL7:
  88              	.L10:
1655:Generated_Source\PSoC5/ADC_DelSig_2.c ****                 }
1656:Generated_Source\PSoC5/ADC_DelSig_2.c ****                 else
1657:Generated_Source\PSoC5/ADC_DelSig_2.c ****                 {
1658:Generated_Source\PSoC5/ADC_DelSig_2.c ****                     flash = ADC_DelSig_2_DEC_TRIM_VREF_2_DIFF_8_15;
  89              		.loc 1 1658 0
  90 003e 2148     		ldr	r0, .L18+12
  91 0040 0078     		ldrb	r0, [r0]	@ zero_extendqisi2
  92 0042 40B2     		sxtb	r0, r0
  93              	.LVL8:
  94 0044 14E0     		b	.L3
  95              	.LVL9:
  96              	.L7:
1659:Generated_Source\PSoC5/ADC_DelSig_2.c ****                 }
1660:Generated_Source\PSoC5/ADC_DelSig_2.c ****                 break;
1661:Generated_Source\PSoC5/ADC_DelSig_2.c **** 
1662:Generated_Source\PSoC5/ADC_DelSig_2.c ****             case ADC_DelSig_2_IR_VNEG_VREF_4_DIFF:
1663:Generated_Source\PSoC5/ADC_DelSig_2.c ****                 /* Normalize the flash Value */
1664:Generated_Source\PSoC5/ADC_DelSig_2.c ****                 if(resolution > 15u)
  97              		.loc 1 1664 0
  98 0046 0F2B     		cmp	r3, #15
  99 0048 03D9     		bls	.L11
1665:Generated_Source\PSoC5/ADC_DelSig_2.c ****                 {
1666:Generated_Source\PSoC5/ADC_DelSig_2.c ****                     flash = ADC_DelSig_2_DEC_TRIM_VREF_4_DIFF_16_20;
 100              		.loc 1 1666 0
 101 004a 1F48     		ldr	r0, .L18+16
ARM GAS  C:\Users\vboxuser\AppData\Local\Temp\ccKqkYuE.s 			page 32


 102 004c 0078     		ldrb	r0, [r0]	@ zero_extendqisi2
 103 004e 40B2     		sxtb	r0, r0
 104              	.LVL10:
 105 0050 0EE0     		b	.L3
 106              	.LVL11:
 107              	.L11:
1667:Generated_Source\PSoC5/ADC_DelSig_2.c ****                 }
1668:Generated_Source\PSoC5/ADC_DelSig_2.c ****                 else
1669:Generated_Source\PSoC5/ADC_DelSig_2.c ****                 {
1670:Generated_Source\PSoC5/ADC_DelSig_2.c ****                     flash = ADC_DelSig_2_DEC_TRIM_VREF_4_DIFF_8_15;
 108              		.loc 1 1670 0
 109 0052 1E48     		ldr	r0, .L18+20
 110 0054 0078     		ldrb	r0, [r0]	@ zero_extendqisi2
 111 0056 40B2     		sxtb	r0, r0
 112              	.LVL12:
 113 0058 0AE0     		b	.L3
 114              	.LVL13:
 115              	.L8:
1671:Generated_Source\PSoC5/ADC_DelSig_2.c ****                 }
1672:Generated_Source\PSoC5/ADC_DelSig_2.c ****                 break;
1673:Generated_Source\PSoC5/ADC_DelSig_2.c **** 
1674:Generated_Source\PSoC5/ADC_DelSig_2.c ****             case ADC_DelSig_2_IR_VNEG_VREF_16_DIFF:
1675:Generated_Source\PSoC5/ADC_DelSig_2.c ****                 /* Normalize the flash Value */
1676:Generated_Source\PSoC5/ADC_DelSig_2.c ****                 if(resolution > 15u)
 116              		.loc 1 1676 0
 117 005a 0F2B     		cmp	r3, #15
 118 005c 03D9     		bls	.L12
1677:Generated_Source\PSoC5/ADC_DelSig_2.c ****                 {
1678:Generated_Source\PSoC5/ADC_DelSig_2.c ****                     flash = ADC_DelSig_2_DEC_TRIM_VREF_16_DIFF_16_20;
 119              		.loc 1 1678 0
 120 005e 1C48     		ldr	r0, .L18+24
 121 0060 0078     		ldrb	r0, [r0]	@ zero_extendqisi2
 122 0062 40B2     		sxtb	r0, r0
 123              	.LVL14:
 124 0064 04E0     		b	.L3
 125              	.LVL15:
 126              	.L12:
1679:Generated_Source\PSoC5/ADC_DelSig_2.c ****                 }
1680:Generated_Source\PSoC5/ADC_DelSig_2.c ****                 else
1681:Generated_Source\PSoC5/ADC_DelSig_2.c ****                 {
1682:Generated_Source\PSoC5/ADC_DelSig_2.c ****                     flash = ADC_DelSig_2_DEC_TRIM_VREF_16_DIFF_8_15;
 127              		.loc 1 1682 0
 128 0066 1B48     		ldr	r0, .L18+28
 129 0068 0078     		ldrb	r0, [r0]	@ zero_extendqisi2
 130 006a 40B2     		sxtb	r0, r0
 131              	.LVL16:
 132 006c 00E0     		b	.L3
 133              	.LVL17:
 134              	.L16:
1683:Generated_Source\PSoC5/ADC_DelSig_2.c ****                 }
1684:Generated_Source\PSoC5/ADC_DelSig_2.c ****                 break;
1685:Generated_Source\PSoC5/ADC_DelSig_2.c **** 
1686:Generated_Source\PSoC5/ADC_DelSig_2.c ****             default:
1687:Generated_Source\PSoC5/ADC_DelSig_2.c ****                 flash = 0;
 135              		.loc 1 1687 0
 136 006e 0020     		movs	r0, #0
 137              	.L3:
ARM GAS  C:\Users\vboxuser\AppData\Local\Temp\ccKqkYuE.s 			page 33


 138              	.LVL18:
1688:Generated_Source\PSoC5/ADC_DelSig_2.c ****                 break;
1689:Generated_Source\PSoC5/ADC_DelSig_2.c ****         }
1690:Generated_Source\PSoC5/ADC_DelSig_2.c **** 
1691:Generated_Source\PSoC5/ADC_DelSig_2.c ****         /* Add two values */
1692:Generated_Source\PSoC5/ADC_DelSig_2.c **** 		normalised = (int32)idealDecGain + ((int32)flash * 32);
 139              		.loc 1 1692 0
 140 0070 01EB4011 		add	r1, r1, r0, lsl #5
 141              	.LVL19:
1693:Generated_Source\PSoC5/ADC_DelSig_2.c ****         gcorTmp = (uint32)normalised * (uint32)idealOddDecGain;
 142              		.loc 1 1693 0
 143 0074 01FB02F1 		mul	r1, r1, r2
 144              	.LVL20:
1694:Generated_Source\PSoC5/ADC_DelSig_2.c ****         gcorValue = (uint16)(gcorTmp / ADC_DelSig_2_IDEAL_GAIN_CONST);
 145              		.loc 1 1694 0
 146 0078 C90B     		lsrs	r1, r1, #15
 147              	.LVL21:
 148 007a 8AB2     		uxth	r2, r1
 149              	.LVL22:
1695:Generated_Source\PSoC5/ADC_DelSig_2.c **** 
1696:Generated_Source\PSoC5/ADC_DelSig_2.c ****         if (resolution < (ADC_DelSig_2_MAX_GVAL - 1u))
 150              		.loc 1 1696 0
 151 007c 0D2B     		cmp	r3, #13
 152 007e 0BD8     		bhi	.L13
1697:Generated_Source\PSoC5/ADC_DelSig_2.c ****         {
1698:Generated_Source\PSoC5/ADC_DelSig_2.c ****             gcorValue = (gcorValue >> (ADC_DelSig_2_MAX_GVAL - (resolution + 1u)));
 153              		.loc 1 1698 0
 154 0080 C3F10E02 		rsb	r2, r3, #14
 155              	.LVL23:
 156 0084 89B2     		uxth	r1, r1
 157 0086 1141     		asrs	r1, r1, r2
 158              	.LVL24:
 159 0088 8AB2     		uxth	r2, r1
 160              	.LVL25:
1699:Generated_Source\PSoC5/ADC_DelSig_2.c ****             ADC_DelSig_2_gcor[config - 1u].gval = (resolution + 1u);
 161              		.loc 1 1699 0
 162 008a 611E     		subs	r1, r4, #1
 163 008c 1248     		ldr	r0, .L18+32
 164              	.LVL26:
 165 008e 00EB8101 		add	r1, r0, r1, lsl #2
 166 0092 0133     		adds	r3, r3, #1
 167              	.LVL27:
 168 0094 8B70     		strb	r3, [r1, #2]
 169 0096 05E0     		b	.L14
 170              	.LVL28:
 171              	.L13:
1700:Generated_Source\PSoC5/ADC_DelSig_2.c ****         }
1701:Generated_Source\PSoC5/ADC_DelSig_2.c ****         else
1702:Generated_Source\PSoC5/ADC_DelSig_2.c ****         {
1703:Generated_Source\PSoC5/ADC_DelSig_2.c ****             /* Use all 16 bits */
1704:Generated_Source\PSoC5/ADC_DelSig_2.c ****             ADC_DelSig_2_gcor[config - 1u].gval = ADC_DelSig_2_MAX_GVAL;
 172              		.loc 1 1704 0
 173 0098 631E     		subs	r3, r4, #1
 174              	.LVL29:
 175 009a 0F49     		ldr	r1, .L18+32
 176 009c 01EB8303 		add	r3, r1, r3, lsl #2
 177 00a0 0F21     		movs	r1, #15
ARM GAS  C:\Users\vboxuser\AppData\Local\Temp\ccKqkYuE.s 			page 34


 178 00a2 9970     		strb	r1, [r3, #2]
 179              	.LVL30:
 180              	.L14:
1705:Generated_Source\PSoC5/ADC_DelSig_2.c ****         }
1706:Generated_Source\PSoC5/ADC_DelSig_2.c **** 
1707:Generated_Source\PSoC5/ADC_DelSig_2.c ****         /* Save the gain correction register value */
1708:Generated_Source\PSoC5/ADC_DelSig_2.c ****         ADC_DelSig_2_gcor[config - 1u].gcor = gcorValue;
 181              		.loc 1 1708 0
 182 00a4 013C     		subs	r4, r4, #1
 183 00a6 0C4B     		ldr	r3, .L18+32
 184 00a8 23F82420 		strh	r2, [r3, r4, lsl #2]	@ movhi
 185 00ac 10BD     		pop	{r4, pc}
 186              	.LVL31:
 187              	.L2:
1709:Generated_Source\PSoC5/ADC_DelSig_2.c ****     }
1710:Generated_Source\PSoC5/ADC_DelSig_2.c ****     else
1711:Generated_Source\PSoC5/ADC_DelSig_2.c ****     {
1712:Generated_Source\PSoC5/ADC_DelSig_2.c ****         /* Halt CPU in debug mode if config is out of valid range */
1713:Generated_Source\PSoC5/ADC_DelSig_2.c ****         CYASSERT(0u != 0u);
 188              		.loc 1 1713 0 discriminator 1
 189 00ae 0020     		movs	r0, #0
 190              	.LVL32:
 191 00b0 FFF7FEFF 		bl	CyHalt
 192              	.LVL33:
 193 00b4 10BD     		pop	{r4, pc}
 194              	.LVL34:
 195              	.L19:
 196 00b6 00BF     		.align	2
 197              	.L18:
 198 00b8 18010049 		.word	1224737048
 199 00bc 1C010049 		.word	1224737052
 200 00c0 19010049 		.word	1224737049
 201 00c4 1D010049 		.word	1224737053
 202 00c8 1A010049 		.word	1224737050
 203 00cc 1E010049 		.word	1224737054
 204 00d0 1B010049 		.word	1224737051
 205 00d4 1F010049 		.word	1224737055
 206 00d8 00000000 		.word	.LANCHOR0
 207              		.cfi_endproc
 208              	.LFE21:
 209              		.size	ADC_DelSig_2_GainCompensation, .-ADC_DelSig_2_GainCompensation
 210              		.section	.text.ADC_DelSig_2_SetDSMRef0Reg,"ax",%progbits
 211              		.align	2
 212              		.thumb
 213              		.thumb_func
 214              		.type	ADC_DelSig_2_SetDSMRef0Reg, %function
 215              	ADC_DelSig_2_SetDSMRef0Reg:
 216              	.LFB22:
1714:Generated_Source\PSoC5/ADC_DelSig_2.c ****     }
1715:Generated_Source\PSoC5/ADC_DelSig_2.c **** }
1716:Generated_Source\PSoC5/ADC_DelSig_2.c **** 
1717:Generated_Source\PSoC5/ADC_DelSig_2.c **** 
1718:Generated_Source\PSoC5/ADC_DelSig_2.c **** /******************************************************************************
1719:Generated_Source\PSoC5/ADC_DelSig_2.c **** * Function Name: ADC_DelSig_2_SetDSMRef0Reg(uint8)
1720:Generated_Source\PSoC5/ADC_DelSig_2.c **** ******************************************************************************
1721:Generated_Source\PSoC5/ADC_DelSig_2.c **** *
1722:Generated_Source\PSoC5/ADC_DelSig_2.c **** * Summary:
ARM GAS  C:\Users\vboxuser\AppData\Local\Temp\ccKqkYuE.s 			page 35


1723:Generated_Source\PSoC5/ADC_DelSig_2.c **** *  This API sets the DSM_REF0 register. This is written for internal use.
1724:Generated_Source\PSoC5/ADC_DelSig_2.c **** *
1725:Generated_Source\PSoC5/ADC_DelSig_2.c **** * Parameters:
1726:Generated_Source\PSoC5/ADC_DelSig_2.c **** *  value:  Value to be written to DSM_REF0 register.
1727:Generated_Source\PSoC5/ADC_DelSig_2.c **** *
1728:Generated_Source\PSoC5/ADC_DelSig_2.c **** * Return:
1729:Generated_Source\PSoC5/ADC_DelSig_2.c **** *  None
1730:Generated_Source\PSoC5/ADC_DelSig_2.c **** *
1731:Generated_Source\PSoC5/ADC_DelSig_2.c **** ******************************************************************************/
1732:Generated_Source\PSoC5/ADC_DelSig_2.c **** static void ADC_DelSig_2_SetDSMRef0Reg(uint8 value) 
1733:Generated_Source\PSoC5/ADC_DelSig_2.c **** {
 217              		.loc 1 1733 0
 218              		.cfi_startproc
 219              		@ args = 0, pretend = 0, frame = 0
 220              		@ frame_needed = 0, uses_anonymous_args = 0
 221              	.LVL35:
 222 0000 F8B5     		push	{r3, r4, r5, r6, r7, lr}
 223              		.cfi_def_cfa_offset 24
 224              		.cfi_offset 3, -24
 225              		.cfi_offset 4, -20
 226              		.cfi_offset 5, -16
 227              		.cfi_offset 6, -12
 228              		.cfi_offset 7, -8
 229              		.cfi_offset 14, -4
 230 0002 0746     		mov	r7, r0
1734:Generated_Source\PSoC5/ADC_DelSig_2.c ****     uint8 enableInterrupts;
1735:Generated_Source\PSoC5/ADC_DelSig_2.c ****     enableInterrupts = CyEnterCriticalSection();
 231              		.loc 1 1735 0
 232 0004 FFF7FEFF 		bl	CyEnterCriticalSection
 233              	.LVL36:
 234 0008 0646     		mov	r6, r0
 235              	.LVL37:
1736:Generated_Source\PSoC5/ADC_DelSig_2.c **** 
1737:Generated_Source\PSoC5/ADC_DelSig_2.c ****     /* Disable PRES, Enable power to VCMBUF0, REFBUF0 and REFBUF1, enable PRES */
1738:Generated_Source\PSoC5/ADC_DelSig_2.c ****     ADC_DelSig_2_RESET_CR4_REG |= (ADC_DelSig_2_IGNORE_PRESA1 | ADC_DelSig_2_IGNORE_PRESD1);
 236              		.loc 1 1738 0
 237 000a 0D4D     		ldr	r5, .L22
 238 000c 2B78     		ldrb	r3, [r5]	@ zero_extendqisi2
 239 000e 43F00303 		orr	r3, r3, #3
 240 0012 2B70     		strb	r3, [r5]
1739:Generated_Source\PSoC5/ADC_DelSig_2.c ****     ADC_DelSig_2_RESET_CR5_REG |= (ADC_DelSig_2_IGNORE_PRESA2 | ADC_DelSig_2_IGNORE_PRESD2);
 241              		.loc 1 1739 0
 242 0014 0B4C     		ldr	r4, .L22+4
 243 0016 2378     		ldrb	r3, [r4]	@ zero_extendqisi2
 244 0018 43F00303 		orr	r3, r3, #3
 245 001c 2370     		strb	r3, [r4]
1740:Generated_Source\PSoC5/ADC_DelSig_2.c ****     ADC_DelSig_2_DSM_REF0_REG = value;
 246              		.loc 1 1740 0
 247 001e 0A4B     		ldr	r3, .L22+8
 248 0020 1F70     		strb	r7, [r3]
1741:Generated_Source\PSoC5/ADC_DelSig_2.c **** 
1742:Generated_Source\PSoC5/ADC_DelSig_2.c ****     /* Wait for 3 microseconds */
1743:Generated_Source\PSoC5/ADC_DelSig_2.c ****     CyDelayUs(ADC_DelSig_2_PRES_DELAY_TIME);
 249              		.loc 1 1743 0
 250 0022 0320     		movs	r0, #3
 251 0024 FFF7FEFF 		bl	CyDelayUs
 252              	.LVL38:
ARM GAS  C:\Users\vboxuser\AppData\Local\Temp\ccKqkYuE.s 			page 36


1744:Generated_Source\PSoC5/ADC_DelSig_2.c ****     /* Enable the press circuit */
1745:Generated_Source\PSoC5/ADC_DelSig_2.c ****     ADC_DelSig_2_RESET_CR4_REG &= (uint8)~(ADC_DelSig_2_IGNORE_PRESA1 | ADC_DelSig_2_IGNORE_PRESD1)
 253              		.loc 1 1745 0
 254 0028 2B78     		ldrb	r3, [r5]	@ zero_extendqisi2
 255 002a 03F0FC03 		and	r3, r3, #252
 256 002e 2B70     		strb	r3, [r5]
1746:Generated_Source\PSoC5/ADC_DelSig_2.c ****     ADC_DelSig_2_RESET_CR5_REG &= (uint8)~(ADC_DelSig_2_IGNORE_PRESA2 | ADC_DelSig_2_IGNORE_PRESD2)
 257              		.loc 1 1746 0
 258 0030 2378     		ldrb	r3, [r4]	@ zero_extendqisi2
 259 0032 03F0FC03 		and	r3, r3, #252
 260 0036 2370     		strb	r3, [r4]
1747:Generated_Source\PSoC5/ADC_DelSig_2.c **** 
1748:Generated_Source\PSoC5/ADC_DelSig_2.c ****     CyExitCriticalSection(enableInterrupts);
 261              		.loc 1 1748 0
 262 0038 3046     		mov	r0, r6
 263 003a FFF7FEFF 		bl	CyExitCriticalSection
 264              	.LVL39:
 265 003e F8BD     		pop	{r3, r4, r5, r6, r7, pc}
 266              	.LVL40:
 267              	.L23:
 268              		.align	2
 269              	.L22:
 270 0040 F8460040 		.word	1073759992
 271 0044 F9460040 		.word	1073759993
 272 0048 92580040 		.word	1073764498
 273              		.cfi_endproc
 274              	.LFE22:
 275              		.size	ADC_DelSig_2_SetDSMRef0Reg, .-ADC_DelSig_2_SetDSMRef0Reg
 276              		.section	.text.ADC_DelSig_2_InitConfig,"ax",%progbits
 277              		.align	2
 278              		.thumb
 279              		.thumb_func
 280              		.type	ADC_DelSig_2_InitConfig, %function
 281              	ADC_DelSig_2_InitConfig:
 282              	.LFB19:
1248:Generated_Source\PSoC5/ADC_DelSig_2.c ****     ADC_DelSig_2_stopConversion = 0u;
 283              		.loc 1 1248 0
 284              		.cfi_startproc
 285              		@ args = 0, pretend = 0, frame = 0
 286              		@ frame_needed = 0, uses_anonymous_args = 0
 287              	.LVL41:
1249:Generated_Source\PSoC5/ADC_DelSig_2.c **** 
 288              		.loc 1 1249 0
 289 0000 0022     		movs	r2, #0
 290 0002 324B     		ldr	r3, .L28
 291 0004 1A71     		strb	r2, [r3, #4]
1251:Generated_Source\PSoC5/ADC_DelSig_2.c ****     {
 292              		.loc 1 1251 0
 293 0006 0128     		cmp	r0, #1
 294 0008 5ED1     		bne	.L27
1248:Generated_Source\PSoC5/ADC_DelSig_2.c ****     ADC_DelSig_2_stopConversion = 0u;
 295              		.loc 1 1248 0
 296 000a 70B5     		push	{r4, r5, r6, lr}
 297              		.cfi_def_cfa_offset 16
 298              		.cfi_offset 4, -16
 299              		.cfi_offset 5, -12
 300              		.cfi_offset 6, -8
ARM GAS  C:\Users\vboxuser\AppData\Local\Temp\ccKqkYuE.s 			page 37


 301              		.cfi_offset 14, -4
1254:Generated_Source\PSoC5/ADC_DelSig_2.c ****         ADC_DelSig_2_DEC_SHIFT1_REG  = ADC_DelSig_2_CFG1_DEC_SHIFT1;
 302              		.loc 1 1254 0
 303 000c 3022     		movs	r2, #48
 304 000e 304B     		ldr	r3, .L28+4
 305 0010 1A70     		strb	r2, [r3]
1255:Generated_Source\PSoC5/ADC_DelSig_2.c ****         ADC_DelSig_2_DEC_SHIFT2_REG  = ADC_DelSig_2_CFG1_DEC_SHIFT2;
 306              		.loc 1 1255 0
 307 0012 0422     		movs	r2, #4
 308 0014 0233     		adds	r3, r3, #2
 309 0016 1A70     		strb	r2, [r3]
1256:Generated_Source\PSoC5/ADC_DelSig_2.c ****         ADC_DelSig_2_DEC_DR2_REG     = ADC_DelSig_2_CFG1_DEC_DR2;
 310              		.loc 1 1256 0
 311 0018 0622     		movs	r2, #6
 312 001a 0133     		adds	r3, r3, #1
 313 001c 1A70     		strb	r2, [r3]
1257:Generated_Source\PSoC5/ADC_DelSig_2.c ****         ADC_DelSig_2_DEC_DR2H_REG    = ADC_DelSig_2_CFG1_DEC_DR2H;
 314              		.loc 1 1257 0
 315 001e 0024     		movs	r4, #0
 316 0020 0133     		adds	r3, r3, #1
 317 0022 1C70     		strb	r4, [r3]
1258:Generated_Source\PSoC5/ADC_DelSig_2.c ****         ADC_DelSig_2_DEC_DR1_REG     = ADC_DelSig_2_CFG1_DEC_DR1;
 318              		.loc 1 1258 0
 319 0024 0133     		adds	r3, r3, #1
 320 0026 1C70     		strb	r4, [r3]
1259:Generated_Source\PSoC5/ADC_DelSig_2.c ****         ADC_DelSig_2_DEC_OCOR_REG    = ADC_DelSig_2_CFG1_DEC_OCOR;
 321              		.loc 1 1259 0
 322 0028 3F22     		movs	r2, #63
 323 002a 0133     		adds	r3, r3, #1
 324 002c 1A70     		strb	r2, [r3]
1260:Generated_Source\PSoC5/ADC_DelSig_2.c ****         ADC_DelSig_2_DEC_OCORM_REG   = ADC_DelSig_2_CFG1_DEC_OCORM;
 325              		.loc 1 1260 0
 326 002e 0233     		adds	r3, r3, #2
 327 0030 1C70     		strb	r4, [r3]
1261:Generated_Source\PSoC5/ADC_DelSig_2.c ****         ADC_DelSig_2_DEC_OCORH_REG   = ADC_DelSig_2_CFG1_DEC_OCORH;
 328              		.loc 1 1261 0
 329 0032 0133     		adds	r3, r3, #1
 330 0034 1C70     		strb	r4, [r3]
1262:Generated_Source\PSoC5/ADC_DelSig_2.c ****         ADC_DelSig_2_DEC_COHER_REG   = ADC_DelSig_2_CFG1_DEC_COHER;
 331              		.loc 1 1262 0
 332 0036 0133     		adds	r3, r3, #1
 333 0038 1C70     		strb	r4, [r3]
1263:Generated_Source\PSoC5/ADC_DelSig_2.c **** 
 334              		.loc 1 1263 0
 335 003a 0125     		movs	r5, #1
 336 003c 0A33     		adds	r3, r3, #10
 337 003e 1D70     		strb	r5, [r3]
1265:Generated_Source\PSoC5/ADC_DelSig_2.c ****         ADC_DelSig_2_DSM_CR5_REG     = ADC_DelSig_2_CFG1_DSM_CR5;
 338              		.loc 1 1265 0
 339 0040 5022     		movs	r2, #80
 340 0042 03F52763 		add	r3, r3, #2672
 341 0046 1A70     		strb	r2, [r3]
1266:Generated_Source\PSoC5/ADC_DelSig_2.c ****         ADC_DelSig_2_DSM_CR6_REG     = ADC_DelSig_2_CFG1_DSM_CR6;
 342              		.loc 1 1266 0
 343 0048 0A22     		movs	r2, #10
 344 004a 0133     		adds	r3, r3, #1
 345 004c 1A70     		strb	r2, [r3]
ARM GAS  C:\Users\vboxuser\AppData\Local\Temp\ccKqkYuE.s 			page 38


1267:Generated_Source\PSoC5/ADC_DelSig_2.c ****         ADC_DelSig_2_DSM_CR7_REG     = ADC_DelSig_2_CFG1_DSM_CR7;
 346              		.loc 1 1267 0
 347 004e 2C22     		movs	r2, #44
 348 0050 0133     		adds	r3, r3, #1
 349 0052 1A70     		strb	r2, [r3]
1268:Generated_Source\PSoC5/ADC_DelSig_2.c ****         ADC_DelSig_2_DSM_CR10_REG    = ADC_DelSig_2_CFG1_DSM_CR10;
 350              		.loc 1 1268 0
 351 0054 0133     		adds	r3, r3, #1
 352 0056 1C70     		strb	r4, [r3]
1269:Generated_Source\PSoC5/ADC_DelSig_2.c ****         ADC_DelSig_2_DSM_CR11_REG    = ADC_DelSig_2_CFG1_DSM_CR11;
 353              		.loc 1 1269 0
 354 0058 4422     		movs	r2, #68
 355 005a 0333     		adds	r3, r3, #3
 356 005c 1A70     		strb	r2, [r3]
1270:Generated_Source\PSoC5/ADC_DelSig_2.c ****         ADC_DelSig_2_DSM_CR12_REG    = ADC_DelSig_2_CFG1_DSM_CR12;
 357              		.loc 1 1270 0
 358 005e 4822     		movs	r2, #72
 359 0060 0133     		adds	r3, r3, #1
 360 0062 1A70     		strb	r2, [r3]
1271:Generated_Source\PSoC5/ADC_DelSig_2.c ****         ADC_DelSig_2_DSM_CR14_REG    = ADC_DelSig_2_CFG1_DSM_CR14;
 361              		.loc 1 1271 0
 362 0064 0133     		adds	r3, r3, #1
 363 0066 1D70     		strb	r5, [r3]
1272:Generated_Source\PSoC5/ADC_DelSig_2.c ****         ADC_DelSig_2_DSM_CR15_REG    = ADC_DelSig_2_CFG1_DSM_CR15;
 364              		.loc 1 1272 0
 365 0068 0226     		movs	r6, #2
 366 006a 0233     		adds	r3, r3, #2
 367 006c 1E70     		strb	r6, [r3]
1273:Generated_Source\PSoC5/ADC_DelSig_2.c ****         ADC_DelSig_2_DSM_CR16_REG    = ADC_DelSig_2_CFG1_DSM_CR16;
 368              		.loc 1 1273 0
 369 006e 1222     		movs	r2, #18
 370 0070 0133     		adds	r3, r3, #1
 371 0072 1A70     		strb	r2, [r3]
1274:Generated_Source\PSoC5/ADC_DelSig_2.c ****         ADC_DelSig_2_DSM_CR17_REG    = ADC_DelSig_2_CFG1_DSM_CR17;
 372              		.loc 1 1274 0
 373 0074 2822     		movs	r2, #40
 374 0076 0133     		adds	r3, r3, #1
 375 0078 1A70     		strb	r2, [r3]
1275:Generated_Source\PSoC5/ADC_DelSig_2.c ****         /* Set DSM_REF0_REG by disabling and enabling the PRESS circuit */
 376              		.loc 1 1275 0
 377 007a EB22     		movs	r2, #235
 378 007c 0133     		adds	r3, r3, #1
 379 007e 1A70     		strb	r2, [r3]
1277:Generated_Source\PSoC5/ADC_DelSig_2.c ****         ADC_DelSig_2_DSM_REF2_REG    = ADC_DelSig_2_CFG1_DSM_REF2;
 380              		.loc 1 1277 0
 381 0080 5220     		movs	r0, #82
 382              	.LVL42:
 383 0082 FFF7FEFF 		bl	ADC_DelSig_2_SetDSMRef0Reg
 384              	.LVL43:
1278:Generated_Source\PSoC5/ADC_DelSig_2.c ****         ADC_DelSig_2_DSM_REF3_REG    = ADC_DelSig_2_CFG1_DSM_REF3;
 385              		.loc 1 1278 0
 386 0086 5822     		movs	r2, #88
 387 0088 124B     		ldr	r3, .L28+8
 388 008a 1A70     		strb	r2, [r3]
1279:Generated_Source\PSoC5/ADC_DelSig_2.c **** 
 389              		.loc 1 1279 0
 390 008c 0133     		adds	r3, r3, #1
ARM GAS  C:\Users\vboxuser\AppData\Local\Temp\ccKqkYuE.s 			page 39


 391 008e 1C70     		strb	r4, [r3]
1281:Generated_Source\PSoC5/ADC_DelSig_2.c ****         ADC_DelSig_2_DSM_BUF1_REG    = ADC_DelSig_2_CFG1_DSM_BUF1;
 392              		.loc 1 1281 0
 393 0090 0533     		adds	r3, r3, #5
 394 0092 1E70     		strb	r6, [r3]
1282:Generated_Source\PSoC5/ADC_DelSig_2.c ****         ADC_DelSig_2_DSM_BUF2_REG    = ADC_DelSig_2_CFG1_DSM_BUF2;
 395              		.loc 1 1282 0
 396 0094 0133     		adds	r3, r3, #1
 397 0096 1E70     		strb	r6, [r3]
1283:Generated_Source\PSoC5/ADC_DelSig_2.c ****         ADC_DelSig_2_DSM_BUF3_REG    = ADC_DelSig_2_CFG1_DSM_BUF3;
 398              		.loc 1 1283 0
 399 0098 0133     		adds	r3, r3, #1
 400 009a 1C70     		strb	r4, [r3]
1284:Generated_Source\PSoC5/ADC_DelSig_2.c **** 
 401              		.loc 1 1284 0
 402 009c 0133     		adds	r3, r3, #1
 403 009e 1C70     		strb	r4, [r3]
1293:Generated_Source\PSoC5/ADC_DelSig_2.c ****             #endif /* ADC_DelSig_2_IR_VSSA_TO_2VREF) */
 404              		.loc 1 1293 0
 405 00a0 2046     		mov	r0, r4
 406 00a2 FFF7FEFF 		bl	ADC_DelSig_2_AMux_Select
 407              	.LVL44:
1305:Generated_Source\PSoC5/ADC_DelSig_2.c **** 
 408              		.loc 1 1305 0
 409 00a6 43F23332 		movw	r2, #13107
 410 00aa 0B4B     		ldr	r3, .L28+12
 411 00ac 1A60     		str	r2, [r3]
1307:Generated_Source\PSoC5/ADC_DelSig_2.c **** 
 412              		.loc 1 1307 0
 413 00ae 2946     		mov	r1, r5
 414 00b0 2846     		mov	r0, r5
 415 00b2 FFF7FEFF 		bl	ADC_DelSig_2_Ext_CP_Clk_SetDividerRegister
 416              	.LVL45:
1311:Generated_Source\PSoC5/ADC_DelSig_2.c ****         #endif /* ADC_DelSig_2_DEFAULT_INTERNAL_CLK */
 417              		.loc 1 1311 0
 418 00b6 2946     		mov	r1, r5
 419 00b8 0820     		movs	r0, #8
 420 00ba FFF7FEFF 		bl	ADC_DelSig_2_theACLK_SetDividerRegister
 421              	.LVL46:
1316:Generated_Source\PSoC5/ADC_DelSig_2.c ****         #endif   /* End ADC_DelSig_2_IRQ_REMOVE */
 422              		.loc 1 1316 0
 423 00be 0749     		ldr	r1, .L28+16
 424 00c0 1D20     		movs	r0, #29
 425 00c2 FFF7FEFF 		bl	CyIntSetVector
 426              	.LVL47:
 427 00c6 70BD     		pop	{r4, r5, r6, pc}
 428              	.LVL48:
 429              	.L27:
 430              		.cfi_def_cfa_offset 0
 431              		.cfi_restore 4
 432              		.cfi_restore 5
 433              		.cfi_restore 6
 434              		.cfi_restore 14
 435 00c8 7047     		bx	lr
 436              	.L29:
 437 00ca 00BF     		.align	2
 438              	.L28:
ARM GAS  C:\Users\vboxuser\AppData\Local\Temp\ccKqkYuE.s 			page 40


 439 00cc 00000000 		.word	.LANCHOR0
 440 00d0 004E0040 		.word	1073761792
 441 00d4 94580040 		.word	1073764500
 442 00d8 00000000 		.word	ADC_DelSig_2_CountsPerVolt
 443 00dc 00000000 		.word	ADC_DelSig_2_ISR1
 444              		.cfi_endproc
 445              	.LFE19:
 446              		.size	ADC_DelSig_2_InitConfig, .-ADC_DelSig_2_InitConfig
 447              		.section	.text.ADC_DelSig_2_Init,"ax",%progbits
 448              		.align	2
 449              		.global	ADC_DelSig_2_Init
 450              		.thumb
 451              		.thumb_func
 452              		.type	ADC_DelSig_2_Init, %function
 453              	ADC_DelSig_2_Init:
 454              	.LFB0:
  92:Generated_Source\PSoC5/ADC_DelSig_2.c **** 
 455              		.loc 1 92 0
 456              		.cfi_startproc
 457              		@ args = 0, pretend = 0, frame = 0
 458              		@ frame_needed = 0, uses_anonymous_args = 0
 459 0000 F0B5     		push	{r4, r5, r6, r7, lr}
 460              		.cfi_def_cfa_offset 20
 461              		.cfi_offset 4, -20
 462              		.cfi_offset 5, -16
 463              		.cfi_offset 6, -12
 464              		.cfi_offset 7, -8
 465              		.cfi_offset 14, -4
 466 0002 83B0     		sub	sp, sp, #12
 467              		.cfi_def_cfa_offset 32
  94:Generated_Source\PSoC5/ADC_DelSig_2.c ****     ADC_DelSig_2_convDone = 0u;
 468              		.loc 1 94 0
 469 0004 284D     		ldr	r5, .L32
 470 0006 0127     		movs	r7, #1
 471 0008 2F70     		strb	r7, [r5]
  95:Generated_Source\PSoC5/ADC_DelSig_2.c **** 
 472              		.loc 1 95 0
 473 000a 284E     		ldr	r6, .L32+4
 474 000c 0024     		movs	r4, #0
 475 000e 7471     		strb	r4, [r6, #5]
  97:Generated_Source\PSoC5/ADC_DelSig_2.c **** 
 476              		.loc 1 97 0
 477 0010 1020     		movs	r0, #16
 478 0012 FFF7FEFF 		bl	ADC_DelSig_2_Ext_CP_Clk_SetModeRegister
 479              	.LVL49:
 101:Generated_Source\PSoC5/ADC_DelSig_2.c ****     #endif /* ADC_DelSig_2_DEFAULT_INTERNAL_CLK */
 480              		.loc 1 101 0
 481 0016 1020     		movs	r0, #16
 482 0018 FFF7FEFF 		bl	ADC_DelSig_2_theACLK_SetModeRegister
 483              	.LVL50:
 106:Generated_Source\PSoC5/ADC_DelSig_2.c ****     #endif   /* End ADC_DelSig_2_IRQ_REMOVE */
 484              		.loc 1 106 0
 485 001c 0721     		movs	r1, #7
 486 001e 1D20     		movs	r0, #29
 487 0020 FFF7FEFF 		bl	CyIntSetPriority
 488              	.LVL51:
 110:Generated_Source\PSoC5/ADC_DelSig_2.c ****     ADC_DelSig_2_DSM_DEM1_REG    = ADC_DelSig_2_CFG1_DSM_DEM1;
ARM GAS  C:\Users\vboxuser\AppData\Local\Temp\ccKqkYuE.s 			page 41


 489              		.loc 1 110 0
 490 0024 0422     		movs	r2, #4
 491 0026 224B     		ldr	r3, .L32+8
 492 0028 1A70     		strb	r2, [r3]
 111:Generated_Source\PSoC5/ADC_DelSig_2.c ****     ADC_DelSig_2_DSM_MISC_REG    = ADC_DelSig_2_CFG1_DSM_MISC;
 493              		.loc 1 111 0
 494 002a 0133     		adds	r3, r3, #1
 495 002c 1C70     		strb	r4, [r3]
 112:Generated_Source\PSoC5/ADC_DelSig_2.c ****     ADC_DelSig_2_DSM_CLK_REG    |= ADC_DelSig_2_CFG1_DSM_CLK;
 496              		.loc 1 112 0
 497 002e 0733     		adds	r3, r3, #7
 498 0030 1C70     		strb	r4, [r3]
 113:Generated_Source\PSoC5/ADC_DelSig_2.c ****     ADC_DelSig_2_DSM_REF1_REG    = ADC_DelSig_2_CFG1_DSM_REF1;
 499              		.loc 1 113 0
 500 0032 204A     		ldr	r2, .L32+12
 501 0034 1378     		ldrb	r3, [r2]	@ zero_extendqisi2
 502 0036 43F01803 		orr	r3, r3, #24
 503 003a 1370     		strb	r3, [r2]
 114:Generated_Source\PSoC5/ADC_DelSig_2.c **** 
 504              		.loc 1 114 0
 505 003c 1E4B     		ldr	r3, .L32+16
 506 003e 1C70     		strb	r4, [r3]
 116:Generated_Source\PSoC5/ADC_DelSig_2.c ****     ADC_DelSig_2_DSM_OUT1_REG    = ADC_DelSig_2_CFG1_DSM_OUT1;
 507              		.loc 1 116 0
 508 0040 03F2F523 		addw	r3, r3, #757
 509 0044 1C70     		strb	r4, [r3]
 117:Generated_Source\PSoC5/ADC_DelSig_2.c **** 
 510              		.loc 1 117 0
 511 0046 0133     		adds	r3, r3, #1
 512 0048 1C70     		strb	r4, [r3]
 119:Generated_Source\PSoC5/ADC_DelSig_2.c ****     ADC_DelSig_2_DSM_CR1_REG     = ADC_DelSig_2_CFG1_DSM_CR1;
 513              		.loc 1 119 0
 514 004a 0A22     		movs	r2, #10
 515 004c A3F20933 		subw	r3, r3, #777
 516 0050 1A70     		strb	r2, [r3]
 120:Generated_Source\PSoC5/ADC_DelSig_2.c **** #if(ADC_DelSig_2_MI_ENABLE != 0u) /* Enable Modulator Input */
 517              		.loc 1 120 0
 518 0052 0133     		adds	r3, r3, #1
 519 0054 1C70     		strb	r4, [r3]
 124:Generated_Source\PSoC5/ADC_DelSig_2.c **** #endif /* ADC_DelSig_2_MI_ENABLE != 0u*/    
 520              		.loc 1 124 0
 521 0056 0233     		adds	r3, r3, #2
 522 0058 1C70     		strb	r4, [r3]
 126:Generated_Source\PSoC5/ADC_DelSig_2.c ****     ADC_DelSig_2_DSM_CR9_REG     = ADC_DelSig_2_CFG1_DSM_CR9;
 523              		.loc 1 126 0
 524 005a 5B22     		movs	r2, #91
 525 005c 0533     		adds	r3, r3, #5
 526 005e 1A70     		strb	r2, [r3]
 127:Generated_Source\PSoC5/ADC_DelSig_2.c ****     ADC_DelSig_2_DSM_CR13_REG    = ADC_DelSig_2_CFG1_DSM_CR13;
 527              		.loc 1 127 0
 528 0060 5E22     		movs	r2, #94
 529 0062 0133     		adds	r3, r3, #1
 530 0064 1A70     		strb	r2, [r3]
 128:Generated_Source\PSoC5/ADC_DelSig_2.c **** 
 531              		.loc 1 128 0
 532 0066 0433     		adds	r3, r3, #4
 533 0068 1C70     		strb	r4, [r3]
ARM GAS  C:\Users\vboxuser\AppData\Local\Temp\ccKqkYuE.s 			page 42


 130:Generated_Source\PSoC5/ADC_DelSig_2.c **** 
 534              		.loc 1 130 0
 535 006a 1422     		movs	r2, #20
 536 006c A3F68C23 		subw	r3, r3, #2700
 537 0070 1A70     		strb	r2, [r3]
 133:Generated_Source\PSoC5/ADC_DelSig_2.c ****                                       ADC_DelSig_2_CFG1_IDEAL_DEC_GAIN,
 538              		.loc 1 133 0
 539 0072 0097     		str	r7, [sp]
 540 0074 1023     		movs	r3, #16
 541 0076 4FF40042 		mov	r2, #32768
 542 007a 48F6F051 		movw	r1, #36336
 543 007e 0220     		movs	r0, #2
 544 0080 FFF7FEFF 		bl	ADC_DelSig_2_GainCompensation
 545              	.LVL52:
 161:Generated_Source\PSoC5/ADC_DelSig_2.c ****     CY_SET_REG16(ADC_DelSig_2_DEC_GCOR_16B_PTR, ADC_DelSig_2_gcor[ADC_DelSig_2_Config - 1u].gcor);
 546              		.loc 1 161 0
 547 0084 2B78     		ldrb	r3, [r5]	@ zero_extendqisi2
 548 0086 013B     		subs	r3, r3, #1
 549 0088 06EB8303 		add	r3, r6, r3, lsl #2
 550 008c 9A78     		ldrb	r2, [r3, #2]	@ zero_extendqisi2
 551 008e 0B4B     		ldr	r3, .L32+20
 552 0090 1A70     		strb	r2, [r3]
 162:Generated_Source\PSoC5/ADC_DelSig_2.c **** 
 553              		.loc 1 162 0
 554 0092 2B78     		ldrb	r3, [r5]	@ zero_extendqisi2
 555 0094 013B     		subs	r3, r3, #1
 556 0096 36F82320 		ldrh	r2, [r6, r3, lsl #2]
 557 009a 094B     		ldr	r3, .L32+24
 558 009c 1A80     		strh	r2, [r3]	@ movhi
 165:Generated_Source\PSoC5/ADC_DelSig_2.c **** }
 559              		.loc 1 165 0
 560 009e 2878     		ldrb	r0, [r5]	@ zero_extendqisi2
 561 00a0 FFF7FEFF 		bl	ADC_DelSig_2_InitConfig
 562              	.LVL53:
 166:Generated_Source\PSoC5/ADC_DelSig_2.c **** 
 563              		.loc 1 166 0
 564 00a4 03B0     		add	sp, sp, #12
 565              		.cfi_def_cfa_offset 20
 566              		@ sp needed
 567 00a6 F0BD     		pop	{r4, r5, r6, r7, pc}
 568              	.L33:
 569              		.align	2
 570              	.L32:
 571 00a8 00000000 		.word	.LANCHOR1
 572 00ac 00000000 		.word	.LANCHOR0
 573 00b0 96580040 		.word	1073764502
 574 00b4 075B0040 		.word	1073765127
 575 00b8 93580040 		.word	1073764499
 576 00bc 0E4E0040 		.word	1073761806
 577 00c0 0C4E0040 		.word	1073761804
 578              		.cfi_endproc
 579              	.LFE0:
 580              		.size	ADC_DelSig_2_Init, .-ADC_DelSig_2_Init
 581              		.section	.text.ADC_DelSig_2_Enable,"ax",%progbits
 582              		.align	2
 583              		.global	ADC_DelSig_2_Enable
 584              		.thumb
ARM GAS  C:\Users\vboxuser\AppData\Local\Temp\ccKqkYuE.s 			page 43


 585              		.thumb_func
 586              		.type	ADC_DelSig_2_Enable, %function
 587              	ADC_DelSig_2_Enable:
 588              	.LFB1:
 187:Generated_Source\PSoC5/ADC_DelSig_2.c **** 	uint8 config;
 589              		.loc 1 187 0
 590              		.cfi_startproc
 591              		@ args = 0, pretend = 0, frame = 0
 592              		@ frame_needed = 0, uses_anonymous_args = 0
 593 0000 70B5     		push	{r4, r5, r6, lr}
 594              		.cfi_def_cfa_offset 16
 595              		.cfi_offset 4, -16
 596              		.cfi_offset 5, -12
 597              		.cfi_offset 6, -8
 598              		.cfi_offset 14, -4
 190:Generated_Source\PSoC5/ADC_DelSig_2.c **** 
 599              		.loc 1 190 0
 600 0002 FFF7FEFF 		bl	CyEnterCriticalSection
 601              	.LVL54:
 602 0006 0646     		mov	r6, r0
 603              	.LVL55:
 193:Generated_Source\PSoC5/ADC_DelSig_2.c ****     
 604              		.loc 1 193 0
 605 0008 2A4B     		ldr	r3, .L36
 606 000a 1B78     		ldrb	r3, [r3]	@ zero_extendqisi2
 607              	.LVL56:
 196:Generated_Source\PSoC5/ADC_DelSig_2.c ****     ADC_DelSig_2_PWRMGR_DSM_REG |= ADC_DelSig_2_ACT_PWR_DSM_EN;
 608              		.loc 1 196 0
 609 000c 2A4B     		ldr	r3, .L36+4
 610 000e 1A78     		ldrb	r2, [r3]	@ zero_extendqisi2
 611 0010 42F00102 		orr	r2, r2, #1
 612 0014 1A70     		strb	r2, [r3]
 197:Generated_Source\PSoC5/ADC_DelSig_2.c **** 
 613              		.loc 1 197 0
 614 0016 1A78     		ldrb	r2, [r3]	@ zero_extendqisi2
 615 0018 42F01002 		orr	r2, r2, #16
 616 001c 1A70     		strb	r2, [r3]
 200:Generated_Source\PSoC5/ADC_DelSig_2.c ****     ADC_DelSig_2_STBY_PWRMGR_DSM_REG |= ADC_DelSig_2_STBY_PWR_DSM_EN;
 617              		.loc 1 200 0
 618 001e 1033     		adds	r3, r3, #16
 619 0020 1A78     		ldrb	r2, [r3]	@ zero_extendqisi2
 620 0022 42F00102 		orr	r2, r2, #1
 621 0026 1A70     		strb	r2, [r3]
 201:Generated_Source\PSoC5/ADC_DelSig_2.c **** 
 622              		.loc 1 201 0
 623 0028 1A78     		ldrb	r2, [r3]	@ zero_extendqisi2
 624 002a 42F01002 		orr	r2, r2, #16
 625 002e 1A70     		strb	r2, [r3]
 204:Generated_Source\PSoC5/ADC_DelSig_2.c ****     ADC_DelSig_2_RESET_CR5_REG |= ADC_DelSig_2_IGNORE_PRESA2;
 626              		.loc 1 204 0
 627 0030 224D     		ldr	r5, .L36+8
 628 0032 2B78     		ldrb	r3, [r5]	@ zero_extendqisi2
 629 0034 43F00203 		orr	r3, r3, #2
 630 0038 2B70     		strb	r3, [r5]
 205:Generated_Source\PSoC5/ADC_DelSig_2.c **** 
 631              		.loc 1 205 0
 632 003a 214C     		ldr	r4, .L36+12
ARM GAS  C:\Users\vboxuser\AppData\Local\Temp\ccKqkYuE.s 			page 44


 633 003c 2378     		ldrb	r3, [r4]	@ zero_extendqisi2
 634 003e 43F00203 		orr	r3, r3, #2
 635 0042 2370     		strb	r3, [r4]
 207:Generated_Source\PSoC5/ADC_DelSig_2.c **** 
 636              		.loc 1 207 0
 637 0044 1F4A     		ldr	r2, .L36+16
 638 0046 1378     		ldrb	r3, [r2]	@ zero_extendqisi2
 639 0048 43F00303 		orr	r3, r3, #3
 640 004c 1370     		strb	r3, [r2]
 273:Generated_Source\PSoC5/ADC_DelSig_2.c **** 
 641              		.loc 1 273 0
 642 004e 0320     		movs	r0, #3
 643 0050 FFF7FEFF 		bl	CyDelayUs
 644              	.LVL57:
 276:Generated_Source\PSoC5/ADC_DelSig_2.c ****     ADC_DelSig_2_RESET_CR5_REG &= (uint8)~ADC_DelSig_2_IGNORE_PRESA2;
 645              		.loc 1 276 0
 646 0054 2B78     		ldrb	r3, [r5]	@ zero_extendqisi2
 647 0056 03F0FD03 		and	r3, r3, #253
 648 005a 2B70     		strb	r3, [r5]
 277:Generated_Source\PSoC5/ADC_DelSig_2.c **** 
 649              		.loc 1 277 0
 650 005c 2378     		ldrb	r3, [r4]	@ zero_extendqisi2
 651 005e 03F0FD03 		and	r3, r3, #253
 652 0062 2370     		strb	r3, [r4]
 280:Generated_Source\PSoC5/ADC_DelSig_2.c **** 
 653              		.loc 1 280 0
 654 0064 184A     		ldr	r2, .L36+20
 655 0066 1378     		ldrb	r3, [r2]	@ zero_extendqisi2
 656 0068 43F00603 		orr	r3, r3, #6
 657 006c 1370     		strb	r3, [r2]
 283:Generated_Source\PSoC5/ADC_DelSig_2.c **** 
 658              		.loc 1 283 0
 659 006e 7A22     		movs	r2, #122
 660 0070 164B     		ldr	r3, .L36+24
 661 0072 1A70     		strb	r2, [r3]
 287:Generated_Source\PSoC5/ADC_DelSig_2.c ****         ADC_DelSig_2_STBY_PWRMGR_CLK_REG |= ADC_DelSig_2_STBY_PWR_CLK_EN;
 662              		.loc 1 287 0
 663 0074 164A     		ldr	r2, .L36+28
 664 0076 1378     		ldrb	r3, [r2]	@ zero_extendqisi2
 665 0078 43F00103 		orr	r3, r3, #1
 666 007c 1370     		strb	r3, [r2]
 288:Generated_Source\PSoC5/ADC_DelSig_2.c ****     #endif /* ADC_DelSig_2_DEFAULT_INTERNAL_CLK */
 667              		.loc 1 288 0
 668 007e 1032     		adds	r2, r2, #16
 669 0080 1378     		ldrb	r3, [r2]	@ zero_extendqisi2
 670 0082 43F00103 		orr	r3, r3, #1
 671 0086 1370     		strb	r3, [r2]
 292:Generated_Source\PSoC5/ADC_DelSig_2.c ****     ADC_DelSig_2_STBY_PWRMGR_CHARGE_PUMP_CLK_REG |= ADC_DelSig_2_STBY_PWR_CHARGE_PUMP_CLK_EN;
 672              		.loc 1 292 0
 673 0088 0F3A     		subs	r2, r2, #15
 674 008a 1378     		ldrb	r3, [r2]	@ zero_extendqisi2
 675 008c 43F00103 		orr	r3, r3, #1
 676 0090 1370     		strb	r3, [r2]
 293:Generated_Source\PSoC5/ADC_DelSig_2.c **** 
 677              		.loc 1 293 0
 678 0092 1032     		adds	r2, r2, #16
 679 0094 1378     		ldrb	r3, [r2]	@ zero_extendqisi2
ARM GAS  C:\Users\vboxuser\AppData\Local\Temp\ccKqkYuE.s 			page 45


 680 0096 43F00103 		orr	r3, r3, #1
 681 009a 1370     		strb	r3, [r2]
 297:Generated_Source\PSoC5/ADC_DelSig_2.c ****         /* Enable interrupt */
 682              		.loc 1 297 0
 683 009c 4FF00053 		mov	r3, #536870912
 684 00a0 0C4A     		ldr	r2, .L36+32
 685 00a2 1360     		str	r3, [r2]
 299:Generated_Source\PSoC5/ADC_DelSig_2.c ****     #endif   /* End ADC_DelSig_2_IRQ_REMOVE */
 686              		.loc 1 299 0
 687 00a4 A2F5C072 		sub	r2, r2, #384
 688 00a8 1360     		str	r3, [r2]
 302:Generated_Source\PSoC5/ADC_DelSig_2.c **** 
 689              		.loc 1 302 0
 690 00aa 3046     		mov	r0, r6
 691 00ac FFF7FEFF 		bl	CyExitCriticalSection
 692              	.LVL58:
 693 00b0 70BD     		pop	{r4, r5, r6, pc}
 694              	.LVL59:
 695              	.L37:
 696 00b2 00BF     		.align	2
 697              	.L36:
 698 00b4 00000000 		.word	.LANCHOR1
 699 00b8 AA430040 		.word	1073759146
 700 00bc F8460040 		.word	1073759992
 701 00c0 F9460040 		.word	1073759993
 702 00c4 91580040 		.word	1073764497
 703 00c8 77580040 		.word	1073764471
 704 00cc 82580040 		.word	1073764482
 705 00d0 A1430040 		.word	1073759137
 706 00d4 80E200E0 		.word	-536812928
 707              		.cfi_endproc
 708              	.LFE1:
 709              		.size	ADC_DelSig_2_Enable, .-ADC_DelSig_2_Enable
 710              		.section	.text.ADC_DelSig_2_Start,"ax",%progbits
 711              		.align	2
 712              		.global	ADC_DelSig_2_Start
 713              		.thumb
 714              		.thumb_func
 715              		.type	ADC_DelSig_2_Start, %function
 716              	ADC_DelSig_2_Start:
 717              	.LFB2:
 335:Generated_Source\PSoC5/ADC_DelSig_2.c ****     if(ADC_DelSig_2_initVar == 0u)
 718              		.loc 1 335 0
 719              		.cfi_startproc
 720              		@ args = 0, pretend = 0, frame = 0
 721              		@ frame_needed = 0, uses_anonymous_args = 0
 722 0000 08B5     		push	{r3, lr}
 723              		.cfi_def_cfa_offset 8
 724              		.cfi_offset 3, -8
 725              		.cfi_offset 14, -4
 336:Generated_Source\PSoC5/ADC_DelSig_2.c ****     {
 726              		.loc 1 336 0
 727 0002 084B     		ldr	r3, .L42
 728 0004 9B79     		ldrb	r3, [r3, #6]	@ zero_extendqisi2
 729 0006 4BB9     		cbnz	r3, .L39
 338:Generated_Source\PSoC5/ADC_DelSig_2.c ****         {
 730              		.loc 1 338 0
ARM GAS  C:\Users\vboxuser\AppData\Local\Temp\ccKqkYuE.s 			page 46


 731 0008 064B     		ldr	r3, .L42
 732 000a DB79     		ldrb	r3, [r3, #7]	@ zero_extendqisi2
 733 000c 13F0FF0F 		tst	r3, #255
 734 0010 01D1     		bne	.L40
 340:Generated_Source\PSoC5/ADC_DelSig_2.c ****         }
 735              		.loc 1 340 0
 736 0012 FFF7FEFF 		bl	ADC_DelSig_2_Init
 737              	.LVL60:
 738              	.L40:
 342:Generated_Source\PSoC5/ADC_DelSig_2.c ****     }
 739              		.loc 1 342 0
 740 0016 0122     		movs	r2, #1
 741 0018 024B     		ldr	r3, .L42
 742 001a 9A71     		strb	r2, [r3, #6]
 743              	.L39:
 346:Generated_Source\PSoC5/ADC_DelSig_2.c **** }
 744              		.loc 1 346 0
 745 001c FFF7FEFF 		bl	ADC_DelSig_2_Enable
 746              	.LVL61:
 747 0020 08BD     		pop	{r3, pc}
 748              	.L43:
 749 0022 00BF     		.align	2
 750              	.L42:
 751 0024 00000000 		.word	.LANCHOR0
 752              		.cfi_endproc
 753              	.LFE2:
 754              		.size	ADC_DelSig_2_Start, .-ADC_DelSig_2_Start
 755              		.section	.text.ADC_DelSig_2_Stop,"ax",%progbits
 756              		.align	2
 757              		.global	ADC_DelSig_2_Stop
 758              		.thumb
 759              		.thumb_func
 760              		.type	ADC_DelSig_2_Stop, %function
 761              	ADC_DelSig_2_Stop:
 762              	.LFB3:
 368:Generated_Source\PSoC5/ADC_DelSig_2.c ****     uint8 enableInterrupts;
 763              		.loc 1 368 0
 764              		.cfi_startproc
 765              		@ args = 0, pretend = 0, frame = 0
 766              		@ frame_needed = 0, uses_anonymous_args = 0
 767 0000 70B5     		push	{r4, r5, r6, lr}
 768              		.cfi_def_cfa_offset 16
 769              		.cfi_offset 4, -16
 770              		.cfi_offset 5, -12
 771              		.cfi_offset 6, -8
 772              		.cfi_offset 14, -4
 370:Generated_Source\PSoC5/ADC_DelSig_2.c **** 
 773              		.loc 1 370 0
 774 0002 FFF7FEFF 		bl	CyEnterCriticalSection
 775              	.LVL62:
 776 0006 0646     		mov	r6, r0
 777              	.LVL63:
 373:Generated_Source\PSoC5/ADC_DelSig_2.c ****     ADC_DelSig_2_DEC_SR_REG |=  ADC_DelSig_2_DEC_INTR_CLEAR;
 778              		.loc 1 373 0
 779 0008 314A     		ldr	r2, .L46
 780 000a 1378     		ldrb	r3, [r2]	@ zero_extendqisi2
 781 000c 03F0FE03 		and	r3, r3, #254
ARM GAS  C:\Users\vboxuser\AppData\Local\Temp\ccKqkYuE.s 			page 47


 782 0010 1370     		strb	r3, [r2]
 374:Generated_Source\PSoC5/ADC_DelSig_2.c **** 
 783              		.loc 1 374 0
 784 0012 0132     		adds	r2, r2, #1
 785 0014 1378     		ldrb	r3, [r2]	@ zero_extendqisi2
 786 0016 43F00403 		orr	r3, r3, #4
 787 001a 1370     		strb	r3, [r2]
 378:Generated_Source\PSoC5/ADC_DelSig_2.c ****     ADC_DelSig_2_RESET_CR5_REG |= ADC_DelSig_2_IGNORE_PRESA2;
 788              		.loc 1 378 0
 789 001c 2D4D     		ldr	r5, .L46+4
 790 001e 2B78     		ldrb	r3, [r5]	@ zero_extendqisi2
 791 0020 43F00203 		orr	r3, r3, #2
 792 0024 2B70     		strb	r3, [r5]
 379:Generated_Source\PSoC5/ADC_DelSig_2.c **** 
 793              		.loc 1 379 0
 794 0026 2C4C     		ldr	r4, .L46+8
 795 0028 2378     		ldrb	r3, [r4]	@ zero_extendqisi2
 796 002a 43F00203 		orr	r3, r3, #2
 797 002e 2370     		strb	r3, [r4]
 381:Generated_Source\PSoC5/ADC_DelSig_2.c ****     ADC_DelSig_2_DSM_REF0_REG &= (uint8)~ADC_DelSig_2_DSM_EN_BUF_VREF_INN;
 798              		.loc 1 381 0
 799 0030 02F52962 		add	r2, r2, #2704
 800 0034 1378     		ldrb	r3, [r2]	@ zero_extendqisi2
 801 0036 03F0FC03 		and	r3, r3, #252
 802 003a 1370     		strb	r3, [r2]
 382:Generated_Source\PSoC5/ADC_DelSig_2.c **** 
 803              		.loc 1 382 0
 804 003c 0132     		adds	r2, r2, #1
 805 003e 1378     		ldrb	r3, [r2]	@ zero_extendqisi2
 806 0040 03F0F703 		and	r3, r3, #247
 807 0044 1370     		strb	r3, [r2]
 385:Generated_Source\PSoC5/ADC_DelSig_2.c **** 
 808              		.loc 1 385 0
 809 0046 0320     		movs	r0, #3
 810 0048 FFF7FEFF 		bl	CyDelayUs
 811              	.LVL64:
 388:Generated_Source\PSoC5/ADC_DelSig_2.c ****     ADC_DelSig_2_RESET_CR5_REG &= (uint8)~ADC_DelSig_2_IGNORE_PRESA2;
 812              		.loc 1 388 0
 813 004c 2B78     		ldrb	r3, [r5]	@ zero_extendqisi2
 814 004e 03F0FD03 		and	r3, r3, #253
 815 0052 2B70     		strb	r3, [r5]
 389:Generated_Source\PSoC5/ADC_DelSig_2.c **** 
 816              		.loc 1 389 0
 817 0054 2378     		ldrb	r3, [r4]	@ zero_extendqisi2
 818 0056 03F0FD03 		and	r3, r3, #253
 819 005a 2370     		strb	r3, [r4]
 392:Generated_Source\PSoC5/ADC_DelSig_2.c **** 
 820              		.loc 1 392 0
 821 005c 1F4B     		ldr	r3, .L46+12
 822 005e 1A78     		ldrb	r2, [r3]	@ zero_extendqisi2
 823 0060 02F0EF02 		and	r2, r2, #239
 824 0064 1A70     		strb	r2, [r3]
 395:Generated_Source\PSoC5/ADC_DelSig_2.c **** 
 825              		.loc 1 395 0
 826 0066 1A78     		ldrb	r2, [r3]	@ zero_extendqisi2
 827 0068 02F0FE02 		and	r2, r2, #254
 828 006c 1A70     		strb	r2, [r3]
ARM GAS  C:\Users\vboxuser\AppData\Local\Temp\ccKqkYuE.s 			page 48


 398:Generated_Source\PSoC5/ADC_DelSig_2.c ****     ADC_DelSig_2_STBY_PWRMGR_DSM_REG &= (uint8)~ADC_DelSig_2_STBY_PWR_DSM_EN;
 829              		.loc 1 398 0
 830 006e 1033     		adds	r3, r3, #16
 831 0070 1A78     		ldrb	r2, [r3]	@ zero_extendqisi2
 832 0072 02F0FE02 		and	r2, r2, #254
 833 0076 1A70     		strb	r2, [r3]
 399:Generated_Source\PSoC5/ADC_DelSig_2.c **** 
 834              		.loc 1 399 0
 835 0078 1A78     		ldrb	r2, [r3]	@ zero_extendqisi2
 836 007a 02F0EF02 		and	r2, r2, #239
 837 007e 1A70     		strb	r2, [r3]
 402:Generated_Source\PSoC5/ADC_DelSig_2.c **** 
 838              		.loc 1 402 0
 839 0080 174A     		ldr	r2, .L46+16
 840 0082 1378     		ldrb	r3, [r2]	@ zero_extendqisi2
 841 0084 03F0F903 		and	r3, r3, #249
 842 0088 1370     		strb	r3, [r2]
 406:Generated_Source\PSoC5/ADC_DelSig_2.c ****         ADC_DelSig_2_STBY_PWRMGR_CLK_REG &= (uint8)~ADC_DelSig_2_STBY_PWR_CLK_EN;
 843              		.loc 1 406 0
 844 008a A2F5A652 		sub	r2, r2, #5312
 845 008e 163A     		subs	r2, r2, #22
 846 0090 1378     		ldrb	r3, [r2]	@ zero_extendqisi2
 847 0092 03F0FE03 		and	r3, r3, #254
 848 0096 1370     		strb	r3, [r2]
 407:Generated_Source\PSoC5/ADC_DelSig_2.c ****     #endif /* ADC_DelSig_2_DEFAULT_INTERNAL_CLK */
 849              		.loc 1 407 0
 850 0098 1032     		adds	r2, r2, #16
 851 009a 1378     		ldrb	r3, [r2]	@ zero_extendqisi2
 852 009c 03F0FE03 		and	r3, r3, #254
 853 00a0 1370     		strb	r3, [r2]
 411:Generated_Source\PSoC5/ADC_DelSig_2.c ****     /* Disable power to charge pump clock */
 854              		.loc 1 411 0
 855 00a2 02F5A652 		add	r2, r2, #5312
 856 00a6 1132     		adds	r2, r2, #17
 857 00a8 1378     		ldrb	r3, [r2]	@ zero_extendqisi2
 858 00aa 03F0F703 		and	r3, r3, #247
 859 00ae 1370     		strb	r3, [r2]
 413:Generated_Source\PSoC5/ADC_DelSig_2.c ****     ADC_DelSig_2_STBY_PWRMGR_CHARGE_PUMP_CLK_REG &= (uint8)~ADC_DelSig_2_STBY_PWR_CHARGE_PUMP_CLK_E
 860              		.loc 1 413 0
 861 00b0 A2F5A752 		sub	r2, r2, #5344
 862 00b4 1378     		ldrb	r3, [r2]	@ zero_extendqisi2
 863 00b6 03F0FE03 		and	r3, r3, #254
 864 00ba 1370     		strb	r3, [r2]
 414:Generated_Source\PSoC5/ADC_DelSig_2.c ****     
 865              		.loc 1 414 0
 866 00bc 1032     		adds	r2, r2, #16
 867 00be 1378     		ldrb	r3, [r2]	@ zero_extendqisi2
 868 00c0 03F0FE03 		and	r3, r3, #254
 869 00c4 1370     		strb	r3, [r2]
 416:Generated_Source\PSoC5/ADC_DelSig_2.c **** }
 870              		.loc 1 416 0
 871 00c6 3046     		mov	r0, r6
 872 00c8 FFF7FEFF 		bl	CyExitCriticalSection
 873              	.LVL65:
 874 00cc 70BD     		pop	{r4, r5, r6, pc}
 875              	.LVL66:
 876              	.L47:
ARM GAS  C:\Users\vboxuser\AppData\Local\Temp\ccKqkYuE.s 			page 49


 877 00ce 00BF     		.align	2
 878              	.L46:
 879 00d0 004E0040 		.word	1073761792
 880 00d4 F8460040 		.word	1073759992
 881 00d8 F9460040 		.word	1073759993
 882 00dc AA430040 		.word	1073759146
 883 00e0 77580040 		.word	1073764471
 884              		.cfi_endproc
 885              	.LFE3:
 886              		.size	ADC_DelSig_2_Stop, .-ADC_DelSig_2_Stop
 887              		.section	.text.ADC_DelSig_2_SetBufferGain,"ax",%progbits
 888              		.align	2
 889              		.global	ADC_DelSig_2_SetBufferGain
 890              		.thumb
 891              		.thumb_func
 892              		.type	ADC_DelSig_2_SetBufferGain, %function
 893              	ADC_DelSig_2_SetBufferGain:
 894              	.LFB4:
 435:Generated_Source\PSoC5/ADC_DelSig_2.c ****     uint8 tmpReg;
 895              		.loc 1 435 0
 896              		.cfi_startproc
 897              		@ args = 0, pretend = 0, frame = 0
 898              		@ frame_needed = 0, uses_anonymous_args = 0
 899              		@ link register save eliminated.
 900              	.LVL67:
 437:Generated_Source\PSoC5/ADC_DelSig_2.c ****     tmpReg |= (uint8)(gain << ADC_DelSig_2_DSM_GAIN_SHIFT) & ADC_DelSig_2_DSM_GAIN_MASK;
 901              		.loc 1 437 0
 902 0000 044A     		ldr	r2, .L49
 903 0002 1378     		ldrb	r3, [r2]	@ zero_extendqisi2
 904 0004 03F0F303 		and	r3, r3, #243
 905              	.LVL68:
 438:Generated_Source\PSoC5/ADC_DelSig_2.c ****     ADC_DelSig_2_DSM_BUF1_REG = tmpReg;
 906              		.loc 1 438 0
 907 0008 8000     		lsls	r0, r0, #2
 908              	.LVL69:
 909 000a 00F00C00 		and	r0, r0, #12
 910 000e 1843     		orrs	r0, r0, r3
 911              	.LVL70:
 439:Generated_Source\PSoC5/ADC_DelSig_2.c **** }
 912              		.loc 1 439 0
 913 0010 1070     		strb	r0, [r2]
 914 0012 7047     		bx	lr
 915              	.L50:
 916              		.align	2
 917              	.L49:
 918 0014 9B580040 		.word	1073764507
 919              		.cfi_endproc
 920              	.LFE4:
 921              		.size	ADC_DelSig_2_SetBufferGain, .-ADC_DelSig_2_SetBufferGain
 922              		.section	.text.ADC_DelSig_2_SetCoherency,"ax",%progbits
 923              		.align	2
 924              		.global	ADC_DelSig_2_SetCoherency
 925              		.thumb
 926              		.thumb_func
 927              		.type	ADC_DelSig_2_SetCoherency, %function
 928              	ADC_DelSig_2_SetCoherency:
 929              	.LFB5:
ARM GAS  C:\Users\vboxuser\AppData\Local\Temp\ccKqkYuE.s 			page 50


 471:Generated_Source\PSoC5/ADC_DelSig_2.c ****     uint8 tmpReg;
 930              		.loc 1 471 0
 931              		.cfi_startproc
 932              		@ args = 0, pretend = 0, frame = 0
 933              		@ frame_needed = 0, uses_anonymous_args = 0
 934              		@ link register save eliminated.
 935              	.LVL71:
 474:Generated_Source\PSoC5/ADC_DelSig_2.c ****     tmpReg |= coherency & ADC_DelSig_2_DEC_SAMP_KEY_MASK;
 936              		.loc 1 474 0
 937 0000 044A     		ldr	r2, .L52
 938 0002 1378     		ldrb	r3, [r2]	@ zero_extendqisi2
 939 0004 03F0FC03 		and	r3, r3, #252
 940              	.LVL72:
 475:Generated_Source\PSoC5/ADC_DelSig_2.c ****     ADC_DelSig_2_DEC_COHER_REG = tmpReg;
 941              		.loc 1 475 0
 942 0008 00F00300 		and	r0, r0, #3
 943              	.LVL73:
 944 000c 1843     		orrs	r0, r0, r3
 945              	.LVL74:
 476:Generated_Source\PSoC5/ADC_DelSig_2.c **** }
 946              		.loc 1 476 0
 947 000e 1070     		strb	r0, [r2]
 948 0010 7047     		bx	lr
 949              	.L53:
 950 0012 00BF     		.align	2
 951              	.L52:
 952 0014 144E0040 		.word	1073761812
 953              		.cfi_endproc
 954              	.LFE5:
 955              		.size	ADC_DelSig_2_SetCoherency, .-ADC_DelSig_2_SetCoherency
 956              		.global	__aeabi_ui2f
 957              		.global	__aeabi_fmul
 958              		.global	__aeabi_f2d
 959              		.global	__aeabi_dcmpgt
 960              		.global	__aeabi_f2uiz
 961              		.section	.text.ADC_DelSig_2_SetGCOR,"ax",%progbits
 962              		.align	2
 963              		.global	ADC_DelSig_2_SetGCOR
 964              		.thumb
 965              		.thumb_func
 966              		.type	ADC_DelSig_2_SetGCOR, %function
 967              	ADC_DelSig_2_SetGCOR:
 968              	.LFB6:
 511:Generated_Source\PSoC5/ADC_DelSig_2.c ****     uint16 tmpReg;
 969              		.loc 1 511 0
 970              		.cfi_startproc
 971              		@ args = 0, pretend = 0, frame = 0
 972              		@ frame_needed = 0, uses_anonymous_args = 0
 973              	.LVL75:
 974 0000 10B5     		push	{r4, lr}
 975              		.cfi_def_cfa_offset 8
 976              		.cfi_offset 4, -8
 977              		.cfi_offset 14, -4
 978 0002 0446     		mov	r4, r0
 516:Generated_Source\PSoC5/ADC_DelSig_2.c ****     tmpValue = ((float32)tmpReg / (float32)ADC_DelSig_2_IDEAL_GAIN_CONST);
 979              		.loc 1 516 0
 980 0004 184B     		ldr	r3, .L58+8
ARM GAS  C:\Users\vboxuser\AppData\Local\Temp\ccKqkYuE.s 			page 51


 981 0006 1B78     		ldrb	r3, [r3]	@ zero_extendqisi2
 982 0008 013B     		subs	r3, r3, #1
 983              	.LVL76:
 517:Generated_Source\PSoC5/ADC_DelSig_2.c ****     tmpValue = tmpValue * gainAdjust;
 984              		.loc 1 517 0
 985 000a 184A     		ldr	r2, .L58+12
 986 000c 32F82300 		ldrh	r0, [r2, r3, lsl #2]
 987              	.LVL77:
 988 0010 FFF7FEFF 		bl	__aeabi_ui2f
 989              	.LVL78:
 990 0014 4FF06051 		mov	r1, #939524096
 991 0018 FFF7FEFF 		bl	__aeabi_fmul
 992              	.LVL79:
 518:Generated_Source\PSoC5/ADC_DelSig_2.c **** 
 993              		.loc 1 518 0
 994 001c 2146     		mov	r1, r4
 995 001e FFF7FEFF 		bl	__aeabi_fmul
 996              	.LVL80:
 997 0022 0446     		mov	r4, r0
 998              	.LVL81:
 520:Generated_Source\PSoC5/ADC_DelSig_2.c ****     {
 999              		.loc 1 520 0
 1000 0024 FFF7FEFF 		bl	__aeabi_f2d
 1001              	.LVL82:
 1002 0028 0DA3     		adr	r3, .L58
 1003 002a D3E90023 		ldrd	r2, [r3]
 1004 002e FFF7FEFF 		bl	__aeabi_dcmpgt
 1005              	.LVL83:
 1006 0032 88B9     		cbnz	r0, .L56
 526:Generated_Source\PSoC5/ADC_DelSig_2.c **** 		tmpReg = (uint16)tmpValue;
 1007              		.loc 1 526 0
 1008 0034 4FF08E41 		mov	r1, #1191182336
 1009 0038 2046     		mov	r0, r4
 1010 003a FFF7FEFF 		bl	__aeabi_fmul
 1011              	.LVL84:
 527:Generated_Source\PSoC5/ADC_DelSig_2.c ****         CY_SET_REG16(ADC_DelSig_2_DEC_GCOR_16B_PTR, tmpReg);
 1012              		.loc 1 527 0
 1013 003e FFF7FEFF 		bl	__aeabi_f2uiz
 1014              	.LVL85:
 1015 0042 80B2     		uxth	r0, r0
 1016              	.LVL86:
 528:Generated_Source\PSoC5/ADC_DelSig_2.c ****         /* Update gain array to be used by SelectConfiguration() API */
 1017              		.loc 1 528 0
 1018 0044 0A4B     		ldr	r3, .L58+16
 1019 0046 1880     		strh	r0, [r3]	@ movhi
 530:Generated_Source\PSoC5/ADC_DelSig_2.c **** 
 1020              		.loc 1 530 0
 1021 0048 074B     		ldr	r3, .L58+8
 1022 004a 1B78     		ldrb	r3, [r3]	@ zero_extendqisi2
 1023 004c 013B     		subs	r3, r3, #1
 1024 004e 074A     		ldr	r2, .L58+12
 1025 0050 22F82300 		strh	r0, [r2, r3, lsl #2]	@ movhi
 1026              	.LVL87:
 532:Generated_Source\PSoC5/ADC_DelSig_2.c **** 
 1027              		.loc 1 532 0
 1028 0054 0020     		movs	r0, #0
 1029              	.LVL88:
ARM GAS  C:\Users\vboxuser\AppData\Local\Temp\ccKqkYuE.s 			page 52


 1030 0056 10BD     		pop	{r4, pc}
 1031              	.LVL89:
 1032              	.L56:
 522:Generated_Source\PSoC5/ADC_DelSig_2.c ****     }
 1033              		.loc 1 522 0
 1034 0058 0120     		movs	r0, #1
 1035              	.LVL90:
 536:Generated_Source\PSoC5/ADC_DelSig_2.c **** 
 1036              		.loc 1 536 0
 1037 005a 10BD     		pop	{r4, pc}
 1038              	.LVL91:
 1039              	.L59:
 1040 005c AFF30080 		.align	3
 1041              	.L58:
 1042 0060 8F537424 		.word	611603343
 1043 0064 97FFFF3F 		.word	1073741719
 1044 0068 00000000 		.word	.LANCHOR1
 1045 006c 00000000 		.word	.LANCHOR0
 1046 0070 0C4E0040 		.word	1073761804
 1047              		.cfi_endproc
 1048              	.LFE6:
 1049              		.size	ADC_DelSig_2_SetGCOR, .-ADC_DelSig_2_SetGCOR
 1050              		.section	.text.ADC_DelSig_2_ReadGCOR,"ax",%progbits
 1051              		.align	2
 1052              		.global	ADC_DelSig_2_ReadGCOR
 1053              		.thumb
 1054              		.thumb_func
 1055              		.type	ADC_DelSig_2_ReadGCOR, %function
 1056              	ADC_DelSig_2_ReadGCOR:
 1057              	.LFB7:
 558:Generated_Source\PSoC5/ADC_DelSig_2.c ****     uint8 gValue;
 1058              		.loc 1 558 0
 1059              		.cfi_startproc
 1060              		@ args = 0, pretend = 0, frame = 0
 1061              		@ frame_needed = 0, uses_anonymous_args = 0
 1062              		@ link register save eliminated.
 562:Generated_Source\PSoC5/ADC_DelSig_2.c ****     gcorValue = CY_GET_REG16(ADC_DelSig_2_DEC_GCOR_16B_PTR);
 1063              		.loc 1 562 0
 1064 0000 064B     		ldr	r3, .L62
 1065 0002 1B78     		ldrb	r3, [r3]	@ zero_extendqisi2
 1066 0004 DBB2     		uxtb	r3, r3
 1067              	.LVL92:
 563:Generated_Source\PSoC5/ADC_DelSig_2.c **** 
 1068              		.loc 1 563 0
 1069 0006 064A     		ldr	r2, .L62+4
 1070 0008 1088     		ldrh	r0, [r2]
 1071 000a 80B2     		uxth	r0, r0
 1072              	.LVL93:
 565:Generated_Source\PSoC5/ADC_DelSig_2.c ****     {
 1073              		.loc 1 565 0
 1074 000c 0E2B     		cmp	r3, #14
 1075 000e 03D8     		bhi	.L61
 567:Generated_Source\PSoC5/ADC_DelSig_2.c ****     }
 1076              		.loc 1 567 0
 1077 0010 C3F10F03 		rsb	r3, r3, #15
 1078              	.LVL94:
 1079 0014 9840     		lsls	r0, r0, r3
ARM GAS  C:\Users\vboxuser\AppData\Local\Temp\ccKqkYuE.s 			page 53


 1080              	.LVL95:
 1081 0016 80B2     		uxth	r0, r0
 1082              	.LVL96:
 1083              	.L61:
 571:Generated_Source\PSoC5/ADC_DelSig_2.c **** 
 1084              		.loc 1 571 0
 1085 0018 7047     		bx	lr
 1086              	.L63:
 1087 001a 00BF     		.align	2
 1088              	.L62:
 1089 001c 0E4E0040 		.word	1073761806
 1090 0020 0C4E0040 		.word	1073761804
 1091              		.cfi_endproc
 1092              	.LFE7:
 1093              		.size	ADC_DelSig_2_ReadGCOR, .-ADC_DelSig_2_ReadGCOR
 1094              		.section	.text.ADC_DelSig_2_StartConvert,"ax",%progbits
 1095              		.align	2
 1096              		.global	ADC_DelSig_2_StartConvert
 1097              		.thumb
 1098              		.thumb_func
 1099              		.type	ADC_DelSig_2_StartConvert, %function
 1100              	ADC_DelSig_2_StartConvert:
 1101              	.LFB8:
 592:Generated_Source\PSoC5/ADC_DelSig_2.c ****     /* Start the conversion */
 1102              		.loc 1 592 0
 1103              		.cfi_startproc
 1104              		@ args = 0, pretend = 0, frame = 0
 1105              		@ frame_needed = 0, uses_anonymous_args = 0
 1106              		@ link register save eliminated.
 594:Generated_Source\PSoC5/ADC_DelSig_2.c **** }
 1107              		.loc 1 594 0
 1108 0000 024A     		ldr	r2, .L65
 1109 0002 1378     		ldrb	r3, [r2]	@ zero_extendqisi2
 1110 0004 43F00103 		orr	r3, r3, #1
 1111 0008 1370     		strb	r3, [r2]
 1112 000a 7047     		bx	lr
 1113              	.L66:
 1114              		.align	2
 1115              	.L65:
 1116 000c 004E0040 		.word	1073761792
 1117              		.cfi_endproc
 1118              	.LFE8:
 1119              		.size	ADC_DelSig_2_StartConvert, .-ADC_DelSig_2_StartConvert
 1120              		.section	.text.ADC_DelSig_2_StopConvert,"ax",%progbits
 1121              		.align	2
 1122              		.global	ADC_DelSig_2_StopConvert
 1123              		.thumb
 1124              		.thumb_func
 1125              		.type	ADC_DelSig_2_StopConvert, %function
 1126              	ADC_DelSig_2_StopConvert:
 1127              	.LFB9:
 615:Generated_Source\PSoC5/ADC_DelSig_2.c ****     /* Stop all conversions */
 1128              		.loc 1 615 0
 1129              		.cfi_startproc
 1130              		@ args = 0, pretend = 0, frame = 0
 1131              		@ frame_needed = 0, uses_anonymous_args = 0
 1132              		@ link register save eliminated.
ARM GAS  C:\Users\vboxuser\AppData\Local\Temp\ccKqkYuE.s 			page 54


 617:Generated_Source\PSoC5/ADC_DelSig_2.c **** }
 1133              		.loc 1 617 0
 1134 0000 024A     		ldr	r2, .L68
 1135 0002 1378     		ldrb	r3, [r2]	@ zero_extendqisi2
 1136 0004 03F0FE03 		and	r3, r3, #254
 1137 0008 1370     		strb	r3, [r2]
 1138 000a 7047     		bx	lr
 1139              	.L69:
 1140              		.align	2
 1141              	.L68:
 1142 000c 004E0040 		.word	1073761792
 1143              		.cfi_endproc
 1144              	.LFE9:
 1145              		.size	ADC_DelSig_2_StopConvert, .-ADC_DelSig_2_StopConvert
 1146              		.section	.text.ADC_DelSig_2_IsEndConversion,"ax",%progbits
 1147              		.align	2
 1148              		.global	ADC_DelSig_2_IsEndConversion
 1149              		.thumb
 1150              		.thumb_func
 1151              		.type	ADC_DelSig_2_IsEndConversion, %function
 1152              	ADC_DelSig_2_IsEndConversion:
 1153              	.LFB10:
 650:Generated_Source\PSoC5/ADC_DelSig_2.c ****     uint8 status;
 1154              		.loc 1 650 0
 1155              		.cfi_startproc
 1156              		@ args = 0, pretend = 0, frame = 0
 1157              		@ frame_needed = 0, uses_anonymous_args = 0
 1158              		@ link register save eliminated.
 1159              	.LVL97:
 1160              	.L74:
 658:Generated_Source\PSoC5/ADC_DelSig_2.c ****         {
 1161              		.loc 1 658 0
 1162 0000 094B     		ldr	r3, .L75
 1163 0002 1B79     		ldrb	r3, [r3, #4]	@ zero_extendqisi2
 1164 0004 13F0FF0F 		tst	r3, #255
 1165 0008 03D0     		beq	.L71
 660:Generated_Source\PSoC5/ADC_DelSig_2.c ****         }
 1166              		.loc 1 660 0
 1167 000a 074B     		ldr	r3, .L75
 1168 000c 5B79     		ldrb	r3, [r3, #5]	@ zero_extendqisi2
 1169 000e DBB2     		uxtb	r3, r3
 1170              	.LVL98:
 1171 0010 03E0     		b	.L72
 1172              	.LVL99:
 1173              	.L71:
 664:Generated_Source\PSoC5/ADC_DelSig_2.c ****         }
 1174              		.loc 1 664 0
 1175 0012 064B     		ldr	r3, .L75+4
 1176 0014 1B78     		ldrb	r3, [r3]	@ zero_extendqisi2
 1177 0016 03F00103 		and	r3, r3, #1
 1178              	.LVL100:
 1179              	.L72:
 666:Generated_Source\PSoC5/ADC_DelSig_2.c **** 
 1180              		.loc 1 666 0
 1181 001a 012B     		cmp	r3, #1
 1182 001c 01D0     		beq	.L73
 666:Generated_Source\PSoC5/ADC_DelSig_2.c **** 
ARM GAS  C:\Users\vboxuser\AppData\Local\Temp\ccKqkYuE.s 			page 55


 1183              		.loc 1 666 0 is_stmt 0 discriminator 1
 1184 001e 0028     		cmp	r0, #0
 1185 0020 EED0     		beq	.L74
 1186              	.L73:
 669:Generated_Source\PSoC5/ADC_DelSig_2.c **** 
 1187              		.loc 1 669 0 is_stmt 1
 1188 0022 1846     		mov	r0, r3
 1189              	.LVL101:
 1190 0024 7047     		bx	lr
 1191              	.L76:
 1192 0026 00BF     		.align	2
 1193              	.L75:
 1194 0028 00000000 		.word	.LANCHOR0
 1195 002c 014E0040 		.word	1073761793
 1196              		.cfi_endproc
 1197              	.LFE10:
 1198              		.size	ADC_DelSig_2_IsEndConversion, .-ADC_DelSig_2_IsEndConversion
 1199              		.section	.text.ADC_DelSig_2_GetResult8,"ax",%progbits
 1200              		.align	2
 1201              		.global	ADC_DelSig_2_GetResult8
 1202              		.thumb
 1203              		.thumb_func
 1204              		.type	ADC_DelSig_2_GetResult8, %function
 1205              	ADC_DelSig_2_GetResult8:
 1206              	.LFB11:
 697:Generated_Source\PSoC5/ADC_DelSig_2.c ****     int8 result;
 1207              		.loc 1 697 0
 1208              		.cfi_startproc
 1209              		@ args = 0, pretend = 0, frame = 0
 1210              		@ frame_needed = 0, uses_anonymous_args = 0
 1211              		@ link register save eliminated.
 702:Generated_Source\PSoC5/ADC_DelSig_2.c **** 
 1212              		.loc 1 702 0
 1213 0000 0C4B     		ldr	r3, .L81
 1214 0002 1B78     		ldrb	r3, [r3]	@ zero_extendqisi2
 1215 0004 03F00303 		and	r3, r3, #3
 1216              	.LVL102:
 704:Generated_Source\PSoC5/ADC_DelSig_2.c **** 
 1217              		.loc 1 704 0
 1218 0008 0B4A     		ldr	r2, .L81+4
 1219 000a 1078     		ldrb	r0, [r2]	@ zero_extendqisi2
 1220 000c 40B2     		sxtb	r0, r0
 1221              	.LVL103:
 706:Generated_Source\PSoC5/ADC_DelSig_2.c ****     {   /* Dummy read of the middle byte to unlock the coherency */
 1222              		.loc 1 706 0
 1223 000e 022B     		cmp	r3, #2
 1224 0010 02D1     		bne	.L78
 708:Generated_Source\PSoC5/ADC_DelSig_2.c ****     }
 1225              		.loc 1 708 0
 1226 0012 0A4B     		ldr	r3, .L81+8
 1227              	.LVL104:
 1228 0014 1B78     		ldrb	r3, [r3]	@ zero_extendqisi2
 1229 0016 03E0     		b	.L79
 1230              	.LVL105:
 1231              	.L78:
 710:Generated_Source\PSoC5/ADC_DelSig_2.c ****     {   /* Dummy read of the MSB byte to unlock the coherency */
 1232              		.loc 1 710 0
ARM GAS  C:\Users\vboxuser\AppData\Local\Temp\ccKqkYuE.s 			page 56


 1233 0018 032B     		cmp	r3, #3
 1234 001a 01D1     		bne	.L79
 712:Generated_Source\PSoC5/ADC_DelSig_2.c ****     }
 1235              		.loc 1 712 0
 1236 001c 084B     		ldr	r3, .L81+12
 1237              	.LVL106:
 1238 001e 1B78     		ldrb	r3, [r3]	@ zero_extendqisi2
 1239              	.L79:
 718:Generated_Source\PSoC5/ADC_DelSig_2.c ****     {
 1240              		.loc 1 718 0
 1241 0020 084B     		ldr	r3, .L81+16
 1242 0022 1B79     		ldrb	r3, [r3, #4]	@ zero_extendqisi2
 1243 0024 13F0FF0F 		tst	r3, #255
 1244 0028 02D0     		beq	.L80
 720:Generated_Source\PSoC5/ADC_DelSig_2.c ****     }
 1245              		.loc 1 720 0
 1246 002a 0022     		movs	r2, #0
 1247 002c 054B     		ldr	r3, .L81+16
 1248 002e 5A71     		strb	r2, [r3, #5]
 1249              	.L80:
 723:Generated_Source\PSoC5/ADC_DelSig_2.c **** 
 1250              		.loc 1 723 0
 1251 0030 7047     		bx	lr
 1252              	.L82:
 1253 0032 00BF     		.align	2
 1254              	.L81:
 1255 0034 144E0040 		.word	1073761812
 1256 0038 104E0040 		.word	1073761808
 1257 003c 114E0040 		.word	1073761809
 1258 0040 124E0040 		.word	1073761810
 1259 0044 00000000 		.word	.LANCHOR0
 1260              		.cfi_endproc
 1261              	.LFE11:
 1262              		.size	ADC_DelSig_2_GetResult8, .-ADC_DelSig_2_GetResult8
 1263              		.section	.text.ADC_DelSig_2_GetResult16,"ax",%progbits
 1264              		.align	2
 1265              		.global	ADC_DelSig_2_GetResult16
 1266              		.thumb
 1267              		.thumb_func
 1268              		.type	ADC_DelSig_2_GetResult16, %function
 1269              	ADC_DelSig_2_GetResult16:
 1270              	.LFB12:
 751:Generated_Source\PSoC5/ADC_DelSig_2.c ****     uint16 result;
 1271              		.loc 1 751 0
 1272              		.cfi_startproc
 1273              		@ args = 0, pretend = 0, frame = 0
 1274              		@ frame_needed = 0, uses_anonymous_args = 0
 1275              		@ link register save eliminated.
 756:Generated_Source\PSoC5/ADC_DelSig_2.c **** 
 1276              		.loc 1 756 0
 1277 0000 0E4B     		ldr	r3, .L87
 1278 0002 1B78     		ldrb	r3, [r3]	@ zero_extendqisi2
 1279 0004 03F00303 		and	r3, r3, #3
 1280              	.LVL107:
 758:Generated_Source\PSoC5/ADC_DelSig_2.c ****     {   /*  Use default method to read result registers i.e. LSB byte read at the end*/
 1281              		.loc 1 758 0
 1282 0008 012B     		cmp	r3, #1
ARM GAS  C:\Users\vboxuser\AppData\Local\Temp\ccKqkYuE.s 			page 57


 1283 000a 03D8     		bhi	.L84
 764:Generated_Source\PSoC5/ADC_DelSig_2.c ****         #endif /* CY_PSOC3 */
 1284              		.loc 1 764 0
 1285 000c 0C4B     		ldr	r3, .L87+4
 1286              	.LVL108:
 1287 000e 1888     		ldrh	r0, [r3]
 1288 0010 80B2     		uxth	r0, r0
 1289              	.LVL109:
 1290 0012 09E0     		b	.L85
 1291              	.LVL110:
 1292              	.L84:
 772:Generated_Source\PSoC5/ADC_DelSig_2.c ****             result |=  (uint16)((uint16)ADC_DelSig_2_DEC_SAMPM_REG << 8u);
 1293              		.loc 1 772 0
 1294 0014 0A4A     		ldr	r2, .L87+4
 1295 0016 1278     		ldrb	r2, [r2]	@ zero_extendqisi2
 1296              	.LVL111:
 773:Generated_Source\PSoC5/ADC_DelSig_2.c ****         #endif /* CY_PSOC3 */
 1297              		.loc 1 773 0
 1298 0018 0A49     		ldr	r1, .L87+8
 1299 001a 0878     		ldrb	r0, [r1]	@ zero_extendqisi2
 1300 001c 42EA0020 		orr	r0, r2, r0, lsl #8
 1301              	.LVL112:
 775:Generated_Source\PSoC5/ADC_DelSig_2.c ****         {   /* Dummy read of the MSB byte to unlock the coherency */
 1302              		.loc 1 775 0
 1303 0020 032B     		cmp	r3, #3
 1304 0022 01D1     		bne	.L85
 777:Generated_Source\PSoC5/ADC_DelSig_2.c ****         }
 1305              		.loc 1 777 0
 1306 0024 084B     		ldr	r3, .L87+12
 1307              	.LVL113:
 1308 0026 1B78     		ldrb	r3, [r3]	@ zero_extendqisi2
 1309              	.L85:
 781:Generated_Source\PSoC5/ADC_DelSig_2.c ****     {
 1310              		.loc 1 781 0
 1311 0028 084B     		ldr	r3, .L87+16
 1312 002a 1B79     		ldrb	r3, [r3, #4]	@ zero_extendqisi2
 1313 002c 13F0FF0F 		tst	r3, #255
 1314 0030 02D0     		beq	.L86
 783:Generated_Source\PSoC5/ADC_DelSig_2.c ****     }
 1315              		.loc 1 783 0
 1316 0032 0022     		movs	r2, #0
 1317 0034 054B     		ldr	r3, .L87+16
 1318 0036 5A71     		strb	r2, [r3, #5]
 1319              	.L86:
 787:Generated_Source\PSoC5/ADC_DelSig_2.c **** 
 1320              		.loc 1 787 0
 1321 0038 00B2     		sxth	r0, r0
 1322 003a 7047     		bx	lr
 1323              	.L88:
 1324              		.align	2
 1325              	.L87:
 1326 003c 144E0040 		.word	1073761812
 1327 0040 104E0040 		.word	1073761808
 1328 0044 114E0040 		.word	1073761809
 1329 0048 124E0040 		.word	1073761810
 1330 004c 00000000 		.word	.LANCHOR0
 1331              		.cfi_endproc
ARM GAS  C:\Users\vboxuser\AppData\Local\Temp\ccKqkYuE.s 			page 58


 1332              	.LFE12:
 1333              		.size	ADC_DelSig_2_GetResult16, .-ADC_DelSig_2_GetResult16
 1334              		.section	.text.ADC_DelSig_2_GetResult32,"ax",%progbits
 1335              		.align	2
 1336              		.global	ADC_DelSig_2_GetResult32
 1337              		.thumb
 1338              		.thumb_func
 1339              		.type	ADC_DelSig_2_GetResult32, %function
 1340              	ADC_DelSig_2_GetResult32:
 1341              	.LFB13:
 811:Generated_Source\PSoC5/ADC_DelSig_2.c ****     uint32 result;
 1342              		.loc 1 811 0
 1343              		.cfi_startproc
 1344              		@ args = 0, pretend = 0, frame = 0
 1345              		@ frame_needed = 0, uses_anonymous_args = 0
 1346              		@ link register save eliminated.
 819:Generated_Source\PSoC5/ADC_DelSig_2.c **** 
 1347              		.loc 1 819 0
 1348 0000 154B     		ldr	r3, .L94
 1349 0002 1B78     		ldrb	r3, [r3]	@ zero_extendqisi2
 1350 0004 03F00303 		and	r3, r3, #3
 1351              	.LVL114:
 821:Generated_Source\PSoC5/ADC_DelSig_2.c ****     {   /*  Use default method to read result registers i.e. LSB byte read at the end*/
 1352              		.loc 1 821 0
 1353 0008 012B     		cmp	r3, #1
 1354 000a 07D8     		bhi	.L90
 832:Generated_Source\PSoC5/ADC_DelSig_2.c ****             result = (result << 16u) | (CY_GET_REG16(ADC_DelSig_2_DEC_SAMP_16B_PTR));
 1355              		.loc 1 832 0
 1356 000c 134B     		ldr	r3, .L94+4
 1357              	.LVL115:
 1358 000e 1888     		ldrh	r0, [r3]
 1359              	.LVL116:
 833:Generated_Source\PSoC5/ADC_DelSig_2.c ****         #endif /* CY_PSOC3 */
 1360              		.loc 1 833 0
 1361 0010 023B     		subs	r3, r3, #2
 1362 0012 1B88     		ldrh	r3, [r3]
 1363 0014 9BB2     		uxth	r3, r3
 1364 0016 43EA0040 		orr	r0, r3, r0, lsl #16
 1365              	.LVL117:
 1366 001a 13E0     		b	.L91
 1367              	.LVL118:
 1368              	.L90:
 836:Generated_Source\PSoC5/ADC_DelSig_2.c ****     {   /* Read middle byte at the end */
 1369              		.loc 1 836 0
 1370 001c 022B     		cmp	r3, #2
 1371 001e 0AD1     		bne	.L92
 846:Generated_Source\PSoC5/ADC_DelSig_2.c ****             result = (result << 16u) | ADC_DelSig_2_DEC_SAMP_REG;
 1372              		.loc 1 846 0
 1373 0020 0E4B     		ldr	r3, .L94+4
 1374              	.LVL119:
 1375 0022 1888     		ldrh	r0, [r3]
 1376              	.LVL120:
 847:Generated_Source\PSoC5/ADC_DelSig_2.c ****             result |=  (uint32)((uint32)ADC_DelSig_2_DEC_SAMPM_REG << 8u);
 1377              		.loc 1 847 0
 1378 0024 023B     		subs	r3, r3, #2
 1379 0026 1B78     		ldrb	r3, [r3]	@ zero_extendqisi2
 1380 0028 43EA0043 		orr	r3, r3, r0, lsl #16
ARM GAS  C:\Users\vboxuser\AppData\Local\Temp\ccKqkYuE.s 			page 59


 1381              	.LVL121:
 848:Generated_Source\PSoC5/ADC_DelSig_2.c ****         #endif /* CY_PSOC3 */
 1382              		.loc 1 848 0
 1383 002c 0C4A     		ldr	r2, .L94+8
 1384 002e 1078     		ldrb	r0, [r2]	@ zero_extendqisi2
 1385 0030 43EA0020 		orr	r0, r3, r0, lsl #8
 1386              	.LVL122:
 1387 0034 06E0     		b	.L91
 1388              	.LVL123:
 1389              	.L92:
 863:Generated_Source\PSoC5/ADC_DelSig_2.c ****             result |= (uint32)((uint32)CY_GET_REG16(ADC_DelSig_2_DEC_SAMPH_16B_PTR) << 16u);
 1390              		.loc 1 863 0
 1391 0036 0B4B     		ldr	r3, .L94+12
 1392              	.LVL124:
 1393 0038 1888     		ldrh	r0, [r3]
 1394 003a 83B2     		uxth	r3, r0
 1395              	.LVL125:
 864:Generated_Source\PSoC5/ADC_DelSig_2.c ****         #endif /* CY_PSOC3 */
 1396              		.loc 1 864 0
 1397 003c 074A     		ldr	r2, .L94+4
 1398 003e 1088     		ldrh	r0, [r2]
 1399 0040 43EA0040 		orr	r0, r3, r0, lsl #16
 1400              	.LVL126:
 1401              	.L91:
 868:Generated_Source\PSoC5/ADC_DelSig_2.c ****     {
 1402              		.loc 1 868 0
 1403 0044 084B     		ldr	r3, .L94+16
 1404 0046 1B79     		ldrb	r3, [r3, #4]	@ zero_extendqisi2
 1405 0048 13F0FF0F 		tst	r3, #255
 1406 004c 02D0     		beq	.L93
 870:Generated_Source\PSoC5/ADC_DelSig_2.c ****     }
 1407              		.loc 1 870 0
 1408 004e 0022     		movs	r2, #0
 1409 0050 054B     		ldr	r3, .L94+16
 1410 0052 5A71     		strb	r2, [r3, #5]
 1411              	.L93:
 874:Generated_Source\PSoC5/ADC_DelSig_2.c **** 
 1412              		.loc 1 874 0
 1413 0054 7047     		bx	lr
 1414              	.L95:
 1415 0056 00BF     		.align	2
 1416              	.L94:
 1417 0058 144E0040 		.word	1073761812
 1418 005c 124E0040 		.word	1073761810
 1419 0060 114E0040 		.word	1073761809
 1420 0064 104E0040 		.word	1073761808
 1421 0068 00000000 		.word	.LANCHOR0
 1422              		.cfi_endproc
 1423              	.LFE13:
 1424              		.size	ADC_DelSig_2_GetResult32, .-ADC_DelSig_2_GetResult32
 1425              		.section	.text.ADC_DelSig_2_SetOffset,"ax",%progbits
 1426              		.align	2
 1427              		.global	ADC_DelSig_2_SetOffset
 1428              		.thumb
 1429              		.thumb_func
 1430              		.type	ADC_DelSig_2_SetOffset, %function
 1431              	ADC_DelSig_2_SetOffset:
ARM GAS  C:\Users\vboxuser\AppData\Local\Temp\ccKqkYuE.s 			page 60


 1432              	.LFB14:
 904:Generated_Source\PSoC5/ADC_DelSig_2.c **** 
 1433              		.loc 1 904 0
 1434              		.cfi_startproc
 1435              		@ args = 0, pretend = 0, frame = 0
 1436              		@ frame_needed = 0, uses_anonymous_args = 0
 1437              		@ link register save eliminated.
 1438              	.LVL127:
 906:Generated_Source\PSoC5/ADC_DelSig_2.c **** }
 1439              		.loc 1 906 0
 1440 0000 014B     		ldr	r3, .L97
 1441 0002 9860     		str	r0, [r3, #8]
 1442 0004 7047     		bx	lr
 1443              	.L98:
 1444 0006 00BF     		.align	2
 1445              	.L97:
 1446 0008 00000000 		.word	.LANCHOR0
 1447              		.cfi_endproc
 1448              	.LFE14:
 1449              		.size	ADC_DelSig_2_SetOffset, .-ADC_DelSig_2_SetOffset
 1450              		.section	.text.ADC_DelSig_2_SetGain,"ax",%progbits
 1451              		.align	2
 1452              		.global	ADC_DelSig_2_SetGain
 1453              		.thumb
 1454              		.thumb_func
 1455              		.type	ADC_DelSig_2_SetGain, %function
 1456              	ADC_DelSig_2_SetGain:
 1457              	.LFB15:
 939:Generated_Source\PSoC5/ADC_DelSig_2.c ****     ADC_DelSig_2_CountsPerVolt = adcGain;
 1458              		.loc 1 939 0
 1459              		.cfi_startproc
 1460              		@ args = 0, pretend = 0, frame = 0
 1461              		@ frame_needed = 0, uses_anonymous_args = 0
 1462              		@ link register save eliminated.
 1463              	.LVL128:
 940:Generated_Source\PSoC5/ADC_DelSig_2.c **** }
 1464              		.loc 1 940 0
 1465 0000 014B     		ldr	r3, .L100
 1466 0002 1860     		str	r0, [r3]
 1467 0004 7047     		bx	lr
 1468              	.L101:
 1469 0006 00BF     		.align	2
 1470              	.L100:
 1471 0008 00000000 		.word	ADC_DelSig_2_CountsPerVolt
 1472              		.cfi_endproc
 1473              	.LFE15:
 1474              		.size	ADC_DelSig_2_SetGain, .-ADC_DelSig_2_SetGain
 1475              		.section	.text.ADC_DelSig_2_CountsTo_mVolts,"ax",%progbits
 1476              		.align	2
 1477              		.global	ADC_DelSig_2_CountsTo_mVolts
 1478              		.thumb
 1479              		.thumb_func
 1480              		.type	ADC_DelSig_2_CountsTo_mVolts, %function
 1481              	ADC_DelSig_2_CountsTo_mVolts:
 1482              	.LFB16:
 966:Generated_Source\PSoC5/ADC_DelSig_2.c **** 
 1483              		.loc 1 966 0
ARM GAS  C:\Users\vboxuser\AppData\Local\Temp\ccKqkYuE.s 			page 61


 1484              		.cfi_startproc
 1485              		@ args = 0, pretend = 0, frame = 0
 1486              		@ frame_needed = 0, uses_anonymous_args = 0
 1487              		@ link register save eliminated.
 1488              	.LVL129:
 997:Generated_Source\PSoC5/ADC_DelSig_2.c **** 
 1489              		.loc 1 997 0
 1490 0000 064B     		ldr	r3, .L103
 1491 0002 9B68     		ldr	r3, [r3, #8]
 1492 0004 C01A     		subs	r0, r0, r3
 1493              	.LVL130:
 999:Generated_Source\PSoC5/ADC_DelSig_2.c **** 
 1494              		.loc 1 999 0
 1495 0006 4FF47A73 		mov	r3, #1000
 1496 000a 03FB00F0 		mul	r0, r3, r0
 1497              	.LVL131:
 1498 000e 044B     		ldr	r3, .L103+4
 1499 0010 1B68     		ldr	r3, [r3]
 1500 0012 90FBF3F0 		sdiv	r0, r0, r3
 1501              	.LVL132:
1002:Generated_Source\PSoC5/ADC_DelSig_2.c **** 
 1502              		.loc 1 1002 0
 1503 0016 00B2     		sxth	r0, r0
 1504 0018 7047     		bx	lr
 1505              	.L104:
 1506 001a 00BF     		.align	2
 1507              	.L103:
 1508 001c 00000000 		.word	.LANCHOR0
 1509 0020 00000000 		.word	ADC_DelSig_2_CountsPerVolt
 1510              		.cfi_endproc
 1511              	.LFE16:
 1512              		.size	ADC_DelSig_2_CountsTo_mVolts, .-ADC_DelSig_2_CountsTo_mVolts
 1513              		.global	__aeabi_i2f
 1514              		.global	__aeabi_fdiv
 1515              		.section	.text.ADC_DelSig_2_CountsTo_Volts,"ax",%progbits
 1516              		.align	2
 1517              		.global	ADC_DelSig_2_CountsTo_Volts
 1518              		.thumb
 1519              		.thumb_func
 1520              		.type	ADC_DelSig_2_CountsTo_Volts, %function
 1521              	ADC_DelSig_2_CountsTo_Volts:
 1522              	.LFB17:
1027:Generated_Source\PSoC5/ADC_DelSig_2.c **** 
 1523              		.loc 1 1027 0
 1524              		.cfi_startproc
 1525              		@ args = 0, pretend = 0, frame = 0
 1526              		@ frame_needed = 0, uses_anonymous_args = 0
 1527              	.LVL133:
 1528 0000 10B5     		push	{r4, lr}
 1529              		.cfi_def_cfa_offset 8
 1530              		.cfi_offset 4, -8
 1531              		.cfi_offset 14, -4
1058:Generated_Source\PSoC5/ADC_DelSig_2.c **** 
 1532              		.loc 1 1058 0
 1533 0002 074B     		ldr	r3, .L107
 1534 0004 9B68     		ldr	r3, [r3, #8]
 1535              	.LVL134:
ARM GAS  C:\Users\vboxuser\AppData\Local\Temp\ccKqkYuE.s 			page 62


1060:Generated_Source\PSoC5/ADC_DelSig_2.c **** 
 1536              		.loc 1 1060 0
 1537 0006 C01A     		subs	r0, r0, r3
 1538              	.LVL135:
 1539 0008 FFF7FEFF 		bl	__aeabi_i2f
 1540              	.LVL136:
 1541 000c 0446     		mov	r4, r0
 1542 000e 054B     		ldr	r3, .L107+4
 1543 0010 1868     		ldr	r0, [r3]
 1544 0012 FFF7FEFF 		bl	__aeabi_i2f
 1545              	.LVL137:
 1546 0016 0146     		mov	r1, r0
 1547 0018 2046     		mov	r0, r4
 1548 001a FFF7FEFF 		bl	__aeabi_fdiv
 1549              	.LVL138:
1063:Generated_Source\PSoC5/ADC_DelSig_2.c **** 
 1550              		.loc 1 1063 0
 1551 001e 10BD     		pop	{r4, pc}
 1552              	.L108:
 1553              		.align	2
 1554              	.L107:
 1555 0020 00000000 		.word	.LANCHOR0
 1556 0024 00000000 		.word	ADC_DelSig_2_CountsPerVolt
 1557              		.cfi_endproc
 1558              	.LFE17:
 1559              		.size	ADC_DelSig_2_CountsTo_Volts, .-ADC_DelSig_2_CountsTo_Volts
 1560              		.section	.text.ADC_DelSig_2_CountsTo_uVolts,"ax",%progbits
 1561              		.align	2
 1562              		.global	ADC_DelSig_2_CountsTo_uVolts
 1563              		.thumb
 1564              		.thumb_func
 1565              		.type	ADC_DelSig_2_CountsTo_uVolts, %function
 1566              	ADC_DelSig_2_CountsTo_uVolts:
 1567              	.LFB18:
1093:Generated_Source\PSoC5/ADC_DelSig_2.c **** 
 1568              		.loc 1 1093 0
 1569              		.cfi_startproc
 1570              		@ args = 0, pretend = 0, frame = 0
 1571              		@ frame_needed = 0, uses_anonymous_args = 0
 1572              		@ link register save eliminated.
 1573              	.LVL139:
1102:Generated_Source\PSoC5/ADC_DelSig_2.c ****     {
 1574              		.loc 1 1102 0
 1575 0000 0F4B     		ldr	r3, .L112
 1576 0002 1B78     		ldrb	r3, [r3]	@ zero_extendqisi2
 1577 0004 DBB2     		uxtb	r3, r3
 1578 0006 012B     		cmp	r3, #1
 1579 0008 06D0     		beq	.L110
1109:Generated_Source\PSoC5/ADC_DelSig_2.c ****     {
 1580              		.loc 1 1109 0
 1581 000a 0D4B     		ldr	r3, .L112
 1582 000c 1B78     		ldrb	r3, [r3]	@ zero_extendqisi2
 1583 000e DBB2     		uxtb	r3, r3
 1584 0010 022B     		cmp	r3, #2
 1585 0012 01D0     		beq	.L110
1116:Generated_Source\PSoC5/ADC_DelSig_2.c ****     {
 1586              		.loc 1 1116 0
ARM GAS  C:\Users\vboxuser\AppData\Local\Temp\ccKqkYuE.s 			page 63


 1587 0014 0A4B     		ldr	r3, .L112
 1588 0016 1B78     		ldrb	r3, [r3]	@ zero_extendqisi2
 1589              	.L110:
 1590              	.LVL140:
1220:Generated_Source\PSoC5/ADC_DelSig_2.c ****     uVolts = ((coefA * adcCounts) / coefB) - ((coefA * ADC_DelSig_2_Offset) / coefB);
 1591              		.loc 1 1220 0
 1592 0018 0A4B     		ldr	r3, .L112+4
 1593 001a 1B68     		ldr	r3, [r3]
 1594 001c 002B     		cmp	r3, #0
 1595 001e 00DA     		bge	.L111
 1596 0020 1F33     		adds	r3, r3, #31
 1597              	.L111:
 1598 0022 5A11     		asrs	r2, r3, #5
 1599              	.LVL141:
1221:Generated_Source\PSoC5/ADC_DelSig_2.c **** 
 1600              		.loc 1 1221 0
 1601 0024 47F61223 		movw	r3, #31250
 1602 0028 03FB00F0 		mul	r0, r3, r0
 1603              	.LVL142:
 1604 002c 90FBF2F0 		sdiv	r0, r0, r2
 1605 0030 0549     		ldr	r1, .L112+8
 1606 0032 8968     		ldr	r1, [r1, #8]
 1607 0034 03FB01F3 		mul	r3, r3, r1
 1608 0038 93FBF2F3 		sdiv	r3, r3, r2
 1609              	.LVL143:
1224:Generated_Source\PSoC5/ADC_DelSig_2.c **** 
 1610              		.loc 1 1224 0
 1611 003c C01A     		subs	r0, r0, r3
 1612              	.LVL144:
 1613 003e 7047     		bx	lr
 1614              	.L113:
 1615              		.align	2
 1616              	.L112:
 1617 0040 00000000 		.word	.LANCHOR1
 1618 0044 00000000 		.word	ADC_DelSig_2_CountsPerVolt
 1619 0048 00000000 		.word	.LANCHOR0
 1620              		.cfi_endproc
 1621              	.LFE18:
 1622              		.size	ADC_DelSig_2_CountsTo_uVolts, .-ADC_DelSig_2_CountsTo_uVolts
 1623              		.section	.text.ADC_DelSig_2_SelectConfiguration,"ax",%progbits
 1624              		.align	2
 1625              		.global	ADC_DelSig_2_SelectConfiguration
 1626              		.thumb
 1627              		.thumb_func
 1628              		.type	ADC_DelSig_2_SelectConfiguration, %function
 1629              	ADC_DelSig_2_SelectConfiguration:
 1630              	.LFB20:
1562:Generated_Source\PSoC5/ADC_DelSig_2.c ****     /* Check whether the configuration number is valid or not */
 1631              		.loc 1 1562 0
 1632              		.cfi_startproc
 1633              		@ args = 0, pretend = 0, frame = 0
 1634              		@ frame_needed = 0, uses_anonymous_args = 0
 1635              	.LVL145:
 1636 0000 38B5     		push	{r3, r4, r5, lr}
 1637              		.cfi_def_cfa_offset 16
 1638              		.cfi_offset 3, -16
 1639              		.cfi_offset 4, -12
ARM GAS  C:\Users\vboxuser\AppData\Local\Temp\ccKqkYuE.s 			page 64


 1640              		.cfi_offset 5, -8
 1641              		.cfi_offset 14, -4
1564:Generated_Source\PSoC5/ADC_DelSig_2.c ****     {
 1642              		.loc 1 1564 0
 1643 0002 0128     		cmp	r0, #1
 1644 0004 20D1     		bne	.L115
 1645 0006 0446     		mov	r4, r0
 1646 0008 0D46     		mov	r5, r1
1569:Generated_Source\PSoC5/ADC_DelSig_2.c ****         {
 1647              		.loc 1 1569 0
 1648 000a 114B     		ldr	r3, .L119
 1649 000c 9B79     		ldrb	r3, [r3, #6]	@ zero_extendqisi2
 1650 000e 13B9     		cbnz	r3, .L116
1571:Generated_Source\PSoC5/ADC_DelSig_2.c ****         }
 1651              		.loc 1 1571 0
 1652 0010 0122     		movs	r2, #1
 1653 0012 0F4B     		ldr	r3, .L119
 1654 0014 DA71     		strb	r2, [r3, #7]
 1655              	.L116:
1575:Generated_Source\PSoC5/ADC_DelSig_2.c **** 
 1656              		.loc 1 1575 0
 1657 0016 0F4B     		ldr	r3, .L119+4
 1658 0018 1C70     		strb	r4, [r3]
1578:Generated_Source\PSoC5/ADC_DelSig_2.c **** 
 1659              		.loc 1 1578 0
 1660 001a FFF7FEFF 		bl	ADC_DelSig_2_Stop
 1661              	.LVL146:
1581:Generated_Source\PSoC5/ADC_DelSig_2.c **** 
 1662              		.loc 1 1581 0
 1663 001e 2046     		mov	r0, r4
 1664 0020 FFF7FEFF 		bl	ADC_DelSig_2_InitConfig
 1665              	.LVL147:
1584:Generated_Source\PSoC5/ADC_DelSig_2.c ****         CY_SET_REG16(ADC_DelSig_2_DEC_GCOR_16B_PTR, ADC_DelSig_2_gcor[config - 1u].gcor);
 1666              		.loc 1 1584 0
 1667 0024 013C     		subs	r4, r4, #1
 1668 0026 0A4B     		ldr	r3, .L119
 1669 0028 03EB8402 		add	r2, r3, r4, lsl #2
 1670 002c 9178     		ldrb	r1, [r2, #2]	@ zero_extendqisi2
 1671 002e 0A4A     		ldr	r2, .L119+8
 1672 0030 1170     		strb	r1, [r2]
1585:Generated_Source\PSoC5/ADC_DelSig_2.c **** 
 1673              		.loc 1 1585 0
 1674 0032 33F82420 		ldrh	r2, [r3, r4, lsl #2]
 1675 0036 094B     		ldr	r3, .L119+12
 1676 0038 1A80     		strh	r2, [r3]	@ movhi
1587:Generated_Source\PSoC5/ADC_DelSig_2.c ****         {
 1677              		.loc 1 1587 0
 1678 003a 012D     		cmp	r5, #1
 1679 003c 07D1     		bne	.L114
1590:Generated_Source\PSoC5/ADC_DelSig_2.c **** 
 1680              		.loc 1 1590 0
 1681 003e FFF7FEFF 		bl	ADC_DelSig_2_Start
 1682              	.LVL148:
1593:Generated_Source\PSoC5/ADC_DelSig_2.c ****         }
 1683              		.loc 1 1593 0
 1684 0042 FFF7FEFF 		bl	ADC_DelSig_2_StartConvert
 1685              	.LVL149:
ARM GAS  C:\Users\vboxuser\AppData\Local\Temp\ccKqkYuE.s 			page 65


 1686 0046 38BD     		pop	{r3, r4, r5, pc}
 1687              	.LVL150:
 1688              	.L115:
1599:Generated_Source\PSoC5/ADC_DelSig_2.c ****     }
 1689              		.loc 1 1599 0 discriminator 1
 1690 0048 0020     		movs	r0, #0
 1691              	.LVL151:
 1692 004a FFF7FEFF 		bl	CyHalt
 1693              	.LVL152:
 1694              	.L114:
 1695 004e 38BD     		pop	{r3, r4, r5, pc}
 1696              	.L120:
 1697              		.align	2
 1698              	.L119:
 1699 0050 00000000 		.word	.LANCHOR0
 1700 0054 00000000 		.word	.LANCHOR1
 1701 0058 0E4E0040 		.word	1073761806
 1702 005c 0C4E0040 		.word	1073761804
 1703              		.cfi_endproc
 1704              	.LFE20:
 1705              		.size	ADC_DelSig_2_SelectConfiguration, .-ADC_DelSig_2_SelectConfiguration
 1706              		.section	.text.ADC_DelSig_2_Read8,"ax",%progbits
 1707              		.align	2
 1708              		.global	ADC_DelSig_2_Read8
 1709              		.thumb
 1710              		.thumb_func
 1711              		.type	ADC_DelSig_2_Read8, %function
 1712              	ADC_DelSig_2_Read8:
 1713              	.LFB23:
1749:Generated_Source\PSoC5/ADC_DelSig_2.c **** }
1750:Generated_Source\PSoC5/ADC_DelSig_2.c **** 
1751:Generated_Source\PSoC5/ADC_DelSig_2.c **** 
1752:Generated_Source\PSoC5/ADC_DelSig_2.c **** /*******************************************************************************
1753:Generated_Source\PSoC5/ADC_DelSig_2.c **** * Function Name: ADC_DelSig_2_Read8
1754:Generated_Source\PSoC5/ADC_DelSig_2.c **** ********************************************************************************
1755:Generated_Source\PSoC5/ADC_DelSig_2.c **** *
1756:Generated_Source\PSoC5/ADC_DelSig_2.c **** * Summary:
1757:Generated_Source\PSoC5/ADC_DelSig_2.c **** *  This function simplifies getting results from the ADC when only a
1758:Generated_Source\PSoC5/ADC_DelSig_2.c **** *  single reading is required. When called, it will start ADC
1759:Generated_Source\PSoC5/ADC_DelSig_2.c **** *  conversions, wait for the conversion to be complete, stop ADC
1760:Generated_Source\PSoC5/ADC_DelSig_2.c **** *  conversion and return the result. This is a blocking function and will
1761:Generated_Source\PSoC5/ADC_DelSig_2.c **** *  not return until the result is ready.
1762:Generated_Source\PSoC5/ADC_DelSig_2.c **** *
1763:Generated_Source\PSoC5/ADC_DelSig_2.c **** * Parameters:
1764:Generated_Source\PSoC5/ADC_DelSig_2.c **** *  None
1765:Generated_Source\PSoC5/ADC_DelSig_2.c **** *
1766:Generated_Source\PSoC5/ADC_DelSig_2.c **** * Return:
1767:Generated_Source\PSoC5/ADC_DelSig_2.c **** *  int8:  ADC result.
1768:Generated_Source\PSoC5/ADC_DelSig_2.c **** *
1769:Generated_Source\PSoC5/ADC_DelSig_2.c **** *******************************************************************************/
1770:Generated_Source\PSoC5/ADC_DelSig_2.c **** int8 ADC_DelSig_2_Read8(void) 
1771:Generated_Source\PSoC5/ADC_DelSig_2.c **** {
 1714              		.loc 1 1771 0
 1715              		.cfi_startproc
 1716              		@ args = 0, pretend = 0, frame = 0
 1717              		@ frame_needed = 0, uses_anonymous_args = 0
 1718 0000 10B5     		push	{r4, lr}
ARM GAS  C:\Users\vboxuser\AppData\Local\Temp\ccKqkYuE.s 			page 66


 1719              		.cfi_def_cfa_offset 8
 1720              		.cfi_offset 4, -8
 1721              		.cfi_offset 14, -4
1772:Generated_Source\PSoC5/ADC_DelSig_2.c ****     int8 result;
1773:Generated_Source\PSoC5/ADC_DelSig_2.c **** 
1774:Generated_Source\PSoC5/ADC_DelSig_2.c ****     /* Clear pending conversion done status */
1775:Generated_Source\PSoC5/ADC_DelSig_2.c ****     ADC_DelSig_2_DEC_SR_REG |= ADC_DelSig_2_DEC_INTR_CLEAR;
 1722              		.loc 1 1775 0
 1723 0002 084A     		ldr	r2, .L123
 1724 0004 1378     		ldrb	r3, [r2]	@ zero_extendqisi2
 1725 0006 43F00403 		orr	r3, r3, #4
 1726 000a 1370     		strb	r3, [r2]
1776:Generated_Source\PSoC5/ADC_DelSig_2.c ****     ADC_DelSig_2_StartConvert();
 1727              		.loc 1 1776 0
 1728 000c FFF7FEFF 		bl	ADC_DelSig_2_StartConvert
 1729              	.LVL153:
1777:Generated_Source\PSoC5/ADC_DelSig_2.c ****     (void)ADC_DelSig_2_IsEndConversion(ADC_DelSig_2_WAIT_FOR_RESULT);
 1730              		.loc 1 1777 0
 1731 0010 0020     		movs	r0, #0
 1732 0012 FFF7FEFF 		bl	ADC_DelSig_2_IsEndConversion
 1733              	.LVL154:
1778:Generated_Source\PSoC5/ADC_DelSig_2.c ****      result = ADC_DelSig_2_GetResult8();
 1734              		.loc 1 1778 0
 1735 0016 FFF7FEFF 		bl	ADC_DelSig_2_GetResult8
 1736              	.LVL155:
 1737 001a 0446     		mov	r4, r0
 1738              	.LVL156:
1779:Generated_Source\PSoC5/ADC_DelSig_2.c ****     ADC_DelSig_2_StopConvert();
 1739              		.loc 1 1779 0
 1740 001c FFF7FEFF 		bl	ADC_DelSig_2_StopConvert
 1741              	.LVL157:
1780:Generated_Source\PSoC5/ADC_DelSig_2.c ****     
1781:Generated_Source\PSoC5/ADC_DelSig_2.c ****      return(result);
1782:Generated_Source\PSoC5/ADC_DelSig_2.c **** }
 1742              		.loc 1 1782 0
 1743 0020 2046     		mov	r0, r4
 1744 0022 10BD     		pop	{r4, pc}
 1745              	.LVL158:
 1746              	.L124:
 1747              		.align	2
 1748              	.L123:
 1749 0024 014E0040 		.word	1073761793
 1750              		.cfi_endproc
 1751              	.LFE23:
 1752              		.size	ADC_DelSig_2_Read8, .-ADC_DelSig_2_Read8
 1753              		.section	.text.ADC_DelSig_2_Read16,"ax",%progbits
 1754              		.align	2
 1755              		.global	ADC_DelSig_2_Read16
 1756              		.thumb
 1757              		.thumb_func
 1758              		.type	ADC_DelSig_2_Read16, %function
 1759              	ADC_DelSig_2_Read16:
 1760              	.LFB24:
1783:Generated_Source\PSoC5/ADC_DelSig_2.c **** 
1784:Generated_Source\PSoC5/ADC_DelSig_2.c **** 
1785:Generated_Source\PSoC5/ADC_DelSig_2.c **** /*******************************************************************************
1786:Generated_Source\PSoC5/ADC_DelSig_2.c **** * Function Name: ADC_DelSig_2_Read16
ARM GAS  C:\Users\vboxuser\AppData\Local\Temp\ccKqkYuE.s 			page 67


1787:Generated_Source\PSoC5/ADC_DelSig_2.c **** ********************************************************************************
1788:Generated_Source\PSoC5/ADC_DelSig_2.c **** *
1789:Generated_Source\PSoC5/ADC_DelSig_2.c **** * Summary:
1790:Generated_Source\PSoC5/ADC_DelSig_2.c **** *  This function simplifies getting results from the ADC when only a
1791:Generated_Source\PSoC5/ADC_DelSig_2.c **** *  single reading is required. When called, it will start ADC
1792:Generated_Source\PSoC5/ADC_DelSig_2.c **** *  conversions, wait for the conversion to be complete, stop ADC
1793:Generated_Source\PSoC5/ADC_DelSig_2.c **** *  conversion and return the result. This is a blocking function and will
1794:Generated_Source\PSoC5/ADC_DelSig_2.c **** *  not return until the result is ready.
1795:Generated_Source\PSoC5/ADC_DelSig_2.c **** *
1796:Generated_Source\PSoC5/ADC_DelSig_2.c **** * Parameters:
1797:Generated_Source\PSoC5/ADC_DelSig_2.c **** *   void
1798:Generated_Source\PSoC5/ADC_DelSig_2.c **** *
1799:Generated_Source\PSoC5/ADC_DelSig_2.c **** * Return:
1800:Generated_Source\PSoC5/ADC_DelSig_2.c **** *  int16:  ADC result.
1801:Generated_Source\PSoC5/ADC_DelSig_2.c **** *
1802:Generated_Source\PSoC5/ADC_DelSig_2.c **** *******************************************************************************/
1803:Generated_Source\PSoC5/ADC_DelSig_2.c **** int16 ADC_DelSig_2_Read16(void) 
1804:Generated_Source\PSoC5/ADC_DelSig_2.c **** {
 1761              		.loc 1 1804 0
 1762              		.cfi_startproc
 1763              		@ args = 0, pretend = 0, frame = 0
 1764              		@ frame_needed = 0, uses_anonymous_args = 0
 1765 0000 10B5     		push	{r4, lr}
 1766              		.cfi_def_cfa_offset 8
 1767              		.cfi_offset 4, -8
 1768              		.cfi_offset 14, -4
1805:Generated_Source\PSoC5/ADC_DelSig_2.c ****     int16 result;
1806:Generated_Source\PSoC5/ADC_DelSig_2.c **** 
1807:Generated_Source\PSoC5/ADC_DelSig_2.c ****     /* Clear pending conversion done status */
1808:Generated_Source\PSoC5/ADC_DelSig_2.c ****     ADC_DelSig_2_DEC_SR_REG |= ADC_DelSig_2_DEC_INTR_CLEAR;
 1769              		.loc 1 1808 0
 1770 0002 084A     		ldr	r2, .L127
 1771 0004 1378     		ldrb	r3, [r2]	@ zero_extendqisi2
 1772 0006 43F00403 		orr	r3, r3, #4
 1773 000a 1370     		strb	r3, [r2]
1809:Generated_Source\PSoC5/ADC_DelSig_2.c ****     ADC_DelSig_2_StartConvert();
 1774              		.loc 1 1809 0
 1775 000c FFF7FEFF 		bl	ADC_DelSig_2_StartConvert
 1776              	.LVL159:
1810:Generated_Source\PSoC5/ADC_DelSig_2.c ****     (void)ADC_DelSig_2_IsEndConversion(ADC_DelSig_2_WAIT_FOR_RESULT);
 1777              		.loc 1 1810 0
 1778 0010 0020     		movs	r0, #0
 1779 0012 FFF7FEFF 		bl	ADC_DelSig_2_IsEndConversion
 1780              	.LVL160:
1811:Generated_Source\PSoC5/ADC_DelSig_2.c ****      result = ADC_DelSig_2_GetResult16();
 1781              		.loc 1 1811 0
 1782 0016 FFF7FEFF 		bl	ADC_DelSig_2_GetResult16
 1783              	.LVL161:
 1784 001a 0446     		mov	r4, r0
 1785              	.LVL162:
1812:Generated_Source\PSoC5/ADC_DelSig_2.c ****     ADC_DelSig_2_StopConvert();
 1786              		.loc 1 1812 0
 1787 001c FFF7FEFF 		bl	ADC_DelSig_2_StopConvert
 1788              	.LVL163:
1813:Generated_Source\PSoC5/ADC_DelSig_2.c ****     
1814:Generated_Source\PSoC5/ADC_DelSig_2.c ****      return(result);
1815:Generated_Source\PSoC5/ADC_DelSig_2.c **** }
ARM GAS  C:\Users\vboxuser\AppData\Local\Temp\ccKqkYuE.s 			page 68


 1789              		.loc 1 1815 0
 1790 0020 2046     		mov	r0, r4
 1791 0022 10BD     		pop	{r4, pc}
 1792              	.LVL164:
 1793              	.L128:
 1794              		.align	2
 1795              	.L127:
 1796 0024 014E0040 		.word	1073761793
 1797              		.cfi_endproc
 1798              	.LFE24:
 1799              		.size	ADC_DelSig_2_Read16, .-ADC_DelSig_2_Read16
 1800              		.section	.text.ADC_DelSig_2_Read32,"ax",%progbits
 1801              		.align	2
 1802              		.global	ADC_DelSig_2_Read32
 1803              		.thumb
 1804              		.thumb_func
 1805              		.type	ADC_DelSig_2_Read32, %function
 1806              	ADC_DelSig_2_Read32:
 1807              	.LFB25:
1816:Generated_Source\PSoC5/ADC_DelSig_2.c **** 
1817:Generated_Source\PSoC5/ADC_DelSig_2.c **** 
1818:Generated_Source\PSoC5/ADC_DelSig_2.c **** /*******************************************************************************
1819:Generated_Source\PSoC5/ADC_DelSig_2.c **** * Function Name: ADC_DelSig_2_Read32
1820:Generated_Source\PSoC5/ADC_DelSig_2.c **** ********************************************************************************
1821:Generated_Source\PSoC5/ADC_DelSig_2.c **** *
1822:Generated_Source\PSoC5/ADC_DelSig_2.c **** * Summary:
1823:Generated_Source\PSoC5/ADC_DelSig_2.c **** *  This function simplifies getting results from the ADC when only a
1824:Generated_Source\PSoC5/ADC_DelSig_2.c **** *  single reading is required. When called, it will start ADC
1825:Generated_Source\PSoC5/ADC_DelSig_2.c **** *  conversions, wait for the conversion to be complete, stop ADC
1826:Generated_Source\PSoC5/ADC_DelSig_2.c **** *  conversion and return the result. This is a blocking function and will
1827:Generated_Source\PSoC5/ADC_DelSig_2.c **** *  not return until the result is ready.
1828:Generated_Source\PSoC5/ADC_DelSig_2.c **** *
1829:Generated_Source\PSoC5/ADC_DelSig_2.c **** * Parameters:
1830:Generated_Source\PSoC5/ADC_DelSig_2.c **** *  None
1831:Generated_Source\PSoC5/ADC_DelSig_2.c **** *
1832:Generated_Source\PSoC5/ADC_DelSig_2.c **** * Return:
1833:Generated_Source\PSoC5/ADC_DelSig_2.c **** *  int32: ADC result.
1834:Generated_Source\PSoC5/ADC_DelSig_2.c **** *
1835:Generated_Source\PSoC5/ADC_DelSig_2.c **** *******************************************************************************/
1836:Generated_Source\PSoC5/ADC_DelSig_2.c **** int32 ADC_DelSig_2_Read32(void) 
1837:Generated_Source\PSoC5/ADC_DelSig_2.c **** {
 1808              		.loc 1 1837 0
 1809              		.cfi_startproc
 1810              		@ args = 0, pretend = 0, frame = 0
 1811              		@ frame_needed = 0, uses_anonymous_args = 0
 1812 0000 10B5     		push	{r4, lr}
 1813              		.cfi_def_cfa_offset 8
 1814              		.cfi_offset 4, -8
 1815              		.cfi_offset 14, -4
1838:Generated_Source\PSoC5/ADC_DelSig_2.c ****     int32 result;
1839:Generated_Source\PSoC5/ADC_DelSig_2.c ****     
1840:Generated_Source\PSoC5/ADC_DelSig_2.c ****     /* Clear pending conversion done status */
1841:Generated_Source\PSoC5/ADC_DelSig_2.c ****     ADC_DelSig_2_DEC_SR_REG |= ADC_DelSig_2_DEC_INTR_CLEAR;
 1816              		.loc 1 1841 0
 1817 0002 084A     		ldr	r2, .L131
 1818 0004 1378     		ldrb	r3, [r2]	@ zero_extendqisi2
 1819 0006 43F00403 		orr	r3, r3, #4
ARM GAS  C:\Users\vboxuser\AppData\Local\Temp\ccKqkYuE.s 			page 69


 1820 000a 1370     		strb	r3, [r2]
1842:Generated_Source\PSoC5/ADC_DelSig_2.c ****     ADC_DelSig_2_StartConvert();
 1821              		.loc 1 1842 0
 1822 000c FFF7FEFF 		bl	ADC_DelSig_2_StartConvert
 1823              	.LVL165:
1843:Generated_Source\PSoC5/ADC_DelSig_2.c ****     (void)ADC_DelSig_2_IsEndConversion(ADC_DelSig_2_WAIT_FOR_RESULT);
 1824              		.loc 1 1843 0
 1825 0010 0020     		movs	r0, #0
 1826 0012 FFF7FEFF 		bl	ADC_DelSig_2_IsEndConversion
 1827              	.LVL166:
1844:Generated_Source\PSoC5/ADC_DelSig_2.c ****      result = ADC_DelSig_2_GetResult32();
 1828              		.loc 1 1844 0
 1829 0016 FFF7FEFF 		bl	ADC_DelSig_2_GetResult32
 1830              	.LVL167:
 1831 001a 0446     		mov	r4, r0
 1832              	.LVL168:
1845:Generated_Source\PSoC5/ADC_DelSig_2.c ****     ADC_DelSig_2_StopConvert();
 1833              		.loc 1 1845 0
 1834 001c FFF7FEFF 		bl	ADC_DelSig_2_StopConvert
 1835              	.LVL169:
1846:Generated_Source\PSoC5/ADC_DelSig_2.c ****     
1847:Generated_Source\PSoC5/ADC_DelSig_2.c ****      return(result);
1848:Generated_Source\PSoC5/ADC_DelSig_2.c **** }
 1836              		.loc 1 1848 0
 1837 0020 2046     		mov	r0, r4
 1838 0022 10BD     		pop	{r4, pc}
 1839              	.LVL170:
 1840              	.L132:
 1841              		.align	2
 1842              	.L131:
 1843 0024 014E0040 		.word	1073761793
 1844              		.cfi_endproc
 1845              	.LFE25:
 1846              		.size	ADC_DelSig_2_Read32, .-ADC_DelSig_2_Read32
 1847              		.comm	ADC_DelSig_2_CountsPerVolt,4,4
 1848              		.global	ADC_DelSig_2_Offset
 1849              		.global	ADC_DelSig_2_Config
 1850              		.global	ADC_DelSig_2_started
 1851              		.global	ADC_DelSig_2_initVar
 1852              		.global	ADC_DelSig_2_stopConversion
 1853              		.global	ADC_DelSig_2_convDone
 1854              		.data
 1855              		.set	.LANCHOR1,. + 0
 1856              		.type	ADC_DelSig_2_Config, %object
 1857              		.size	ADC_DelSig_2_Config, 1
 1858              	ADC_DelSig_2_Config:
 1859 0000 01       		.byte	1
 1860              		.bss
 1861              		.align	2
 1862              		.set	.LANCHOR0,. + 0
 1863              		.type	ADC_DelSig_2_gcor, %object
 1864              		.size	ADC_DelSig_2_gcor, 4
 1865              	ADC_DelSig_2_gcor:
 1866 0000 00000000 		.space	4
 1867              		.type	ADC_DelSig_2_stopConversion, %object
 1868              		.size	ADC_DelSig_2_stopConversion, 1
 1869              	ADC_DelSig_2_stopConversion:
ARM GAS  C:\Users\vboxuser\AppData\Local\Temp\ccKqkYuE.s 			page 70


 1870 0004 00       		.space	1
 1871              		.type	ADC_DelSig_2_convDone, %object
 1872              		.size	ADC_DelSig_2_convDone, 1
 1873              	ADC_DelSig_2_convDone:
 1874 0005 00       		.space	1
 1875              		.type	ADC_DelSig_2_initVar, %object
 1876              		.size	ADC_DelSig_2_initVar, 1
 1877              	ADC_DelSig_2_initVar:
 1878 0006 00       		.space	1
 1879              		.type	ADC_DelSig_2_started, %object
 1880              		.size	ADC_DelSig_2_started, 1
 1881              	ADC_DelSig_2_started:
 1882 0007 00       		.space	1
 1883              		.type	ADC_DelSig_2_Offset, %object
 1884              		.size	ADC_DelSig_2_Offset, 4
 1885              	ADC_DelSig_2_Offset:
 1886 0008 00000000 		.space	4
 1887              		.text
 1888              	.Letext0:
 1889              		.file 2 "Generated_Source\\PSoC5\\cytypes.h"
 1890              		.file 3 "Generated_Source\\PSoC5\\ADC_DelSig_2.h"
 1891              		.file 4 "Generated_Source\\PSoC5\\CyLib.h"
 1892              		.file 5 "Generated_Source\\PSoC5\\ADC_DelSig_2_AMux.h"
 1893              		.file 6 "Generated_Source\\PSoC5\\ADC_DelSig_2_Ext_CP_Clk.h"
 1894              		.file 7 "Generated_Source\\PSoC5\\ADC_DelSig_2_theACLK.h"
 1895              		.section	.debug_info,"",%progbits
 1896              	.Ldebug_info0:
 1897 0000 140A0000 		.4byte	0xa14
 1898 0004 0400     		.2byte	0x4
 1899 0006 00000000 		.4byte	.Ldebug_abbrev0
 1900 000a 04       		.byte	0x4
 1901 000b 01       		.uleb128 0x1
 1902 000c 2A050000 		.4byte	.LASF101
 1903 0010 0C       		.byte	0xc
 1904 0011 04050000 		.4byte	.LASF102
 1905 0015 C4030000 		.4byte	.LASF103
 1906 0019 00000000 		.4byte	.Ldebug_ranges0+0
 1907 001d 00000000 		.4byte	0
 1908 0021 00000000 		.4byte	.Ldebug_line0
 1909 0025 02       		.uleb128 0x2
 1910 0026 04       		.byte	0x4
 1911 0027 04       		.byte	0x4
 1912 0028 24040000 		.4byte	.LASF0
 1913 002c 02       		.uleb128 0x2
 1914 002d 01       		.byte	0x1
 1915 002e 06       		.byte	0x6
 1916 002f 3E010000 		.4byte	.LASF1
 1917 0033 02       		.uleb128 0x2
 1918 0034 01       		.byte	0x1
 1919 0035 08       		.byte	0x8
 1920 0036 DC040000 		.4byte	.LASF2
 1921 003a 02       		.uleb128 0x2
 1922 003b 02       		.byte	0x2
 1923 003c 05       		.byte	0x5
 1924 003d EA040000 		.4byte	.LASF3
 1925 0041 02       		.uleb128 0x2
 1926 0042 02       		.byte	0x2
ARM GAS  C:\Users\vboxuser\AppData\Local\Temp\ccKqkYuE.s 			page 71


 1927 0043 07       		.byte	0x7
 1928 0044 90020000 		.4byte	.LASF4
 1929 0048 02       		.uleb128 0x2
 1930 0049 04       		.byte	0x4
 1931 004a 05       		.byte	0x5
 1932 004b AD010000 		.4byte	.LASF5
 1933 004f 02       		.uleb128 0x2
 1934 0050 04       		.byte	0x4
 1935 0051 07       		.byte	0x7
 1936 0052 67020000 		.4byte	.LASF6
 1937 0056 02       		.uleb128 0x2
 1938 0057 08       		.byte	0x8
 1939 0058 05       		.byte	0x5
 1940 0059 30010000 		.4byte	.LASF7
 1941 005d 02       		.uleb128 0x2
 1942 005e 08       		.byte	0x8
 1943 005f 07       		.byte	0x7
 1944 0060 C7000000 		.4byte	.LASF8
 1945 0064 03       		.uleb128 0x3
 1946 0065 04       		.byte	0x4
 1947 0066 05       		.byte	0x5
 1948 0067 696E7400 		.ascii	"int\000"
 1949 006b 02       		.uleb128 0x2
 1950 006c 04       		.byte	0x4
 1951 006d 07       		.byte	0x7
 1952 006e 53020000 		.4byte	.LASF9
 1953 0072 04       		.uleb128 0x4
 1954 0073 BC010000 		.4byte	.LASF10
 1955 0077 02       		.byte	0x2
 1956 0078 E901     		.2byte	0x1e9
 1957 007a 33000000 		.4byte	0x33
 1958 007e 04       		.uleb128 0x4
 1959 007f 36000000 		.4byte	.LASF11
 1960 0083 02       		.byte	0x2
 1961 0084 EA01     		.2byte	0x1ea
 1962 0086 41000000 		.4byte	0x41
 1963 008a 04       		.uleb128 0x4
 1964 008b 1B020000 		.4byte	.LASF12
 1965 008f 02       		.byte	0x2
 1966 0090 EB01     		.2byte	0x1eb
 1967 0092 4F000000 		.4byte	0x4f
 1968 0096 04       		.uleb128 0x4
 1969 0097 A3020000 		.4byte	.LASF13
 1970 009b 02       		.byte	0x2
 1971 009c EC01     		.2byte	0x1ec
 1972 009e 2C000000 		.4byte	0x2c
 1973 00a2 04       		.uleb128 0x4
 1974 00a3 9F060000 		.4byte	.LASF14
 1975 00a7 02       		.byte	0x2
 1976 00a8 ED01     		.2byte	0x1ed
 1977 00aa 3A000000 		.4byte	0x3a
 1978 00ae 04       		.uleb128 0x4
 1979 00af 63010000 		.4byte	.LASF15
 1980 00b3 02       		.byte	0x2
 1981 00b4 EE01     		.2byte	0x1ee
 1982 00b6 48000000 		.4byte	0x48
 1983 00ba 04       		.uleb128 0x4
ARM GAS  C:\Users\vboxuser\AppData\Local\Temp\ccKqkYuE.s 			page 72


 1984 00bb 4C030000 		.4byte	.LASF16
 1985 00bf 02       		.byte	0x2
 1986 00c0 EF01     		.2byte	0x1ef
 1987 00c2 25000000 		.4byte	0x25
 1988 00c6 02       		.uleb128 0x2
 1989 00c7 08       		.byte	0x8
 1990 00c8 04       		.byte	0x4
 1991 00c9 CC010000 		.4byte	.LASF17
 1992 00cd 02       		.uleb128 0x2
 1993 00ce 01       		.byte	0x1
 1994 00cf 08       		.byte	0x8
 1995 00d0 FC050000 		.4byte	.LASF18
 1996 00d4 04       		.uleb128 0x4
 1997 00d5 A4040000 		.4byte	.LASF19
 1998 00d9 02       		.byte	0x2
 1999 00da 9302     		.2byte	0x293
 2000 00dc E0000000 		.4byte	0xe0
 2001 00e0 05       		.uleb128 0x5
 2002 00e1 72000000 		.4byte	0x72
 2003 00e5 04       		.uleb128 0x4
 2004 00e6 B6010000 		.4byte	.LASF20
 2005 00ea 02       		.byte	0x2
 2006 00eb 9402     		.2byte	0x294
 2007 00ed F1000000 		.4byte	0xf1
 2008 00f1 05       		.uleb128 0x5
 2009 00f2 7E000000 		.4byte	0x7e
 2010 00f6 04       		.uleb128 0x4
 2011 00f7 12030000 		.4byte	.LASF21
 2012 00fb 02       		.byte	0x2
 2013 00fc 9502     		.2byte	0x295
 2014 00fe 02010000 		.4byte	0x102
 2015 0102 05       		.uleb128 0x5
 2016 0103 8A000000 		.4byte	0x8a
 2017 0107 02       		.uleb128 0x2
 2018 0108 08       		.byte	0x8
 2019 0109 04       		.byte	0x4
 2020 010a A3030000 		.4byte	.LASF22
 2021 010e 02       		.uleb128 0x2
 2022 010f 04       		.byte	0x4
 2023 0110 07       		.byte	0x7
 2024 0111 84030000 		.4byte	.LASF23
 2025 0115 06       		.uleb128 0x6
 2026 0116 04       		.byte	0x4
 2027 0117 03       		.byte	0x3
 2028 0118 2F       		.byte	0x2f
 2029 0119 36010000 		.4byte	0x136
 2030 011d 07       		.uleb128 0x7
 2031 011e AD000000 		.4byte	.LASF24
 2032 0122 03       		.byte	0x3
 2033 0123 31       		.byte	0x31
 2034 0124 7E000000 		.4byte	0x7e
 2035 0128 00       		.byte	0
 2036 0129 07       		.uleb128 0x7
 2037 012a 0F060000 		.4byte	.LASF25
 2038 012e 03       		.byte	0x3
 2039 012f 32       		.byte	0x32
 2040 0130 72000000 		.4byte	0x72
ARM GAS  C:\Users\vboxuser\AppData\Local\Temp\ccKqkYuE.s 			page 73


 2041 0134 02       		.byte	0x2
 2042 0135 00       		.byte	0
 2043 0136 08       		.uleb128 0x8
 2044 0137 17010000 		.4byte	.LASF26
 2045 013b 03       		.byte	0x3
 2046 013c 33       		.byte	0x33
 2047 013d 15010000 		.4byte	0x115
 2048 0141 09       		.uleb128 0x9
 2049 0142 3D000000 		.4byte	.LASF36
 2050 0146 01       		.byte	0x1
 2051 0147 5906     		.2byte	0x659
 2052 0149 00000000 		.4byte	.LFB21
 2053 014d DC000000 		.4byte	.LFE21-.LFB21
 2054 0151 01       		.uleb128 0x1
 2055 0152 9C       		.byte	0x9c
 2056 0153 F7010000 		.4byte	0x1f7
 2057 0157 0A       		.uleb128 0xa
 2058 0158 86000000 		.4byte	.LASF27
 2059 015c 01       		.byte	0x1
 2060 015d 5906     		.2byte	0x659
 2061 015f 72000000 		.4byte	0x72
 2062 0163 00000000 		.4byte	.LLST0
 2063 0167 0A       		.uleb128 0xa
 2064 0168 BD040000 		.4byte	.LASF28
 2065 016c 01       		.byte	0x1
 2066 016d 5906     		.2byte	0x659
 2067 016f 7E000000 		.4byte	0x7e
 2068 0173 3A000000 		.4byte	.LLST1
 2069 0177 0A       		.uleb128 0xa
 2070 0178 07010000 		.4byte	.LASF29
 2071 017c 01       		.byte	0x1
 2072 017d 5906     		.2byte	0x659
 2073 017f 7E000000 		.4byte	0x7e
 2074 0183 74000000 		.4byte	.LLST2
 2075 0187 0A       		.uleb128 0xa
 2076 0188 CC050000 		.4byte	.LASF30
 2077 018c 01       		.byte	0x1
 2078 018d 5A06     		.2byte	0x65a
 2079 018f 72000000 		.4byte	0x72
 2080 0193 AE000000 		.4byte	.LLST3
 2081 0197 0A       		.uleb128 0xa
 2082 0198 08060000 		.4byte	.LASF31
 2083 019c 01       		.byte	0x1
 2084 019d 5A06     		.2byte	0x65a
 2085 019f 72000000 		.4byte	0x72
 2086 01a3 01010000 		.4byte	.LLST4
 2087 01a7 0B       		.uleb128 0xb
 2088 01a8 0C030000 		.4byte	.LASF32
 2089 01ac 01       		.byte	0x1
 2090 01ad 5C06     		.2byte	0x65c
 2091 01af 96000000 		.4byte	0x96
 2092 01b3 2D010000 		.4byte	.LLST5
 2093 01b7 0B       		.uleb128 0xb
 2094 01b8 CA040000 		.4byte	.LASF33
 2095 01bc 01       		.byte	0x1
 2096 01bd 5D06     		.2byte	0x65d
 2097 01bf AE000000 		.4byte	0xae
ARM GAS  C:\Users\vboxuser\AppData\Local\Temp\ccKqkYuE.s 			page 74


 2098 01c3 A3010000 		.4byte	.LLST6
 2099 01c7 0B       		.uleb128 0xb
 2100 01c8 BB020000 		.4byte	.LASF34
 2101 01cc 01       		.byte	0x1
 2102 01cd 5E06     		.2byte	0x65e
 2103 01cf 7E000000 		.4byte	0x7e
 2104 01d3 B6010000 		.4byte	.LLST7
 2105 01d7 0B       		.uleb128 0xb
 2106 01d8 FC040000 		.4byte	.LASF35
 2107 01dc 01       		.byte	0x1
 2108 01dd 5F06     		.2byte	0x65f
 2109 01df 8A000000 		.4byte	0x8a
 2110 01e3 DF010000 		.4byte	.LLST8
 2111 01e7 0C       		.uleb128 0xc
 2112 01e8 B4000000 		.4byte	.LVL33
 2113 01ec 9E090000 		.4byte	0x99e
 2114 01f0 0D       		.uleb128 0xd
 2115 01f1 01       		.uleb128 0x1
 2116 01f2 50       		.byte	0x50
 2117 01f3 01       		.uleb128 0x1
 2118 01f4 30       		.byte	0x30
 2119 01f5 00       		.byte	0
 2120 01f6 00       		.byte	0
 2121 01f7 09       		.uleb128 0x9
 2122 01f8 2A040000 		.4byte	.LASF37
 2123 01fc 01       		.byte	0x1
 2124 01fd C406     		.2byte	0x6c4
 2125 01ff 00000000 		.4byte	.LFB22
 2126 0203 4C000000 		.4byte	.LFE22-.LFB22
 2127 0207 01       		.uleb128 0x1
 2128 0208 9C       		.byte	0x9c
 2129 0209 5A020000 		.4byte	0x25a
 2130 020d 0A       		.uleb128 0xa
 2131 020e 45020000 		.4byte	.LASF38
 2132 0212 01       		.byte	0x1
 2133 0213 C406     		.2byte	0x6c4
 2134 0215 72000000 		.4byte	0x72
 2135 0219 F2010000 		.4byte	.LLST9
 2136 021d 0B       		.uleb128 0xb
 2137 021e 68060000 		.4byte	.LASF39
 2138 0222 01       		.byte	0x1
 2139 0223 C606     		.2byte	0x6c6
 2140 0225 72000000 		.4byte	0x72
 2141 0229 13020000 		.4byte	.LLST10
 2142 022d 0E       		.uleb128 0xe
 2143 022e 08000000 		.4byte	.LVL36
 2144 0232 A9090000 		.4byte	0x9a9
 2145 0236 0F       		.uleb128 0xf
 2146 0237 28000000 		.4byte	.LVL38
 2147 023b B4090000 		.4byte	0x9b4
 2148 023f 49020000 		.4byte	0x249
 2149 0243 0D       		.uleb128 0xd
 2150 0244 01       		.uleb128 0x1
 2151 0245 50       		.byte	0x50
 2152 0246 01       		.uleb128 0x1
 2153 0247 33       		.byte	0x33
 2154 0248 00       		.byte	0
ARM GAS  C:\Users\vboxuser\AppData\Local\Temp\ccKqkYuE.s 			page 75


 2155 0249 0C       		.uleb128 0xc
 2156 024a 3E000000 		.4byte	.LVL39
 2157 024e BF090000 		.4byte	0x9bf
 2158 0252 0D       		.uleb128 0xd
 2159 0253 01       		.uleb128 0x1
 2160 0254 50       		.byte	0x50
 2161 0255 02       		.uleb128 0x2
 2162 0256 76       		.byte	0x76
 2163 0257 00       		.sleb128 0
 2164 0258 00       		.byte	0
 2165 0259 00       		.byte	0
 2166 025a 09       		.uleb128 0x9
 2167 025b 54030000 		.4byte	.LASF40
 2168 025f 01       		.byte	0x1
 2169 0260 DF04     		.2byte	0x4df
 2170 0262 00000000 		.4byte	.LFB19
 2171 0266 E0000000 		.4byte	.LFE19-.LFB19
 2172 026a 01       		.uleb128 0x1
 2173 026b 9C       		.byte	0x9c
 2174 026c EB020000 		.4byte	0x2eb
 2175 0270 0A       		.uleb128 0xa
 2176 0271 08060000 		.4byte	.LASF31
 2177 0275 01       		.byte	0x1
 2178 0276 DF04     		.2byte	0x4df
 2179 0278 72000000 		.4byte	0x72
 2180 027c 26020000 		.4byte	.LLST11
 2181 0280 0F       		.uleb128 0xf
 2182 0281 86000000 		.4byte	.LVL43
 2183 0285 F7010000 		.4byte	0x1f7
 2184 0289 94020000 		.4byte	0x294
 2185 028d 0D       		.uleb128 0xd
 2186 028e 01       		.uleb128 0x1
 2187 028f 50       		.byte	0x50
 2188 0290 02       		.uleb128 0x2
 2189 0291 08       		.byte	0x8
 2190 0292 52       		.byte	0x52
 2191 0293 00       		.byte	0
 2192 0294 0F       		.uleb128 0xf
 2193 0295 A6000000 		.4byte	.LVL44
 2194 0299 CA090000 		.4byte	0x9ca
 2195 029d A8020000 		.4byte	0x2a8
 2196 02a1 0D       		.uleb128 0xd
 2197 02a2 01       		.uleb128 0x1
 2198 02a3 50       		.byte	0x50
 2199 02a4 02       		.uleb128 0x2
 2200 02a5 74       		.byte	0x74
 2201 02a6 00       		.sleb128 0
 2202 02a7 00       		.byte	0
 2203 02a8 0F       		.uleb128 0xf
 2204 02a9 B6000000 		.4byte	.LVL45
 2205 02ad D5090000 		.4byte	0x9d5
 2206 02b1 C2020000 		.4byte	0x2c2
 2207 02b5 0D       		.uleb128 0xd
 2208 02b6 01       		.uleb128 0x1
 2209 02b7 50       		.byte	0x50
 2210 02b8 02       		.uleb128 0x2
 2211 02b9 75       		.byte	0x75
ARM GAS  C:\Users\vboxuser\AppData\Local\Temp\ccKqkYuE.s 			page 76


 2212 02ba 00       		.sleb128 0
 2213 02bb 0D       		.uleb128 0xd
 2214 02bc 01       		.uleb128 0x1
 2215 02bd 51       		.byte	0x51
 2216 02be 02       		.uleb128 0x2
 2217 02bf 75       		.byte	0x75
 2218 02c0 00       		.sleb128 0
 2219 02c1 00       		.byte	0
 2220 02c2 0F       		.uleb128 0xf
 2221 02c3 BE000000 		.4byte	.LVL46
 2222 02c7 E0090000 		.4byte	0x9e0
 2223 02cb DB020000 		.4byte	0x2db
 2224 02cf 0D       		.uleb128 0xd
 2225 02d0 01       		.uleb128 0x1
 2226 02d1 50       		.byte	0x50
 2227 02d2 01       		.uleb128 0x1
 2228 02d3 38       		.byte	0x38
 2229 02d4 0D       		.uleb128 0xd
 2230 02d5 01       		.uleb128 0x1
 2231 02d6 51       		.byte	0x51
 2232 02d7 02       		.uleb128 0x2
 2233 02d8 75       		.byte	0x75
 2234 02d9 00       		.sleb128 0
 2235 02da 00       		.byte	0
 2236 02db 0C       		.uleb128 0xc
 2237 02dc C6000000 		.4byte	.LVL47
 2238 02e0 EB090000 		.4byte	0x9eb
 2239 02e4 0D       		.uleb128 0xd
 2240 02e5 01       		.uleb128 0x1
 2241 02e6 50       		.byte	0x50
 2242 02e7 01       		.uleb128 0x1
 2243 02e8 4D       		.byte	0x4d
 2244 02e9 00       		.byte	0
 2245 02ea 00       		.byte	0
 2246 02eb 10       		.uleb128 0x10
 2247 02ec F6060000 		.4byte	.LASF41
 2248 02f0 01       		.byte	0x1
 2249 02f1 5B       		.byte	0x5b
 2250 02f2 00000000 		.4byte	.LFB0
 2251 02f6 C4000000 		.4byte	.LFE0-.LFB0
 2252 02fa 01       		.uleb128 0x1
 2253 02fb 9C       		.byte	0x9c
 2254 02fc 75030000 		.4byte	0x375
 2255 0300 0F       		.uleb128 0xf
 2256 0301 16000000 		.4byte	.LVL49
 2257 0305 F6090000 		.4byte	0x9f6
 2258 0309 13030000 		.4byte	0x313
 2259 030d 0D       		.uleb128 0xd
 2260 030e 01       		.uleb128 0x1
 2261 030f 50       		.byte	0x50
 2262 0310 01       		.uleb128 0x1
 2263 0311 40       		.byte	0x40
 2264 0312 00       		.byte	0
 2265 0313 0F       		.uleb128 0xf
 2266 0314 1C000000 		.4byte	.LVL50
 2267 0318 010A0000 		.4byte	0xa01
 2268 031c 26030000 		.4byte	0x326
ARM GAS  C:\Users\vboxuser\AppData\Local\Temp\ccKqkYuE.s 			page 77


 2269 0320 0D       		.uleb128 0xd
 2270 0321 01       		.uleb128 0x1
 2271 0322 50       		.byte	0x50
 2272 0323 01       		.uleb128 0x1
 2273 0324 40       		.byte	0x40
 2274 0325 00       		.byte	0
 2275 0326 0F       		.uleb128 0xf
 2276 0327 24000000 		.4byte	.LVL51
 2277 032b 0C0A0000 		.4byte	0xa0c
 2278 032f 3E030000 		.4byte	0x33e
 2279 0333 0D       		.uleb128 0xd
 2280 0334 01       		.uleb128 0x1
 2281 0335 50       		.byte	0x50
 2282 0336 01       		.uleb128 0x1
 2283 0337 4D       		.byte	0x4d
 2284 0338 0D       		.uleb128 0xd
 2285 0339 01       		.uleb128 0x1
 2286 033a 51       		.byte	0x51
 2287 033b 01       		.uleb128 0x1
 2288 033c 37       		.byte	0x37
 2289 033d 00       		.byte	0
 2290 033e 0F       		.uleb128 0xf
 2291 033f 84000000 		.4byte	.LVL52
 2292 0343 41010000 		.4byte	0x141
 2293 0347 6B030000 		.4byte	0x36b
 2294 034b 0D       		.uleb128 0xd
 2295 034c 01       		.uleb128 0x1
 2296 034d 50       		.byte	0x50
 2297 034e 01       		.uleb128 0x1
 2298 034f 32       		.byte	0x32
 2299 0350 0D       		.uleb128 0xd
 2300 0351 01       		.uleb128 0x1
 2301 0352 51       		.byte	0x51
 2302 0353 03       		.uleb128 0x3
 2303 0354 0B       		.byte	0xb
 2304 0355 F08D     		.2byte	0x8df0
 2305 0357 0D       		.uleb128 0xd
 2306 0358 01       		.uleb128 0x1
 2307 0359 52       		.byte	0x52
 2308 035a 03       		.uleb128 0x3
 2309 035b 0B       		.byte	0xb
 2310 035c 0080     		.2byte	0x8000
 2311 035e 0D       		.uleb128 0xd
 2312 035f 01       		.uleb128 0x1
 2313 0360 53       		.byte	0x53
 2314 0361 01       		.uleb128 0x1
 2315 0362 40       		.byte	0x40
 2316 0363 0D       		.uleb128 0xd
 2317 0364 02       		.uleb128 0x2
 2318 0365 7D       		.byte	0x7d
 2319 0366 00       		.sleb128 0
 2320 0367 02       		.uleb128 0x2
 2321 0368 77       		.byte	0x77
 2322 0369 00       		.sleb128 0
 2323 036a 00       		.byte	0
 2324 036b 0E       		.uleb128 0xe
 2325 036c A4000000 		.4byte	.LVL53
ARM GAS  C:\Users\vboxuser\AppData\Local\Temp\ccKqkYuE.s 			page 78


 2326 0370 5A020000 		.4byte	0x25a
 2327 0374 00       		.byte	0
 2328 0375 10       		.uleb128 0x10
 2329 0376 B8050000 		.4byte	.LASF42
 2330 037a 01       		.byte	0x1
 2331 037b BA       		.byte	0xba
 2332 037c 00000000 		.4byte	.LFB1
 2333 0380 D8000000 		.4byte	.LFE1-.LFB1
 2334 0384 01       		.uleb128 0x1
 2335 0385 9C       		.byte	0x9c
 2336 0386 D1030000 		.4byte	0x3d1
 2337 038a 11       		.uleb128 0x11
 2338 038b 08060000 		.4byte	.LASF31
 2339 038f 01       		.byte	0x1
 2340 0390 BC       		.byte	0xbc
 2341 0391 72000000 		.4byte	0x72
 2342 0395 12       		.uleb128 0x12
 2343 0396 68060000 		.4byte	.LASF39
 2344 039a 01       		.byte	0x1
 2345 039b BD       		.byte	0xbd
 2346 039c 72000000 		.4byte	0x72
 2347 03a0 52020000 		.4byte	.LLST12
 2348 03a4 0E       		.uleb128 0xe
 2349 03a5 06000000 		.4byte	.LVL54
 2350 03a9 A9090000 		.4byte	0x9a9
 2351 03ad 0F       		.uleb128 0xf
 2352 03ae 54000000 		.4byte	.LVL57
 2353 03b2 B4090000 		.4byte	0x9b4
 2354 03b6 C0030000 		.4byte	0x3c0
 2355 03ba 0D       		.uleb128 0xd
 2356 03bb 01       		.uleb128 0x1
 2357 03bc 50       		.byte	0x50
 2358 03bd 01       		.uleb128 0x1
 2359 03be 33       		.byte	0x33
 2360 03bf 00       		.byte	0
 2361 03c0 0C       		.uleb128 0xc
 2362 03c1 B0000000 		.4byte	.LVL58
 2363 03c5 BF090000 		.4byte	0x9bf
 2364 03c9 0D       		.uleb128 0xd
 2365 03ca 01       		.uleb128 0x1
 2366 03cb 50       		.byte	0x50
 2367 03cc 02       		.uleb128 0x2
 2368 03cd 76       		.byte	0x76
 2369 03ce 00       		.sleb128 0
 2370 03cf 00       		.byte	0
 2371 03d0 00       		.byte	0
 2372 03d1 13       		.uleb128 0x13
 2373 03d2 A8020000 		.4byte	.LASF43
 2374 03d6 01       		.byte	0x1
 2375 03d7 4E01     		.2byte	0x14e
 2376 03d9 00000000 		.4byte	.LFB2
 2377 03dd 28000000 		.4byte	.LFE2-.LFB2
 2378 03e1 01       		.uleb128 0x1
 2379 03e2 9C       		.byte	0x9c
 2380 03e3 FA030000 		.4byte	0x3fa
 2381 03e7 0E       		.uleb128 0xe
 2382 03e8 16000000 		.4byte	.LVL60
ARM GAS  C:\Users\vboxuser\AppData\Local\Temp\ccKqkYuE.s 			page 79


 2383 03ec EB020000 		.4byte	0x2eb
 2384 03f0 0E       		.uleb128 0xe
 2385 03f1 20000000 		.4byte	.LVL61
 2386 03f5 75030000 		.4byte	0x375
 2387 03f9 00       		.byte	0
 2388 03fa 13       		.uleb128 0x13
 2389 03fb D3010000 		.4byte	.LASF44
 2390 03ff 01       		.byte	0x1
 2391 0400 6F01     		.2byte	0x16f
 2392 0402 00000000 		.4byte	.LFB3
 2393 0406 E4000000 		.4byte	.LFE3-.LFB3
 2394 040a 01       		.uleb128 0x1
 2395 040b 9C       		.byte	0x9c
 2396 040c 4D040000 		.4byte	0x44d
 2397 0410 0B       		.uleb128 0xb
 2398 0411 68060000 		.4byte	.LASF39
 2399 0415 01       		.byte	0x1
 2400 0416 7101     		.2byte	0x171
 2401 0418 72000000 		.4byte	0x72
 2402 041c 65020000 		.4byte	.LLST13
 2403 0420 0E       		.uleb128 0xe
 2404 0421 06000000 		.4byte	.LVL62
 2405 0425 A9090000 		.4byte	0x9a9
 2406 0429 0F       		.uleb128 0xf
 2407 042a 4C000000 		.4byte	.LVL64
 2408 042e B4090000 		.4byte	0x9b4
 2409 0432 3C040000 		.4byte	0x43c
 2410 0436 0D       		.uleb128 0xd
 2411 0437 01       		.uleb128 0x1
 2412 0438 50       		.byte	0x50
 2413 0439 01       		.uleb128 0x1
 2414 043a 33       		.byte	0x33
 2415 043b 00       		.byte	0
 2416 043c 0C       		.uleb128 0xc
 2417 043d CC000000 		.4byte	.LVL65
 2418 0441 BF090000 		.4byte	0x9bf
 2419 0445 0D       		.uleb128 0xd
 2420 0446 01       		.uleb128 0x1
 2421 0447 50       		.byte	0x50
 2422 0448 02       		.uleb128 0x2
 2423 0449 76       		.byte	0x76
 2424 044a 00       		.sleb128 0
 2425 044b 00       		.byte	0
 2426 044c 00       		.byte	0
 2427 044d 13       		.uleb128 0x13
 2428 044e F1020000 		.4byte	.LASF45
 2429 0452 01       		.byte	0x1
 2430 0453 B201     		.2byte	0x1b2
 2431 0455 00000000 		.4byte	.LFB4
 2432 0459 18000000 		.4byte	.LFE4-.LFB4
 2433 045d 01       		.uleb128 0x1
 2434 045e 9C       		.byte	0x9c
 2435 045f 84040000 		.4byte	0x484
 2436 0463 0A       		.uleb128 0xa
 2437 0464 1F040000 		.4byte	.LASF46
 2438 0468 01       		.byte	0x1
 2439 0469 B201     		.2byte	0x1b2
ARM GAS  C:\Users\vboxuser\AppData\Local\Temp\ccKqkYuE.s 			page 80


 2440 046b 72000000 		.4byte	0x72
 2441 046f 78020000 		.4byte	.LLST14
 2442 0473 0B       		.uleb128 0xb
 2443 0474 E8060000 		.4byte	.LASF47
 2444 0478 01       		.byte	0x1
 2445 0479 B401     		.2byte	0x1b4
 2446 047b 72000000 		.4byte	0x72
 2447 047f 99020000 		.4byte	.LLST15
 2448 0483 00       		.byte	0
 2449 0484 13       		.uleb128 0x13
 2450 0485 45040000 		.4byte	.LASF48
 2451 0489 01       		.byte	0x1
 2452 048a D601     		.2byte	0x1d6
 2453 048c 00000000 		.4byte	.LFB5
 2454 0490 18000000 		.4byte	.LFE5-.LFB5
 2455 0494 01       		.uleb128 0x1
 2456 0495 9C       		.byte	0x9c
 2457 0496 BB040000 		.4byte	0x4bb
 2458 049a 0A       		.uleb128 0xa
 2459 049b 04040000 		.4byte	.LASF49
 2460 049f 01       		.byte	0x1
 2461 04a0 D601     		.2byte	0x1d6
 2462 04a2 72000000 		.4byte	0x72
 2463 04a6 B7020000 		.4byte	.LLST16
 2464 04aa 0B       		.uleb128 0xb
 2465 04ab E8060000 		.4byte	.LASF47
 2466 04af 01       		.byte	0x1
 2467 04b0 D801     		.2byte	0x1d8
 2468 04b2 72000000 		.4byte	0x72
 2469 04b6 D8020000 		.4byte	.LLST17
 2470 04ba 00       		.byte	0
 2471 04bb 14       		.uleb128 0x14
 2472 04bc 71000000 		.4byte	.LASF53
 2473 04c0 01       		.byte	0x1
 2474 04c1 FE01     		.2byte	0x1fe
 2475 04c3 72000000 		.4byte	0x72
 2476 04c7 00000000 		.4byte	.LFB6
 2477 04cb 74000000 		.4byte	.LFE6-.LFB6
 2478 04cf 01       		.uleb128 0x1
 2479 04d0 9C       		.byte	0x9c
 2480 04d1 16050000 		.4byte	0x516
 2481 04d5 0A       		.uleb128 0xa
 2482 04d6 94060000 		.4byte	.LASF50
 2483 04da 01       		.byte	0x1
 2484 04db FE01     		.2byte	0x1fe
 2485 04dd BA000000 		.4byte	0xba
 2486 04e1 F6020000 		.4byte	.LLST18
 2487 04e5 0B       		.uleb128 0xb
 2488 04e6 E8060000 		.4byte	.LASF47
 2489 04ea 01       		.byte	0x1
 2490 04eb 0002     		.2byte	0x200
 2491 04ed 7E000000 		.4byte	0x7e
 2492 04f1 24030000 		.4byte	.LLST19
 2493 04f5 0B       		.uleb128 0xb
 2494 04f6 79060000 		.4byte	.LASF51
 2495 04fa 01       		.byte	0x1
 2496 04fb 0102     		.2byte	0x201
ARM GAS  C:\Users\vboxuser\AppData\Local\Temp\ccKqkYuE.s 			page 81


 2497 04fd 72000000 		.4byte	0x72
 2498 0501 5C030000 		.4byte	.LLST20
 2499 0505 0B       		.uleb128 0xb
 2500 0506 31060000 		.4byte	.LASF52
 2501 050a 01       		.byte	0x1
 2502 050b 0202     		.2byte	0x202
 2503 050d BA000000 		.4byte	0xba
 2504 0511 7B030000 		.4byte	.LLST21
 2505 0515 00       		.byte	0
 2506 0516 15       		.uleb128 0x15
 2507 0517 08070000 		.4byte	.LASF54
 2508 051b 01       		.byte	0x1
 2509 051c 2D02     		.2byte	0x22d
 2510 051e 7E000000 		.4byte	0x7e
 2511 0522 00000000 		.4byte	.LFB7
 2512 0526 24000000 		.4byte	.LFE7-.LFB7
 2513 052a 01       		.uleb128 0x1
 2514 052b 9C       		.byte	0x9c
 2515 052c 51050000 		.4byte	0x551
 2516 0530 0B       		.uleb128 0xb
 2517 0531 01060000 		.4byte	.LASF55
 2518 0535 01       		.byte	0x1
 2519 0536 2F02     		.2byte	0x22f
 2520 0538 72000000 		.4byte	0x72
 2521 053c BA030000 		.4byte	.LLST22
 2522 0540 0B       		.uleb128 0xb
 2523 0541 BB020000 		.4byte	.LASF34
 2524 0545 01       		.byte	0x1
 2525 0546 3002     		.2byte	0x230
 2526 0548 7E000000 		.4byte	0x7e
 2527 054c CD030000 		.4byte	.LLST23
 2528 0550 00       		.byte	0
 2529 0551 16       		.uleb128 0x16
 2530 0552 EA030000 		.4byte	.LASF56
 2531 0556 01       		.byte	0x1
 2532 0557 4F02     		.2byte	0x24f
 2533 0559 00000000 		.4byte	.LFB8
 2534 055d 10000000 		.4byte	.LFE8-.LFB8
 2535 0561 01       		.uleb128 0x1
 2536 0562 9C       		.byte	0x9c
 2537 0563 16       		.uleb128 0x16
 2538 0564 4A010000 		.4byte	.LASF57
 2539 0568 01       		.byte	0x1
 2540 0569 6602     		.2byte	0x266
 2541 056b 00000000 		.4byte	.LFB9
 2542 056f 10000000 		.4byte	.LFE9-.LFB9
 2543 0573 01       		.uleb128 0x1
 2544 0574 9C       		.byte	0x9c
 2545 0575 15       		.uleb128 0x15
 2546 0576 4B060000 		.4byte	.LASF58
 2547 057a 01       		.byte	0x1
 2548 057b 8902     		.2byte	0x289
 2549 057d 72000000 		.4byte	0x72
 2550 0581 00000000 		.4byte	.LFB10
 2551 0585 30000000 		.4byte	.LFE10-.LFB10
 2552 0589 01       		.uleb128 0x1
 2553 058a 9C       		.byte	0x9c
ARM GAS  C:\Users\vboxuser\AppData\Local\Temp\ccKqkYuE.s 			page 82


 2554 058b B0050000 		.4byte	0x5b0
 2555 058f 0A       		.uleb128 0xa
 2556 0590 4B020000 		.4byte	.LASF59
 2557 0594 01       		.byte	0x1
 2558 0595 8902     		.2byte	0x289
 2559 0597 72000000 		.4byte	0x72
 2560 059b EB030000 		.4byte	.LLST24
 2561 059f 0B       		.uleb128 0xb
 2562 05a0 79060000 		.4byte	.LASF51
 2563 05a4 01       		.byte	0x1
 2564 05a5 8B02     		.2byte	0x28b
 2565 05a7 72000000 		.4byte	0x72
 2566 05ab 0C040000 		.4byte	.LLST25
 2567 05af 00       		.byte	0
 2568 05b0 15       		.uleb128 0x15
 2569 05b1 6C030000 		.4byte	.LASF60
 2570 05b5 01       		.byte	0x1
 2571 05b6 B802     		.2byte	0x2b8
 2572 05b8 96000000 		.4byte	0x96
 2573 05bc 00000000 		.4byte	.LFB11
 2574 05c0 48000000 		.4byte	.LFE11-.LFB11
 2575 05c4 01       		.uleb128 0x1
 2576 05c5 9C       		.byte	0x9c
 2577 05c6 E9050000 		.4byte	0x5e9
 2578 05ca 17       		.uleb128 0x17
 2579 05cb EF060000 		.4byte	.LASF61
 2580 05cf 01       		.byte	0x1
 2581 05d0 BA02     		.2byte	0x2ba
 2582 05d2 96000000 		.4byte	0x96
 2583 05d6 01       		.uleb128 0x1
 2584 05d7 50       		.byte	0x50
 2585 05d8 0B       		.uleb128 0xb
 2586 05d9 04040000 		.4byte	.LASF49
 2587 05dd 01       		.byte	0x1
 2588 05de BB02     		.2byte	0x2bb
 2589 05e0 72000000 		.4byte	0x72
 2590 05e4 2A040000 		.4byte	.LLST26
 2591 05e8 00       		.byte	0
 2592 05e9 15       		.uleb128 0x15
 2593 05ea E3050000 		.4byte	.LASF62
 2594 05ee 01       		.byte	0x1
 2595 05ef EE02     		.2byte	0x2ee
 2596 05f1 A2000000 		.4byte	0xa2
 2597 05f5 00000000 		.4byte	.LFB12
 2598 05f9 50000000 		.4byte	.LFE12-.LFB12
 2599 05fd 01       		.uleb128 0x1
 2600 05fe 9C       		.byte	0x9c
 2601 05ff 24060000 		.4byte	0x624
 2602 0603 0B       		.uleb128 0xb
 2603 0604 EF060000 		.4byte	.LASF61
 2604 0608 01       		.byte	0x1
 2605 0609 F002     		.2byte	0x2f0
 2606 060b 7E000000 		.4byte	0x7e
 2607 060f 48040000 		.4byte	.LLST27
 2608 0613 0B       		.uleb128 0xb
 2609 0614 04040000 		.4byte	.LASF49
 2610 0618 01       		.byte	0x1
ARM GAS  C:\Users\vboxuser\AppData\Local\Temp\ccKqkYuE.s 			page 83


 2611 0619 F102     		.2byte	0x2f1
 2612 061b 72000000 		.4byte	0x72
 2613 061f 71040000 		.4byte	.LLST28
 2614 0623 00       		.byte	0
 2615 0624 15       		.uleb128 0x15
 2616 0625 1D000000 		.4byte	.LASF63
 2617 0629 01       		.byte	0x1
 2618 062a 2A03     		.2byte	0x32a
 2619 062c AE000000 		.4byte	0xae
 2620 0630 00000000 		.4byte	.LFB13
 2621 0634 6C000000 		.4byte	.LFE13-.LFB13
 2622 0638 01       		.uleb128 0x1
 2623 0639 9C       		.byte	0x9c
 2624 063a 5F060000 		.4byte	0x65f
 2625 063e 0B       		.uleb128 0xb
 2626 063f EF060000 		.4byte	.LASF61
 2627 0643 01       		.byte	0x1
 2628 0644 2C03     		.2byte	0x32c
 2629 0646 8A000000 		.4byte	0x8a
 2630 064a 8F040000 		.4byte	.LLST29
 2631 064e 0B       		.uleb128 0xb
 2632 064f 04040000 		.4byte	.LASF49
 2633 0653 01       		.byte	0x1
 2634 0654 2D03     		.2byte	0x32d
 2635 0656 72000000 		.4byte	0x72
 2636 065a F0040000 		.4byte	.LLST30
 2637 065e 00       		.byte	0
 2638 065f 13       		.uleb128 0x13
 2639 0660 DE000000 		.4byte	.LASF64
 2640 0664 01       		.byte	0x1
 2641 0665 8703     		.2byte	0x387
 2642 0667 00000000 		.4byte	.LFB14
 2643 066b 0C000000 		.4byte	.LFE14-.LFB14
 2644 066f 01       		.uleb128 0x1
 2645 0670 9C       		.byte	0x9c
 2646 0671 84060000 		.4byte	0x684
 2647 0675 18       		.uleb128 0x18
 2648 0676 3A060000 		.4byte	.LASF65
 2649 067a 01       		.byte	0x1
 2650 067b 8703     		.2byte	0x387
 2651 067d AE000000 		.4byte	0xae
 2652 0681 01       		.uleb128 0x1
 2653 0682 50       		.byte	0x50
 2654 0683 00       		.byte	0
 2655 0684 13       		.uleb128 0x13
 2656 0685 B2000000 		.4byte	.LASF66
 2657 0689 01       		.byte	0x1
 2658 068a AA03     		.2byte	0x3aa
 2659 068c 00000000 		.4byte	.LFB15
 2660 0690 0C000000 		.4byte	.LFE15-.LFB15
 2661 0694 01       		.uleb128 0x1
 2662 0695 9C       		.byte	0x9c
 2663 0696 A9060000 		.4byte	0x6a9
 2664 069a 18       		.uleb128 0x18
 2665 069b F4040000 		.4byte	.LASF67
 2666 069f 01       		.byte	0x1
 2667 06a0 AA03     		.2byte	0x3aa
ARM GAS  C:\Users\vboxuser\AppData\Local\Temp\ccKqkYuE.s 			page 84


 2668 06a2 AE000000 		.4byte	0xae
 2669 06a6 01       		.uleb128 0x1
 2670 06a7 50       		.byte	0x50
 2671 06a8 00       		.byte	0
 2672 06a9 15       		.uleb128 0x15
 2673 06aa 87040000 		.4byte	.LASF68
 2674 06ae 01       		.byte	0x1
 2675 06af C503     		.2byte	0x3c5
 2676 06b1 A2000000 		.4byte	0xa2
 2677 06b5 00000000 		.4byte	.LFB16
 2678 06b9 24000000 		.4byte	.LFE16-.LFB16
 2679 06bd 01       		.uleb128 0x1
 2680 06be 9C       		.byte	0x9c
 2681 06bf E2060000 		.4byte	0x6e2
 2682 06c3 0A       		.uleb128 0xa
 2683 06c4 41060000 		.4byte	.LASF69
 2684 06c8 01       		.byte	0x1
 2685 06c9 C503     		.2byte	0x3c5
 2686 06cb AE000000 		.4byte	0xae
 2687 06cf 19050000 		.4byte	.LLST31
 2688 06d3 17       		.uleb128 0x17
 2689 06d4 EA020000 		.4byte	.LASF70
 2690 06d8 01       		.byte	0x1
 2691 06d9 C803     		.2byte	0x3c8
 2692 06db A2000000 		.4byte	0xa2
 2693 06df 01       		.uleb128 0x1
 2694 06e0 50       		.byte	0x50
 2695 06e1 00       		.byte	0
 2696 06e2 14       		.uleb128 0x14
 2697 06e3 EB010000 		.4byte	.LASF71
 2698 06e7 01       		.byte	0x1
 2699 06e8 0204     		.2byte	0x402
 2700 06ea BA000000 		.4byte	0xba
 2701 06ee 00000000 		.4byte	.LFB17
 2702 06f2 28000000 		.4byte	.LFE17-.LFB17
 2703 06f6 01       		.uleb128 0x1
 2704 06f7 9C       		.byte	0x9c
 2705 06f8 1B070000 		.4byte	0x71b
 2706 06fc 0A       		.uleb128 0xa
 2707 06fd 41060000 		.4byte	.LASF69
 2708 0701 01       		.byte	0x1
 2709 0702 0204     		.2byte	0x402
 2710 0704 AE000000 		.4byte	0xae
 2711 0708 37050000 		.4byte	.LLST32
 2712 070c 17       		.uleb128 0x17
 2713 070d E5010000 		.4byte	.LASF72
 2714 0711 01       		.byte	0x1
 2715 0712 0504     		.2byte	0x405
 2716 0714 BA000000 		.4byte	0xba
 2717 0718 01       		.uleb128 0x1
 2718 0719 50       		.byte	0x50
 2719 071a 00       		.byte	0
 2720 071b 15       		.uleb128 0x15
 2721 071c 00000000 		.4byte	.LASF73
 2722 0720 01       		.byte	0x1
 2723 0721 4404     		.2byte	0x444
 2724 0723 AE000000 		.4byte	0xae
ARM GAS  C:\Users\vboxuser\AppData\Local\Temp\ccKqkYuE.s 			page 85


 2725 0727 00000000 		.4byte	.LFB18
 2726 072b 4C000000 		.4byte	.LFE18-.LFB18
 2727 072f 01       		.uleb128 0x1
 2728 0730 9C       		.byte	0x9c
 2729 0731 81070000 		.4byte	0x781
 2730 0735 0A       		.uleb128 0xa
 2731 0736 41060000 		.4byte	.LASF69
 2732 073a 01       		.byte	0x1
 2733 073b 4404     		.2byte	0x444
 2734 073d AE000000 		.4byte	0xae
 2735 0741 65050000 		.4byte	.LLST33
 2736 0745 0B       		.uleb128 0xb
 2737 0746 60020000 		.4byte	.LASF74
 2738 074a 01       		.byte	0x1
 2739 074b 4704     		.2byte	0x447
 2740 074d AE000000 		.4byte	0xae
 2741 0751 86050000 		.4byte	.LLST34
 2742 0755 19       		.uleb128 0x19
 2743 0756 D7050000 		.4byte	.LASF75
 2744 075a 01       		.byte	0x1
 2745 075b 4804     		.2byte	0x448
 2746 075d AE000000 		.4byte	0xae
 2747 0761 127A     		.2byte	0x7a12
 2748 0763 0B       		.uleb128 0xb
 2749 0764 DD050000 		.4byte	.LASF76
 2750 0768 01       		.byte	0x1
 2751 0769 4904     		.2byte	0x449
 2752 076b AE000000 		.4byte	0xae
 2753 076f A9050000 		.4byte	.LLST35
 2754 0773 1A       		.uleb128 0x1a
 2755 0774 CC050000 		.4byte	.LASF30
 2756 0778 01       		.byte	0x1
 2757 0779 4A04     		.2byte	0x44a
 2758 077b 72000000 		.4byte	0x72
 2759 077f 10       		.byte	0x10
 2760 0780 00       		.byte	0
 2761 0781 13       		.uleb128 0x13
 2762 0782 18030000 		.4byte	.LASF77
 2763 0786 01       		.byte	0x1
 2764 0787 1806     		.2byte	0x618
 2765 0789 00000000 		.4byte	.LFB20
 2766 078d 60000000 		.4byte	.LFE20-.LFB20
 2767 0791 01       		.uleb128 0x1
 2768 0792 9C       		.byte	0x9c
 2769 0793 F6070000 		.4byte	0x7f6
 2770 0797 0A       		.uleb128 0xa
 2771 0798 08060000 		.4byte	.LASF31
 2772 079c 01       		.byte	0x1
 2773 079d 1806     		.2byte	0x618
 2774 079f 72000000 		.4byte	0x72
 2775 07a3 C9050000 		.4byte	.LLST36
 2776 07a7 0A       		.uleb128 0xa
 2777 07a8 29060000 		.4byte	.LASF78
 2778 07ac 01       		.byte	0x1
 2779 07ad 1806     		.2byte	0x618
 2780 07af 72000000 		.4byte	0x72
 2781 07b3 03060000 		.4byte	.LLST37
ARM GAS  C:\Users\vboxuser\AppData\Local\Temp\ccKqkYuE.s 			page 86


 2782 07b7 0E       		.uleb128 0xe
 2783 07b8 1E000000 		.4byte	.LVL146
 2784 07bc FA030000 		.4byte	0x3fa
 2785 07c0 0F       		.uleb128 0xf
 2786 07c1 24000000 		.4byte	.LVL147
 2787 07c5 5A020000 		.4byte	0x25a
 2788 07c9 D4070000 		.4byte	0x7d4
 2789 07cd 0D       		.uleb128 0xd
 2790 07ce 01       		.uleb128 0x1
 2791 07cf 50       		.byte	0x50
 2792 07d0 02       		.uleb128 0x2
 2793 07d1 74       		.byte	0x74
 2794 07d2 00       		.sleb128 0
 2795 07d3 00       		.byte	0
 2796 07d4 0E       		.uleb128 0xe
 2797 07d5 42000000 		.4byte	.LVL148
 2798 07d9 D1030000 		.4byte	0x3d1
 2799 07dd 0E       		.uleb128 0xe
 2800 07de 46000000 		.4byte	.LVL149
 2801 07e2 51050000 		.4byte	0x551
 2802 07e6 0C       		.uleb128 0xc
 2803 07e7 4E000000 		.4byte	.LVL152
 2804 07eb 9E090000 		.4byte	0x99e
 2805 07ef 0D       		.uleb128 0xd
 2806 07f0 01       		.uleb128 0x1
 2807 07f1 50       		.byte	0x50
 2808 07f2 01       		.uleb128 0x1
 2809 07f3 30       		.byte	0x30
 2810 07f4 00       		.byte	0
 2811 07f5 00       		.byte	0
 2812 07f6 15       		.uleb128 0x15
 2813 07f7 39030000 		.4byte	.LASF79
 2814 07fb 01       		.byte	0x1
 2815 07fc EA06     		.2byte	0x6ea
 2816 07fe 96000000 		.4byte	0x96
 2817 0802 00000000 		.4byte	.LFB23
 2818 0806 28000000 		.4byte	.LFE23-.LFB23
 2819 080a 01       		.uleb128 0x1
 2820 080b 9C       		.byte	0x9c
 2821 080c 4F080000 		.4byte	0x84f
 2822 0810 0B       		.uleb128 0xb
 2823 0811 EF060000 		.4byte	.LASF61
 2824 0815 01       		.byte	0x1
 2825 0816 EC06     		.2byte	0x6ec
 2826 0818 96000000 		.4byte	0x96
 2827 081c 3D060000 		.4byte	.LLST38
 2828 0820 0E       		.uleb128 0xe
 2829 0821 10000000 		.4byte	.LVL153
 2830 0825 51050000 		.4byte	0x551
 2831 0829 0F       		.uleb128 0xf
 2832 082a 16000000 		.4byte	.LVL154
 2833 082e 75050000 		.4byte	0x575
 2834 0832 3C080000 		.4byte	0x83c
 2835 0836 0D       		.uleb128 0xd
 2836 0837 01       		.uleb128 0x1
 2837 0838 50       		.byte	0x50
 2838 0839 01       		.uleb128 0x1
ARM GAS  C:\Users\vboxuser\AppData\Local\Temp\ccKqkYuE.s 			page 87


 2839 083a 30       		.byte	0x30
 2840 083b 00       		.byte	0
 2841 083c 0E       		.uleb128 0xe
 2842 083d 1A000000 		.4byte	.LVL155
 2843 0841 B0050000 		.4byte	0x5b0
 2844 0845 0E       		.uleb128 0xe
 2845 0846 20000000 		.4byte	.LVL157
 2846 084a 63050000 		.4byte	0x563
 2847 084e 00       		.byte	0
 2848 084f 15       		.uleb128 0x15
 2849 0850 A9040000 		.4byte	.LASF80
 2850 0854 01       		.byte	0x1
 2851 0855 0B07     		.2byte	0x70b
 2852 0857 A2000000 		.4byte	0xa2
 2853 085b 00000000 		.4byte	.LFB24
 2854 085f 28000000 		.4byte	.LFE24-.LFB24
 2855 0863 01       		.uleb128 0x1
 2856 0864 9C       		.byte	0x9c
 2857 0865 A8080000 		.4byte	0x8a8
 2858 0869 0B       		.uleb128 0xb
 2859 086a EF060000 		.4byte	.LASF61
 2860 086e 01       		.byte	0x1
 2861 086f 0D07     		.2byte	0x70d
 2862 0871 A2000000 		.4byte	0xa2
 2863 0875 50060000 		.4byte	.LLST39
 2864 0879 0E       		.uleb128 0xe
 2865 087a 10000000 		.4byte	.LVL159
 2866 087e 51050000 		.4byte	0x551
 2867 0882 0F       		.uleb128 0xf
 2868 0883 16000000 		.4byte	.LVL160
 2869 0887 75050000 		.4byte	0x575
 2870 088b 95080000 		.4byte	0x895
 2871 088f 0D       		.uleb128 0xd
 2872 0890 01       		.uleb128 0x1
 2873 0891 50       		.byte	0x50
 2874 0892 01       		.uleb128 0x1
 2875 0893 30       		.byte	0x30
 2876 0894 00       		.byte	0
 2877 0895 0E       		.uleb128 0xe
 2878 0896 1A000000 		.4byte	.LVL161
 2879 089a E9050000 		.4byte	0x5e9
 2880 089e 0E       		.uleb128 0xe
 2881 089f 20000000 		.4byte	.LVL163
 2882 08a3 63050000 		.4byte	0x563
 2883 08a7 00       		.byte	0
 2884 08a8 15       		.uleb128 0x15
 2885 08a9 80060000 		.4byte	.LASF81
 2886 08ad 01       		.byte	0x1
 2887 08ae 2C07     		.2byte	0x72c
 2888 08b0 AE000000 		.4byte	0xae
 2889 08b4 00000000 		.4byte	.LFB25
 2890 08b8 28000000 		.4byte	.LFE25-.LFB25
 2891 08bc 01       		.uleb128 0x1
 2892 08bd 9C       		.byte	0x9c
 2893 08be 01090000 		.4byte	0x901
 2894 08c2 0B       		.uleb128 0xb
 2895 08c3 EF060000 		.4byte	.LASF61
ARM GAS  C:\Users\vboxuser\AppData\Local\Temp\ccKqkYuE.s 			page 88


 2896 08c7 01       		.byte	0x1
 2897 08c8 2E07     		.2byte	0x72e
 2898 08ca AE000000 		.4byte	0xae
 2899 08ce 63060000 		.4byte	.LLST40
 2900 08d2 0E       		.uleb128 0xe
 2901 08d3 10000000 		.4byte	.LVL165
 2902 08d7 51050000 		.4byte	0x551
 2903 08db 0F       		.uleb128 0xf
 2904 08dc 16000000 		.4byte	.LVL166
 2905 08e0 75050000 		.4byte	0x575
 2906 08e4 EE080000 		.4byte	0x8ee
 2907 08e8 0D       		.uleb128 0xd
 2908 08e9 01       		.uleb128 0x1
 2909 08ea 50       		.byte	0x50
 2910 08eb 01       		.uleb128 0x1
 2911 08ec 30       		.byte	0x30
 2912 08ed 00       		.byte	0
 2913 08ee 0E       		.uleb128 0xe
 2914 08ef 1A000000 		.4byte	.LVL167
 2915 08f3 24060000 		.4byte	0x624
 2916 08f7 0E       		.uleb128 0xe
 2917 08f8 20000000 		.4byte	.LVL169
 2918 08fc 63050000 		.4byte	0x563
 2919 0900 00       		.byte	0
 2920 0901 1B       		.uleb128 0x1b
 2921 0902 36010000 		.4byte	0x136
 2922 0906 11090000 		.4byte	0x911
 2923 090a 1C       		.uleb128 0x1c
 2924 090b 0E010000 		.4byte	0x10e
 2925 090f 00       		.byte	0
 2926 0910 00       		.byte	0
 2927 0911 1D       		.uleb128 0x1d
 2928 0912 F5000000 		.4byte	.LASF82
 2929 0916 01       		.byte	0x1
 2930 0917 3D       		.byte	0x3d
 2931 0918 01090000 		.4byte	0x901
 2932 091c 05       		.uleb128 0x5
 2933 091d 03       		.byte	0x3
 2934 091e 00000000 		.4byte	ADC_DelSig_2_gcor
 2935 0922 1E       		.uleb128 0x1e
 2936 0923 14060000 		.4byte	.LASF83
 2937 0927 01       		.byte	0x1
 2938 0928 2C       		.byte	0x2c
 2939 0929 72000000 		.4byte	0x72
 2940 092d 05       		.uleb128 0x5
 2941 092e 03       		.byte	0x3
 2942 092f 00000000 		.4byte	ADC_DelSig_2_initVar
 2943 0933 1E       		.uleb128 0x1e
 2944 0934 8D030000 		.4byte	.LASF84
 2945 0938 01       		.byte	0x1
 2946 0939 24       		.byte	0x24
 2947 093a E0000000 		.4byte	0xe0
 2948 093e 05       		.uleb128 0x5
 2949 093f 03       		.byte	0x3
 2950 0940 00000000 		.4byte	ADC_DelSig_2_convDone
 2951 0944 1E       		.uleb128 0x1e
 2952 0945 91000000 		.4byte	.LASF85
ARM GAS  C:\Users\vboxuser\AppData\Local\Temp\ccKqkYuE.s 			page 89


 2953 0949 01       		.byte	0x1
 2954 094a 29       		.byte	0x29
 2955 094b E0000000 		.4byte	0xe0
 2956 094f 05       		.uleb128 0x5
 2957 0950 03       		.byte	0x3
 2958 0951 00000000 		.4byte	ADC_DelSig_2_stopConversion
 2959 0955 1E       		.uleb128 0x1e
 2960 0956 AF030000 		.4byte	.LASF86
 2961 095a 01       		.byte	0x1
 2962 095b 2F       		.byte	0x2f
 2963 095c E0000000 		.4byte	0xe0
 2964 0960 05       		.uleb128 0x5
 2965 0961 03       		.byte	0x3
 2966 0962 00000000 		.4byte	ADC_DelSig_2_started
 2967 0966 1E       		.uleb128 0x1e
 2968 0967 07020000 		.4byte	.LASF87
 2969 096b 01       		.byte	0x1
 2970 096c 32       		.byte	0x32
 2971 096d E0000000 		.4byte	0xe0
 2972 0971 05       		.uleb128 0x5
 2973 0972 03       		.byte	0x3
 2974 0973 00000000 		.4byte	ADC_DelSig_2_Config
 2975 0977 1E       		.uleb128 0x1e
 2976 0978 31020000 		.4byte	.LASF88
 2977 097c 01       		.byte	0x1
 2978 097d 34       		.byte	0x34
 2979 097e 88090000 		.4byte	0x988
 2980 0982 05       		.uleb128 0x5
 2981 0983 03       		.byte	0x3
 2982 0984 00000000 		.4byte	ADC_DelSig_2_Offset
 2983 0988 05       		.uleb128 0x5
 2984 0989 AE000000 		.4byte	0xae
 2985 098d 1E       		.uleb128 0x1e
 2986 098e A5060000 		.4byte	.LASF89
 2987 0992 01       		.byte	0x1
 2988 0993 35       		.byte	0x35
 2989 0994 88090000 		.4byte	0x988
 2990 0998 05       		.uleb128 0x5
 2991 0999 03       		.byte	0x3
 2992 099a 00000000 		.4byte	ADC_DelSig_2_CountsPerVolt
 2993 099e 1F       		.uleb128 0x1f
 2994 099f D5040000 		.4byte	.LASF90
 2995 09a3 D5040000 		.4byte	.LASF90
 2996 09a7 04       		.byte	0x4
 2997 09a8 7F       		.byte	0x7f
 2998 09a9 1F       		.uleb128 0x1f
 2999 09aa 79020000 		.4byte	.LASF91
 3000 09ae 79020000 		.4byte	.LASF91
 3001 09b2 04       		.byte	0x4
 3002 09b3 7D       		.byte	0x7d
 3003 09b4 1F       		.uleb128 0x1f
 3004 09b5 C2010000 		.4byte	.LASF92
 3005 09b9 C2010000 		.4byte	.LASF92
 3006 09bd 04       		.byte	0x4
 3007 09be 77       		.byte	0x77
 3008 09bf 1F       		.uleb128 0x1f
 3009 09c0 5B000000 		.4byte	.LASF93
ARM GAS  C:\Users\vboxuser\AppData\Local\Temp\ccKqkYuE.s 			page 90


 3010 09c4 5B000000 		.4byte	.LASF93
 3011 09c8 04       		.byte	0x4
 3012 09c9 7E       		.byte	0x7e
 3013 09ca 1F       		.uleb128 0x1f
 3014 09cb 69010000 		.4byte	.LASF94
 3015 09cf 69010000 		.4byte	.LASF94
 3016 09d3 05       		.byte	0x5
 3017 09d4 57       		.byte	0x57
 3018 09d5 1F       		.uleb128 0x1f
 3019 09d6 82010000 		.4byte	.LASF95
 3020 09da 82010000 		.4byte	.LASF95
 3021 09de 06       		.byte	0x6
 3022 09df 2F       		.byte	0x2f
 3023 09e0 1F       		.uleb128 0x1f
 3024 09e1 C0060000 		.4byte	.LASF96
 3025 09e5 C0060000 		.4byte	.LASF96
 3026 09e9 07       		.byte	0x7
 3027 09ea 2F       		.byte	0x2f
 3028 09eb 1F       		.uleb128 0x1f
 3029 09ec 22020000 		.4byte	.LASF97
 3030 09f0 22020000 		.4byte	.LASF97
 3031 09f4 04       		.byte	0x4
 3032 09f5 88       		.byte	0x88
 3033 09f6 1F       		.uleb128 0x1f
 3034 09f7 5F040000 		.4byte	.LASF98
 3035 09fb 5F040000 		.4byte	.LASF98
 3036 09ff 06       		.byte	0x6
 3037 0a00 32       		.byte	0x32
 3038 0a01 1F       		.uleb128 0x1f
 3039 0a02 C5020000 		.4byte	.LASF99
 3040 0a06 C5020000 		.4byte	.LASF99
 3041 0a0a 07       		.byte	0x7
 3042 0a0b 32       		.byte	0x32
 3043 0a0c 1F       		.uleb128 0x1f
 3044 0a0d 0E040000 		.4byte	.LASF100
 3045 0a11 0E040000 		.4byte	.LASF100
 3046 0a15 04       		.byte	0x4
 3047 0a16 8B       		.byte	0x8b
 3048 0a17 00       		.byte	0
 3049              		.section	.debug_abbrev,"",%progbits
 3050              	.Ldebug_abbrev0:
 3051 0000 01       		.uleb128 0x1
 3052 0001 11       		.uleb128 0x11
 3053 0002 01       		.byte	0x1
 3054 0003 25       		.uleb128 0x25
 3055 0004 0E       		.uleb128 0xe
 3056 0005 13       		.uleb128 0x13
 3057 0006 0B       		.uleb128 0xb
 3058 0007 03       		.uleb128 0x3
 3059 0008 0E       		.uleb128 0xe
 3060 0009 1B       		.uleb128 0x1b
 3061 000a 0E       		.uleb128 0xe
 3062 000b 55       		.uleb128 0x55
 3063 000c 17       		.uleb128 0x17
 3064 000d 11       		.uleb128 0x11
 3065 000e 01       		.uleb128 0x1
 3066 000f 10       		.uleb128 0x10
ARM GAS  C:\Users\vboxuser\AppData\Local\Temp\ccKqkYuE.s 			page 91


 3067 0010 17       		.uleb128 0x17
 3068 0011 00       		.byte	0
 3069 0012 00       		.byte	0
 3070 0013 02       		.uleb128 0x2
 3071 0014 24       		.uleb128 0x24
 3072 0015 00       		.byte	0
 3073 0016 0B       		.uleb128 0xb
 3074 0017 0B       		.uleb128 0xb
 3075 0018 3E       		.uleb128 0x3e
 3076 0019 0B       		.uleb128 0xb
 3077 001a 03       		.uleb128 0x3
 3078 001b 0E       		.uleb128 0xe
 3079 001c 00       		.byte	0
 3080 001d 00       		.byte	0
 3081 001e 03       		.uleb128 0x3
 3082 001f 24       		.uleb128 0x24
 3083 0020 00       		.byte	0
 3084 0021 0B       		.uleb128 0xb
 3085 0022 0B       		.uleb128 0xb
 3086 0023 3E       		.uleb128 0x3e
 3087 0024 0B       		.uleb128 0xb
 3088 0025 03       		.uleb128 0x3
 3089 0026 08       		.uleb128 0x8
 3090 0027 00       		.byte	0
 3091 0028 00       		.byte	0
 3092 0029 04       		.uleb128 0x4
 3093 002a 16       		.uleb128 0x16
 3094 002b 00       		.byte	0
 3095 002c 03       		.uleb128 0x3
 3096 002d 0E       		.uleb128 0xe
 3097 002e 3A       		.uleb128 0x3a
 3098 002f 0B       		.uleb128 0xb
 3099 0030 3B       		.uleb128 0x3b
 3100 0031 05       		.uleb128 0x5
 3101 0032 49       		.uleb128 0x49
 3102 0033 13       		.uleb128 0x13
 3103 0034 00       		.byte	0
 3104 0035 00       		.byte	0
 3105 0036 05       		.uleb128 0x5
 3106 0037 35       		.uleb128 0x35
 3107 0038 00       		.byte	0
 3108 0039 49       		.uleb128 0x49
 3109 003a 13       		.uleb128 0x13
 3110 003b 00       		.byte	0
 3111 003c 00       		.byte	0
 3112 003d 06       		.uleb128 0x6
 3113 003e 13       		.uleb128 0x13
 3114 003f 01       		.byte	0x1
 3115 0040 0B       		.uleb128 0xb
 3116 0041 0B       		.uleb128 0xb
 3117 0042 3A       		.uleb128 0x3a
 3118 0043 0B       		.uleb128 0xb
 3119 0044 3B       		.uleb128 0x3b
 3120 0045 0B       		.uleb128 0xb
 3121 0046 01       		.uleb128 0x1
 3122 0047 13       		.uleb128 0x13
 3123 0048 00       		.byte	0
ARM GAS  C:\Users\vboxuser\AppData\Local\Temp\ccKqkYuE.s 			page 92


 3124 0049 00       		.byte	0
 3125 004a 07       		.uleb128 0x7
 3126 004b 0D       		.uleb128 0xd
 3127 004c 00       		.byte	0
 3128 004d 03       		.uleb128 0x3
 3129 004e 0E       		.uleb128 0xe
 3130 004f 3A       		.uleb128 0x3a
 3131 0050 0B       		.uleb128 0xb
 3132 0051 3B       		.uleb128 0x3b
 3133 0052 0B       		.uleb128 0xb
 3134 0053 49       		.uleb128 0x49
 3135 0054 13       		.uleb128 0x13
 3136 0055 38       		.uleb128 0x38
 3137 0056 0B       		.uleb128 0xb
 3138 0057 00       		.byte	0
 3139 0058 00       		.byte	0
 3140 0059 08       		.uleb128 0x8
 3141 005a 16       		.uleb128 0x16
 3142 005b 00       		.byte	0
 3143 005c 03       		.uleb128 0x3
 3144 005d 0E       		.uleb128 0xe
 3145 005e 3A       		.uleb128 0x3a
 3146 005f 0B       		.uleb128 0xb
 3147 0060 3B       		.uleb128 0x3b
 3148 0061 0B       		.uleb128 0xb
 3149 0062 49       		.uleb128 0x49
 3150 0063 13       		.uleb128 0x13
 3151 0064 00       		.byte	0
 3152 0065 00       		.byte	0
 3153 0066 09       		.uleb128 0x9
 3154 0067 2E       		.uleb128 0x2e
 3155 0068 01       		.byte	0x1
 3156 0069 03       		.uleb128 0x3
 3157 006a 0E       		.uleb128 0xe
 3158 006b 3A       		.uleb128 0x3a
 3159 006c 0B       		.uleb128 0xb
 3160 006d 3B       		.uleb128 0x3b
 3161 006e 05       		.uleb128 0x5
 3162 006f 27       		.uleb128 0x27
 3163 0070 19       		.uleb128 0x19
 3164 0071 11       		.uleb128 0x11
 3165 0072 01       		.uleb128 0x1
 3166 0073 12       		.uleb128 0x12
 3167 0074 06       		.uleb128 0x6
 3168 0075 40       		.uleb128 0x40
 3169 0076 18       		.uleb128 0x18
 3170 0077 9742     		.uleb128 0x2117
 3171 0079 19       		.uleb128 0x19
 3172 007a 01       		.uleb128 0x1
 3173 007b 13       		.uleb128 0x13
 3174 007c 00       		.byte	0
 3175 007d 00       		.byte	0
 3176 007e 0A       		.uleb128 0xa
 3177 007f 05       		.uleb128 0x5
 3178 0080 00       		.byte	0
 3179 0081 03       		.uleb128 0x3
 3180 0082 0E       		.uleb128 0xe
ARM GAS  C:\Users\vboxuser\AppData\Local\Temp\ccKqkYuE.s 			page 93


 3181 0083 3A       		.uleb128 0x3a
 3182 0084 0B       		.uleb128 0xb
 3183 0085 3B       		.uleb128 0x3b
 3184 0086 05       		.uleb128 0x5
 3185 0087 49       		.uleb128 0x49
 3186 0088 13       		.uleb128 0x13
 3187 0089 02       		.uleb128 0x2
 3188 008a 17       		.uleb128 0x17
 3189 008b 00       		.byte	0
 3190 008c 00       		.byte	0
 3191 008d 0B       		.uleb128 0xb
 3192 008e 34       		.uleb128 0x34
 3193 008f 00       		.byte	0
 3194 0090 03       		.uleb128 0x3
 3195 0091 0E       		.uleb128 0xe
 3196 0092 3A       		.uleb128 0x3a
 3197 0093 0B       		.uleb128 0xb
 3198 0094 3B       		.uleb128 0x3b
 3199 0095 05       		.uleb128 0x5
 3200 0096 49       		.uleb128 0x49
 3201 0097 13       		.uleb128 0x13
 3202 0098 02       		.uleb128 0x2
 3203 0099 17       		.uleb128 0x17
 3204 009a 00       		.byte	0
 3205 009b 00       		.byte	0
 3206 009c 0C       		.uleb128 0xc
 3207 009d 898201   		.uleb128 0x4109
 3208 00a0 01       		.byte	0x1
 3209 00a1 11       		.uleb128 0x11
 3210 00a2 01       		.uleb128 0x1
 3211 00a3 31       		.uleb128 0x31
 3212 00a4 13       		.uleb128 0x13
 3213 00a5 00       		.byte	0
 3214 00a6 00       		.byte	0
 3215 00a7 0D       		.uleb128 0xd
 3216 00a8 8A8201   		.uleb128 0x410a
 3217 00ab 00       		.byte	0
 3218 00ac 02       		.uleb128 0x2
 3219 00ad 18       		.uleb128 0x18
 3220 00ae 9142     		.uleb128 0x2111
 3221 00b0 18       		.uleb128 0x18
 3222 00b1 00       		.byte	0
 3223 00b2 00       		.byte	0
 3224 00b3 0E       		.uleb128 0xe
 3225 00b4 898201   		.uleb128 0x4109
 3226 00b7 00       		.byte	0
 3227 00b8 11       		.uleb128 0x11
 3228 00b9 01       		.uleb128 0x1
 3229 00ba 31       		.uleb128 0x31
 3230 00bb 13       		.uleb128 0x13
 3231 00bc 00       		.byte	0
 3232 00bd 00       		.byte	0
 3233 00be 0F       		.uleb128 0xf
 3234 00bf 898201   		.uleb128 0x4109
 3235 00c2 01       		.byte	0x1
 3236 00c3 11       		.uleb128 0x11
 3237 00c4 01       		.uleb128 0x1
ARM GAS  C:\Users\vboxuser\AppData\Local\Temp\ccKqkYuE.s 			page 94


 3238 00c5 31       		.uleb128 0x31
 3239 00c6 13       		.uleb128 0x13
 3240 00c7 01       		.uleb128 0x1
 3241 00c8 13       		.uleb128 0x13
 3242 00c9 00       		.byte	0
 3243 00ca 00       		.byte	0
 3244 00cb 10       		.uleb128 0x10
 3245 00cc 2E       		.uleb128 0x2e
 3246 00cd 01       		.byte	0x1
 3247 00ce 3F       		.uleb128 0x3f
 3248 00cf 19       		.uleb128 0x19
 3249 00d0 03       		.uleb128 0x3
 3250 00d1 0E       		.uleb128 0xe
 3251 00d2 3A       		.uleb128 0x3a
 3252 00d3 0B       		.uleb128 0xb
 3253 00d4 3B       		.uleb128 0x3b
 3254 00d5 0B       		.uleb128 0xb
 3255 00d6 27       		.uleb128 0x27
 3256 00d7 19       		.uleb128 0x19
 3257 00d8 11       		.uleb128 0x11
 3258 00d9 01       		.uleb128 0x1
 3259 00da 12       		.uleb128 0x12
 3260 00db 06       		.uleb128 0x6
 3261 00dc 40       		.uleb128 0x40
 3262 00dd 18       		.uleb128 0x18
 3263 00de 9742     		.uleb128 0x2117
 3264 00e0 19       		.uleb128 0x19
 3265 00e1 01       		.uleb128 0x1
 3266 00e2 13       		.uleb128 0x13
 3267 00e3 00       		.byte	0
 3268 00e4 00       		.byte	0
 3269 00e5 11       		.uleb128 0x11
 3270 00e6 34       		.uleb128 0x34
 3271 00e7 00       		.byte	0
 3272 00e8 03       		.uleb128 0x3
 3273 00e9 0E       		.uleb128 0xe
 3274 00ea 3A       		.uleb128 0x3a
 3275 00eb 0B       		.uleb128 0xb
 3276 00ec 3B       		.uleb128 0x3b
 3277 00ed 0B       		.uleb128 0xb
 3278 00ee 49       		.uleb128 0x49
 3279 00ef 13       		.uleb128 0x13
 3280 00f0 00       		.byte	0
 3281 00f1 00       		.byte	0
 3282 00f2 12       		.uleb128 0x12
 3283 00f3 34       		.uleb128 0x34
 3284 00f4 00       		.byte	0
 3285 00f5 03       		.uleb128 0x3
 3286 00f6 0E       		.uleb128 0xe
 3287 00f7 3A       		.uleb128 0x3a
 3288 00f8 0B       		.uleb128 0xb
 3289 00f9 3B       		.uleb128 0x3b
 3290 00fa 0B       		.uleb128 0xb
 3291 00fb 49       		.uleb128 0x49
 3292 00fc 13       		.uleb128 0x13
 3293 00fd 02       		.uleb128 0x2
 3294 00fe 17       		.uleb128 0x17
ARM GAS  C:\Users\vboxuser\AppData\Local\Temp\ccKqkYuE.s 			page 95


 3295 00ff 00       		.byte	0
 3296 0100 00       		.byte	0
 3297 0101 13       		.uleb128 0x13
 3298 0102 2E       		.uleb128 0x2e
 3299 0103 01       		.byte	0x1
 3300 0104 3F       		.uleb128 0x3f
 3301 0105 19       		.uleb128 0x19
 3302 0106 03       		.uleb128 0x3
 3303 0107 0E       		.uleb128 0xe
 3304 0108 3A       		.uleb128 0x3a
 3305 0109 0B       		.uleb128 0xb
 3306 010a 3B       		.uleb128 0x3b
 3307 010b 05       		.uleb128 0x5
 3308 010c 27       		.uleb128 0x27
 3309 010d 19       		.uleb128 0x19
 3310 010e 11       		.uleb128 0x11
 3311 010f 01       		.uleb128 0x1
 3312 0110 12       		.uleb128 0x12
 3313 0111 06       		.uleb128 0x6
 3314 0112 40       		.uleb128 0x40
 3315 0113 18       		.uleb128 0x18
 3316 0114 9742     		.uleb128 0x2117
 3317 0116 19       		.uleb128 0x19
 3318 0117 01       		.uleb128 0x1
 3319 0118 13       		.uleb128 0x13
 3320 0119 00       		.byte	0
 3321 011a 00       		.byte	0
 3322 011b 14       		.uleb128 0x14
 3323 011c 2E       		.uleb128 0x2e
 3324 011d 01       		.byte	0x1
 3325 011e 3F       		.uleb128 0x3f
 3326 011f 19       		.uleb128 0x19
 3327 0120 03       		.uleb128 0x3
 3328 0121 0E       		.uleb128 0xe
 3329 0122 3A       		.uleb128 0x3a
 3330 0123 0B       		.uleb128 0xb
 3331 0124 3B       		.uleb128 0x3b
 3332 0125 05       		.uleb128 0x5
 3333 0126 27       		.uleb128 0x27
 3334 0127 19       		.uleb128 0x19
 3335 0128 49       		.uleb128 0x49
 3336 0129 13       		.uleb128 0x13
 3337 012a 11       		.uleb128 0x11
 3338 012b 01       		.uleb128 0x1
 3339 012c 12       		.uleb128 0x12
 3340 012d 06       		.uleb128 0x6
 3341 012e 40       		.uleb128 0x40
 3342 012f 18       		.uleb128 0x18
 3343 0130 9642     		.uleb128 0x2116
 3344 0132 19       		.uleb128 0x19
 3345 0133 01       		.uleb128 0x1
 3346 0134 13       		.uleb128 0x13
 3347 0135 00       		.byte	0
 3348 0136 00       		.byte	0
 3349 0137 15       		.uleb128 0x15
 3350 0138 2E       		.uleb128 0x2e
 3351 0139 01       		.byte	0x1
ARM GAS  C:\Users\vboxuser\AppData\Local\Temp\ccKqkYuE.s 			page 96


 3352 013a 3F       		.uleb128 0x3f
 3353 013b 19       		.uleb128 0x19
 3354 013c 03       		.uleb128 0x3
 3355 013d 0E       		.uleb128 0xe
 3356 013e 3A       		.uleb128 0x3a
 3357 013f 0B       		.uleb128 0xb
 3358 0140 3B       		.uleb128 0x3b
 3359 0141 05       		.uleb128 0x5
 3360 0142 27       		.uleb128 0x27
 3361 0143 19       		.uleb128 0x19
 3362 0144 49       		.uleb128 0x49
 3363 0145 13       		.uleb128 0x13
 3364 0146 11       		.uleb128 0x11
 3365 0147 01       		.uleb128 0x1
 3366 0148 12       		.uleb128 0x12
 3367 0149 06       		.uleb128 0x6
 3368 014a 40       		.uleb128 0x40
 3369 014b 18       		.uleb128 0x18
 3370 014c 9742     		.uleb128 0x2117
 3371 014e 19       		.uleb128 0x19
 3372 014f 01       		.uleb128 0x1
 3373 0150 13       		.uleb128 0x13
 3374 0151 00       		.byte	0
 3375 0152 00       		.byte	0
 3376 0153 16       		.uleb128 0x16
 3377 0154 2E       		.uleb128 0x2e
 3378 0155 00       		.byte	0
 3379 0156 3F       		.uleb128 0x3f
 3380 0157 19       		.uleb128 0x19
 3381 0158 03       		.uleb128 0x3
 3382 0159 0E       		.uleb128 0xe
 3383 015a 3A       		.uleb128 0x3a
 3384 015b 0B       		.uleb128 0xb
 3385 015c 3B       		.uleb128 0x3b
 3386 015d 05       		.uleb128 0x5
 3387 015e 27       		.uleb128 0x27
 3388 015f 19       		.uleb128 0x19
 3389 0160 11       		.uleb128 0x11
 3390 0161 01       		.uleb128 0x1
 3391 0162 12       		.uleb128 0x12
 3392 0163 06       		.uleb128 0x6
 3393 0164 40       		.uleb128 0x40
 3394 0165 18       		.uleb128 0x18
 3395 0166 9742     		.uleb128 0x2117
 3396 0168 19       		.uleb128 0x19
 3397 0169 00       		.byte	0
 3398 016a 00       		.byte	0
 3399 016b 17       		.uleb128 0x17
 3400 016c 34       		.uleb128 0x34
 3401 016d 00       		.byte	0
 3402 016e 03       		.uleb128 0x3
 3403 016f 0E       		.uleb128 0xe
 3404 0170 3A       		.uleb128 0x3a
 3405 0171 0B       		.uleb128 0xb
 3406 0172 3B       		.uleb128 0x3b
 3407 0173 05       		.uleb128 0x5
 3408 0174 49       		.uleb128 0x49
ARM GAS  C:\Users\vboxuser\AppData\Local\Temp\ccKqkYuE.s 			page 97


 3409 0175 13       		.uleb128 0x13
 3410 0176 02       		.uleb128 0x2
 3411 0177 18       		.uleb128 0x18
 3412 0178 00       		.byte	0
 3413 0179 00       		.byte	0
 3414 017a 18       		.uleb128 0x18
 3415 017b 05       		.uleb128 0x5
 3416 017c 00       		.byte	0
 3417 017d 03       		.uleb128 0x3
 3418 017e 0E       		.uleb128 0xe
 3419 017f 3A       		.uleb128 0x3a
 3420 0180 0B       		.uleb128 0xb
 3421 0181 3B       		.uleb128 0x3b
 3422 0182 05       		.uleb128 0x5
 3423 0183 49       		.uleb128 0x49
 3424 0184 13       		.uleb128 0x13
 3425 0185 02       		.uleb128 0x2
 3426 0186 18       		.uleb128 0x18
 3427 0187 00       		.byte	0
 3428 0188 00       		.byte	0
 3429 0189 19       		.uleb128 0x19
 3430 018a 34       		.uleb128 0x34
 3431 018b 00       		.byte	0
 3432 018c 03       		.uleb128 0x3
 3433 018d 0E       		.uleb128 0xe
 3434 018e 3A       		.uleb128 0x3a
 3435 018f 0B       		.uleb128 0xb
 3436 0190 3B       		.uleb128 0x3b
 3437 0191 05       		.uleb128 0x5
 3438 0192 49       		.uleb128 0x49
 3439 0193 13       		.uleb128 0x13
 3440 0194 1C       		.uleb128 0x1c
 3441 0195 05       		.uleb128 0x5
 3442 0196 00       		.byte	0
 3443 0197 00       		.byte	0
 3444 0198 1A       		.uleb128 0x1a
 3445 0199 34       		.uleb128 0x34
 3446 019a 00       		.byte	0
 3447 019b 03       		.uleb128 0x3
 3448 019c 0E       		.uleb128 0xe
 3449 019d 3A       		.uleb128 0x3a
 3450 019e 0B       		.uleb128 0xb
 3451 019f 3B       		.uleb128 0x3b
 3452 01a0 05       		.uleb128 0x5
 3453 01a1 49       		.uleb128 0x49
 3454 01a2 13       		.uleb128 0x13
 3455 01a3 1C       		.uleb128 0x1c
 3456 01a4 0B       		.uleb128 0xb
 3457 01a5 00       		.byte	0
 3458 01a6 00       		.byte	0
 3459 01a7 1B       		.uleb128 0x1b
 3460 01a8 01       		.uleb128 0x1
 3461 01a9 01       		.byte	0x1
 3462 01aa 49       		.uleb128 0x49
 3463 01ab 13       		.uleb128 0x13
 3464 01ac 01       		.uleb128 0x1
 3465 01ad 13       		.uleb128 0x13
ARM GAS  C:\Users\vboxuser\AppData\Local\Temp\ccKqkYuE.s 			page 98


 3466 01ae 00       		.byte	0
 3467 01af 00       		.byte	0
 3468 01b0 1C       		.uleb128 0x1c
 3469 01b1 21       		.uleb128 0x21
 3470 01b2 00       		.byte	0
 3471 01b3 49       		.uleb128 0x49
 3472 01b4 13       		.uleb128 0x13
 3473 01b5 2F       		.uleb128 0x2f
 3474 01b6 0B       		.uleb128 0xb
 3475 01b7 00       		.byte	0
 3476 01b8 00       		.byte	0
 3477 01b9 1D       		.uleb128 0x1d
 3478 01ba 34       		.uleb128 0x34
 3479 01bb 00       		.byte	0
 3480 01bc 03       		.uleb128 0x3
 3481 01bd 0E       		.uleb128 0xe
 3482 01be 3A       		.uleb128 0x3a
 3483 01bf 0B       		.uleb128 0xb
 3484 01c0 3B       		.uleb128 0x3b
 3485 01c1 0B       		.uleb128 0xb
 3486 01c2 49       		.uleb128 0x49
 3487 01c3 13       		.uleb128 0x13
 3488 01c4 02       		.uleb128 0x2
 3489 01c5 18       		.uleb128 0x18
 3490 01c6 00       		.byte	0
 3491 01c7 00       		.byte	0
 3492 01c8 1E       		.uleb128 0x1e
 3493 01c9 34       		.uleb128 0x34
 3494 01ca 00       		.byte	0
 3495 01cb 03       		.uleb128 0x3
 3496 01cc 0E       		.uleb128 0xe
 3497 01cd 3A       		.uleb128 0x3a
 3498 01ce 0B       		.uleb128 0xb
 3499 01cf 3B       		.uleb128 0x3b
 3500 01d0 0B       		.uleb128 0xb
 3501 01d1 49       		.uleb128 0x49
 3502 01d2 13       		.uleb128 0x13
 3503 01d3 3F       		.uleb128 0x3f
 3504 01d4 19       		.uleb128 0x19
 3505 01d5 02       		.uleb128 0x2
 3506 01d6 18       		.uleb128 0x18
 3507 01d7 00       		.byte	0
 3508 01d8 00       		.byte	0
 3509 01d9 1F       		.uleb128 0x1f
 3510 01da 2E       		.uleb128 0x2e
 3511 01db 00       		.byte	0
 3512 01dc 3F       		.uleb128 0x3f
 3513 01dd 19       		.uleb128 0x19
 3514 01de 3C       		.uleb128 0x3c
 3515 01df 19       		.uleb128 0x19
 3516 01e0 6E       		.uleb128 0x6e
 3517 01e1 0E       		.uleb128 0xe
 3518 01e2 03       		.uleb128 0x3
 3519 01e3 0E       		.uleb128 0xe
 3520 01e4 3A       		.uleb128 0x3a
 3521 01e5 0B       		.uleb128 0xb
 3522 01e6 3B       		.uleb128 0x3b
ARM GAS  C:\Users\vboxuser\AppData\Local\Temp\ccKqkYuE.s 			page 99


 3523 01e7 0B       		.uleb128 0xb
 3524 01e8 00       		.byte	0
 3525 01e9 00       		.byte	0
 3526 01ea 00       		.byte	0
 3527              		.section	.debug_loc,"",%progbits
 3528              	.Ldebug_loc0:
 3529              	.LLST0:
 3530 0000 00000000 		.4byte	.LVL0
 3531 0004 0C000000 		.4byte	.LVL1
 3532 0008 0100     		.2byte	0x1
 3533 000a 50       		.byte	0x50
 3534 000b 0C000000 		.4byte	.LVL1
 3535 000f AE000000 		.4byte	.LVL31
 3536 0013 0400     		.2byte	0x4
 3537 0015 F3       		.byte	0xf3
 3538 0016 01       		.uleb128 0x1
 3539 0017 50       		.byte	0x50
 3540 0018 9F       		.byte	0x9f
 3541 0019 AE000000 		.4byte	.LVL31
 3542 001d B0000000 		.4byte	.LVL32
 3543 0021 0100     		.2byte	0x1
 3544 0023 50       		.byte	0x50
 3545 0024 B0000000 		.4byte	.LVL32
 3546 0028 DC000000 		.4byte	.LFE21
 3547 002c 0400     		.2byte	0x4
 3548 002e F3       		.byte	0xf3
 3549 002f 01       		.uleb128 0x1
 3550 0030 50       		.byte	0x50
 3551 0031 9F       		.byte	0x9f
 3552 0032 00000000 		.4byte	0
 3553 0036 00000000 		.4byte	0
 3554              	.LLST1:
 3555 003a 00000000 		.4byte	.LVL0
 3556 003e 74000000 		.4byte	.LVL19
 3557 0042 0100     		.2byte	0x1
 3558 0044 51       		.byte	0x51
 3559 0045 74000000 		.4byte	.LVL19
 3560 0049 AE000000 		.4byte	.LVL31
 3561 004d 0400     		.2byte	0x4
 3562 004f F3       		.byte	0xf3
 3563 0050 01       		.uleb128 0x1
 3564 0051 51       		.byte	0x51
 3565 0052 9F       		.byte	0x9f
 3566 0053 AE000000 		.4byte	.LVL31
 3567 0057 B3000000 		.4byte	.LVL33-1
 3568 005b 0100     		.2byte	0x1
 3569 005d 51       		.byte	0x51
 3570 005e B3000000 		.4byte	.LVL33-1
 3571 0062 DC000000 		.4byte	.LFE21
 3572 0066 0400     		.2byte	0x4
 3573 0068 F3       		.byte	0xf3
 3574 0069 01       		.uleb128 0x1
 3575 006a 51       		.byte	0x51
 3576 006b 9F       		.byte	0x9f
 3577 006c 00000000 		.4byte	0
 3578 0070 00000000 		.4byte	0
 3579              	.LLST2:
ARM GAS  C:\Users\vboxuser\AppData\Local\Temp\ccKqkYuE.s 			page 100


 3580 0074 00000000 		.4byte	.LVL0
 3581 0078 7C000000 		.4byte	.LVL22
 3582 007c 0100     		.2byte	0x1
 3583 007e 52       		.byte	0x52
 3584 007f 7C000000 		.4byte	.LVL22
 3585 0083 AE000000 		.4byte	.LVL31
 3586 0087 0400     		.2byte	0x4
 3587 0089 F3       		.byte	0xf3
 3588 008a 01       		.uleb128 0x1
 3589 008b 52       		.byte	0x52
 3590 008c 9F       		.byte	0x9f
 3591 008d AE000000 		.4byte	.LVL31
 3592 0091 B3000000 		.4byte	.LVL33-1
 3593 0095 0100     		.2byte	0x1
 3594 0097 52       		.byte	0x52
 3595 0098 B3000000 		.4byte	.LVL33-1
 3596 009c DC000000 		.4byte	.LFE21
 3597 00a0 0400     		.2byte	0x4
 3598 00a2 F3       		.byte	0xf3
 3599 00a3 01       		.uleb128 0x1
 3600 00a4 52       		.byte	0x52
 3601 00a5 9F       		.byte	0x9f
 3602 00a6 00000000 		.4byte	0
 3603 00aa 00000000 		.4byte	0
 3604              	.LLST3:
 3605 00ae 00000000 		.4byte	.LVL0
 3606 00b2 94000000 		.4byte	.LVL27
 3607 00b6 0100     		.2byte	0x1
 3608 00b8 53       		.byte	0x53
 3609 00b9 94000000 		.4byte	.LVL27
 3610 00bd 98000000 		.4byte	.LVL28
 3611 00c1 0400     		.2byte	0x4
 3612 00c3 F3       		.byte	0xf3
 3613 00c4 01       		.uleb128 0x1
 3614 00c5 53       		.byte	0x53
 3615 00c6 9F       		.byte	0x9f
 3616 00c7 98000000 		.4byte	.LVL28
 3617 00cb 9A000000 		.4byte	.LVL29
 3618 00cf 0100     		.2byte	0x1
 3619 00d1 53       		.byte	0x53
 3620 00d2 9A000000 		.4byte	.LVL29
 3621 00d6 AE000000 		.4byte	.LVL31
 3622 00da 0400     		.2byte	0x4
 3623 00dc F3       		.byte	0xf3
 3624 00dd 01       		.uleb128 0x1
 3625 00de 53       		.byte	0x53
 3626 00df 9F       		.byte	0x9f
 3627 00e0 AE000000 		.4byte	.LVL31
 3628 00e4 B3000000 		.4byte	.LVL33-1
 3629 00e8 0100     		.2byte	0x1
 3630 00ea 53       		.byte	0x53
 3631 00eb B3000000 		.4byte	.LVL33-1
 3632 00ef DC000000 		.4byte	.LFE21
 3633 00f3 0400     		.2byte	0x4
 3634 00f5 F3       		.byte	0xf3
 3635 00f6 01       		.uleb128 0x1
 3636 00f7 53       		.byte	0x53
ARM GAS  C:\Users\vboxuser\AppData\Local\Temp\ccKqkYuE.s 			page 101


 3637 00f8 9F       		.byte	0x9f
 3638 00f9 00000000 		.4byte	0
 3639 00fd 00000000 		.4byte	0
 3640              	.LLST4:
 3641 0101 00000000 		.4byte	.LVL0
 3642 0105 AE000000 		.4byte	.LVL31
 3643 0109 0200     		.2byte	0x2
 3644 010b 91       		.byte	0x91
 3645 010c 00       		.sleb128 0
 3646 010d AE000000 		.4byte	.LVL31
 3647 0111 B6000000 		.4byte	.LVL34
 3648 0115 0200     		.2byte	0x2
 3649 0117 91       		.byte	0x91
 3650 0118 00       		.sleb128 0
 3651 0119 B6000000 		.4byte	.LVL34
 3652 011d DC000000 		.4byte	.LFE21
 3653 0121 0200     		.2byte	0x2
 3654 0123 7D       		.byte	0x7d
 3655 0124 00       		.sleb128 0
 3656 0125 00000000 		.4byte	0
 3657 0129 00000000 		.4byte	0
 3658              	.LLST5:
 3659 012d 28000000 		.4byte	.LVL2
 3660 0131 2A000000 		.4byte	.LVL3
 3661 0135 0100     		.2byte	0x1
 3662 0137 50       		.byte	0x50
 3663 0138 30000000 		.4byte	.LVL4
 3664 013c 32000000 		.4byte	.LVL5
 3665 0140 0100     		.2byte	0x1
 3666 0142 50       		.byte	0x50
 3667 0143 3C000000 		.4byte	.LVL6
 3668 0147 3E000000 		.4byte	.LVL7
 3669 014b 0100     		.2byte	0x1
 3670 014d 50       		.byte	0x50
 3671 014e 44000000 		.4byte	.LVL8
 3672 0152 46000000 		.4byte	.LVL9
 3673 0156 0100     		.2byte	0x1
 3674 0158 50       		.byte	0x50
 3675 0159 50000000 		.4byte	.LVL10
 3676 015d 52000000 		.4byte	.LVL11
 3677 0161 0100     		.2byte	0x1
 3678 0163 50       		.byte	0x50
 3679 0164 58000000 		.4byte	.LVL12
 3680 0168 5A000000 		.4byte	.LVL13
 3681 016c 0100     		.2byte	0x1
 3682 016e 50       		.byte	0x50
 3683 016f 64000000 		.4byte	.LVL14
 3684 0173 66000000 		.4byte	.LVL15
 3685 0177 0100     		.2byte	0x1
 3686 0179 50       		.byte	0x50
 3687 017a 6C000000 		.4byte	.LVL16
 3688 017e 6E000000 		.4byte	.LVL17
 3689 0182 0100     		.2byte	0x1
 3690 0184 50       		.byte	0x50
 3691 0185 70000000 		.4byte	.LVL18
 3692 0189 8E000000 		.4byte	.LVL26
 3693 018d 0100     		.2byte	0x1
ARM GAS  C:\Users\vboxuser\AppData\Local\Temp\ccKqkYuE.s 			page 102


 3694 018f 50       		.byte	0x50
 3695 0190 98000000 		.4byte	.LVL28
 3696 0194 A4000000 		.4byte	.LVL30
 3697 0198 0100     		.2byte	0x1
 3698 019a 50       		.byte	0x50
 3699 019b 00000000 		.4byte	0
 3700 019f 00000000 		.4byte	0
 3701              	.LLST6:
 3702 01a3 74000000 		.4byte	.LVL19
 3703 01a7 78000000 		.4byte	.LVL20
 3704 01ab 0100     		.2byte	0x1
 3705 01ad 51       		.byte	0x51
 3706 01ae 00000000 		.4byte	0
 3707 01b2 00000000 		.4byte	0
 3708              	.LLST7:
 3709 01b6 7C000000 		.4byte	.LVL22
 3710 01ba 84000000 		.4byte	.LVL23
 3711 01be 0100     		.2byte	0x1
 3712 01c0 52       		.byte	0x52
 3713 01c1 84000000 		.4byte	.LVL23
 3714 01c5 88000000 		.4byte	.LVL24
 3715 01c9 0100     		.2byte	0x1
 3716 01cb 51       		.byte	0x51
 3717 01cc 8A000000 		.4byte	.LVL25
 3718 01d0 AE000000 		.4byte	.LVL31
 3719 01d4 0100     		.2byte	0x1
 3720 01d6 52       		.byte	0x52
 3721 01d7 00000000 		.4byte	0
 3722 01db 00000000 		.4byte	0
 3723              	.LLST8:
 3724 01df 78000000 		.4byte	.LVL20
 3725 01e3 7A000000 		.4byte	.LVL21
 3726 01e7 0100     		.2byte	0x1
 3727 01e9 51       		.byte	0x51
 3728 01ea 00000000 		.4byte	0
 3729 01ee 00000000 		.4byte	0
 3730              	.LLST9:
 3731 01f2 00000000 		.4byte	.LVL35
 3732 01f6 07000000 		.4byte	.LVL36-1
 3733 01fa 0100     		.2byte	0x1
 3734 01fc 50       		.byte	0x50
 3735 01fd 07000000 		.4byte	.LVL36-1
 3736 0201 4C000000 		.4byte	.LFE22
 3737 0205 0400     		.2byte	0x4
 3738 0207 F3       		.byte	0xf3
 3739 0208 01       		.uleb128 0x1
 3740 0209 50       		.byte	0x50
 3741 020a 9F       		.byte	0x9f
 3742 020b 00000000 		.4byte	0
 3743 020f 00000000 		.4byte	0
 3744              	.LLST10:
 3745 0213 0A000000 		.4byte	.LVL37
 3746 0217 40000000 		.4byte	.LVL40
 3747 021b 0100     		.2byte	0x1
 3748 021d 56       		.byte	0x56
 3749 021e 00000000 		.4byte	0
 3750 0222 00000000 		.4byte	0
ARM GAS  C:\Users\vboxuser\AppData\Local\Temp\ccKqkYuE.s 			page 103


 3751              	.LLST11:
 3752 0226 00000000 		.4byte	.LVL41
 3753 022a 82000000 		.4byte	.LVL42
 3754 022e 0100     		.2byte	0x1
 3755 0230 50       		.byte	0x50
 3756 0231 82000000 		.4byte	.LVL42
 3757 0235 C8000000 		.4byte	.LVL48
 3758 0239 0400     		.2byte	0x4
 3759 023b F3       		.byte	0xf3
 3760 023c 01       		.uleb128 0x1
 3761 023d 50       		.byte	0x50
 3762 023e 9F       		.byte	0x9f
 3763 023f C8000000 		.4byte	.LVL48
 3764 0243 E0000000 		.4byte	.LFE19
 3765 0247 0100     		.2byte	0x1
 3766 0249 50       		.byte	0x50
 3767 024a 00000000 		.4byte	0
 3768 024e 00000000 		.4byte	0
 3769              	.LLST12:
 3770 0252 08000000 		.4byte	.LVL55
 3771 0256 B2000000 		.4byte	.LVL59
 3772 025a 0100     		.2byte	0x1
 3773 025c 56       		.byte	0x56
 3774 025d 00000000 		.4byte	0
 3775 0261 00000000 		.4byte	0
 3776              	.LLST13:
 3777 0265 08000000 		.4byte	.LVL63
 3778 0269 CE000000 		.4byte	.LVL66
 3779 026d 0100     		.2byte	0x1
 3780 026f 56       		.byte	0x56
 3781 0270 00000000 		.4byte	0
 3782 0274 00000000 		.4byte	0
 3783              	.LLST14:
 3784 0278 00000000 		.4byte	.LVL67
 3785 027c 0A000000 		.4byte	.LVL69
 3786 0280 0100     		.2byte	0x1
 3787 0282 50       		.byte	0x50
 3788 0283 0A000000 		.4byte	.LVL69
 3789 0287 18000000 		.4byte	.LFE4
 3790 028b 0400     		.2byte	0x4
 3791 028d F3       		.byte	0xf3
 3792 028e 01       		.uleb128 0x1
 3793 028f 50       		.byte	0x50
 3794 0290 9F       		.byte	0x9f
 3795 0291 00000000 		.4byte	0
 3796 0295 00000000 		.4byte	0
 3797              	.LLST15:
 3798 0299 08000000 		.4byte	.LVL68
 3799 029d 10000000 		.4byte	.LVL70
 3800 02a1 0100     		.2byte	0x1
 3801 02a3 53       		.byte	0x53
 3802 02a4 10000000 		.4byte	.LVL70
 3803 02a8 18000000 		.4byte	.LFE4
 3804 02ac 0100     		.2byte	0x1
 3805 02ae 50       		.byte	0x50
 3806 02af 00000000 		.4byte	0
 3807 02b3 00000000 		.4byte	0
ARM GAS  C:\Users\vboxuser\AppData\Local\Temp\ccKqkYuE.s 			page 104


 3808              	.LLST16:
 3809 02b7 00000000 		.4byte	.LVL71
 3810 02bb 0C000000 		.4byte	.LVL73
 3811 02bf 0100     		.2byte	0x1
 3812 02c1 50       		.byte	0x50
 3813 02c2 0C000000 		.4byte	.LVL73
 3814 02c6 18000000 		.4byte	.LFE5
 3815 02ca 0400     		.2byte	0x4
 3816 02cc F3       		.byte	0xf3
 3817 02cd 01       		.uleb128 0x1
 3818 02ce 50       		.byte	0x50
 3819 02cf 9F       		.byte	0x9f
 3820 02d0 00000000 		.4byte	0
 3821 02d4 00000000 		.4byte	0
 3822              	.LLST17:
 3823 02d8 08000000 		.4byte	.LVL72
 3824 02dc 0E000000 		.4byte	.LVL74
 3825 02e0 0100     		.2byte	0x1
 3826 02e2 53       		.byte	0x53
 3827 02e3 0E000000 		.4byte	.LVL74
 3828 02e7 18000000 		.4byte	.LFE5
 3829 02eb 0100     		.2byte	0x1
 3830 02ed 50       		.byte	0x50
 3831 02ee 00000000 		.4byte	0
 3832 02f2 00000000 		.4byte	0
 3833              	.LLST18:
 3834 02f6 00000000 		.4byte	.LVL75
 3835 02fa 10000000 		.4byte	.LVL77
 3836 02fe 0100     		.2byte	0x1
 3837 0300 50       		.byte	0x50
 3838 0301 10000000 		.4byte	.LVL77
 3839 0305 24000000 		.4byte	.LVL81
 3840 0309 0100     		.2byte	0x1
 3841 030b 54       		.byte	0x54
 3842 030c 24000000 		.4byte	.LVL81
 3843 0310 74000000 		.4byte	.LFE6
 3844 0314 0600     		.2byte	0x6
 3845 0316 F3       		.byte	0xf3
 3846 0317 03       		.uleb128 0x3
 3847 0318 F5       		.byte	0xf5
 3848 0319 00       		.uleb128 0
 3849 031a 25       		.uleb128 0x25
 3850 031b 9F       		.byte	0x9f
 3851 031c 00000000 		.4byte	0
 3852 0320 00000000 		.4byte	0
 3853              	.LLST19:
 3854 0324 0A000000 		.4byte	.LVL76
 3855 0328 13000000 		.4byte	.LVL78-1
 3856 032c 0A00     		.2byte	0xa
 3857 032e 73       		.byte	0x73
 3858 032f 00       		.sleb128 0
 3859 0330 32       		.byte	0x32
 3860 0331 24       		.byte	0x24
 3861 0332 03       		.byte	0x3
 3862 0333 00000000 		.4byte	.LANCHOR0
 3863 0337 22       		.byte	0x22
 3864 0338 44000000 		.4byte	.LVL86
ARM GAS  C:\Users\vboxuser\AppData\Local\Temp\ccKqkYuE.s 			page 105


 3865 033c 56000000 		.4byte	.LVL88
 3866 0340 0100     		.2byte	0x1
 3867 0342 50       		.byte	0x50
 3868 0343 56000000 		.4byte	.LVL88
 3869 0347 58000000 		.4byte	.LVL89
 3870 034b 0700     		.2byte	0x7
 3871 034d 73       		.byte	0x73
 3872 034e 00       		.sleb128 0
 3873 034f 32       		.byte	0x32
 3874 0350 24       		.byte	0x24
 3875 0351 72       		.byte	0x72
 3876 0352 00       		.sleb128 0
 3877 0353 22       		.byte	0x22
 3878 0354 00000000 		.4byte	0
 3879 0358 00000000 		.4byte	0
 3880              	.LLST20:
 3881 035c 54000000 		.4byte	.LVL87
 3882 0360 58000000 		.4byte	.LVL89
 3883 0364 0200     		.2byte	0x2
 3884 0366 30       		.byte	0x30
 3885 0367 9F       		.byte	0x9f
 3886 0368 5A000000 		.4byte	.LVL90
 3887 036c 74000000 		.4byte	.LFE6
 3888 0370 0100     		.2byte	0x1
 3889 0372 50       		.byte	0x50
 3890 0373 00000000 		.4byte	0
 3891 0377 00000000 		.4byte	0
 3892              	.LLST21:
 3893 037b 1C000000 		.4byte	.LVL79
 3894 037f 21000000 		.4byte	.LVL80-1
 3895 0383 0100     		.2byte	0x1
 3896 0385 50       		.byte	0x50
 3897 0386 24000000 		.4byte	.LVL81
 3898 038a 27000000 		.4byte	.LVL82-1
 3899 038e 0100     		.2byte	0x1
 3900 0390 50       		.byte	0x50
 3901 0391 27000000 		.4byte	.LVL82-1
 3902 0395 3E000000 		.4byte	.LVL84
 3903 0399 0100     		.2byte	0x1
 3904 039b 54       		.byte	0x54
 3905 039c 3E000000 		.4byte	.LVL84
 3906 03a0 41000000 		.4byte	.LVL85-1
 3907 03a4 0100     		.2byte	0x1
 3908 03a6 50       		.byte	0x50
 3909 03a7 58000000 		.4byte	.LVL89
 3910 03ab 5C000000 		.4byte	.LVL91
 3911 03af 0100     		.2byte	0x1
 3912 03b1 54       		.byte	0x54
 3913 03b2 00000000 		.4byte	0
 3914 03b6 00000000 		.4byte	0
 3915              	.LLST22:
 3916 03ba 06000000 		.4byte	.LVL92
 3917 03be 14000000 		.4byte	.LVL94
 3918 03c2 0100     		.2byte	0x1
 3919 03c4 53       		.byte	0x53
 3920 03c5 00000000 		.4byte	0
 3921 03c9 00000000 		.4byte	0
ARM GAS  C:\Users\vboxuser\AppData\Local\Temp\ccKqkYuE.s 			page 106


 3922              	.LLST23:
 3923 03cd 0C000000 		.4byte	.LVL93
 3924 03d1 16000000 		.4byte	.LVL95
 3925 03d5 0100     		.2byte	0x1
 3926 03d7 50       		.byte	0x50
 3927 03d8 18000000 		.4byte	.LVL96
 3928 03dc 24000000 		.4byte	.LFE7
 3929 03e0 0100     		.2byte	0x1
 3930 03e2 50       		.byte	0x50
 3931 03e3 00000000 		.4byte	0
 3932 03e7 00000000 		.4byte	0
 3933              	.LLST24:
 3934 03eb 00000000 		.4byte	.LVL97
 3935 03ef 24000000 		.4byte	.LVL101
 3936 03f3 0100     		.2byte	0x1
 3937 03f5 50       		.byte	0x50
 3938 03f6 24000000 		.4byte	.LVL101
 3939 03fa 30000000 		.4byte	.LFE10
 3940 03fe 0400     		.2byte	0x4
 3941 0400 F3       		.byte	0xf3
 3942 0401 01       		.uleb128 0x1
 3943 0402 50       		.byte	0x50
 3944 0403 9F       		.byte	0x9f
 3945 0404 00000000 		.4byte	0
 3946 0408 00000000 		.4byte	0
 3947              	.LLST25:
 3948 040c 10000000 		.4byte	.LVL98
 3949 0410 12000000 		.4byte	.LVL99
 3950 0414 0100     		.2byte	0x1
 3951 0416 53       		.byte	0x53
 3952 0417 1A000000 		.4byte	.LVL100
 3953 041b 30000000 		.4byte	.LFE10
 3954 041f 0100     		.2byte	0x1
 3955 0421 53       		.byte	0x53
 3956 0422 00000000 		.4byte	0
 3957 0426 00000000 		.4byte	0
 3958              	.LLST26:
 3959 042a 08000000 		.4byte	.LVL102
 3960 042e 14000000 		.4byte	.LVL104
 3961 0432 0100     		.2byte	0x1
 3962 0434 53       		.byte	0x53
 3963 0435 18000000 		.4byte	.LVL105
 3964 0439 1E000000 		.4byte	.LVL106
 3965 043d 0100     		.2byte	0x1
 3966 043f 53       		.byte	0x53
 3967 0440 00000000 		.4byte	0
 3968 0444 00000000 		.4byte	0
 3969              	.LLST27:
 3970 0448 12000000 		.4byte	.LVL109
 3971 044c 14000000 		.4byte	.LVL110
 3972 0450 0100     		.2byte	0x1
 3973 0452 50       		.byte	0x50
 3974 0453 18000000 		.4byte	.LVL111
 3975 0457 20000000 		.4byte	.LVL112
 3976 045b 0100     		.2byte	0x1
 3977 045d 52       		.byte	0x52
 3978 045e 20000000 		.4byte	.LVL112
ARM GAS  C:\Users\vboxuser\AppData\Local\Temp\ccKqkYuE.s 			page 107


 3979 0462 50000000 		.4byte	.LFE12
 3980 0466 0100     		.2byte	0x1
 3981 0468 50       		.byte	0x50
 3982 0469 00000000 		.4byte	0
 3983 046d 00000000 		.4byte	0
 3984              	.LLST28:
 3985 0471 08000000 		.4byte	.LVL107
 3986 0475 0E000000 		.4byte	.LVL108
 3987 0479 0100     		.2byte	0x1
 3988 047b 53       		.byte	0x53
 3989 047c 14000000 		.4byte	.LVL110
 3990 0480 26000000 		.4byte	.LVL113
 3991 0484 0100     		.2byte	0x1
 3992 0486 53       		.byte	0x53
 3993 0487 00000000 		.4byte	0
 3994 048b 00000000 		.4byte	0
 3995              	.LLST29:
 3996 048f 10000000 		.4byte	.LVL116
 3997 0493 1A000000 		.4byte	.LVL117
 3998 0497 0700     		.2byte	0x7
 3999 0499 70       		.byte	0x70
 4000 049a 00       		.sleb128 0
 4001 049b 0A       		.byte	0xa
 4002 049c FFFF     		.2byte	0xffff
 4003 049e 1A       		.byte	0x1a
 4004 049f 9F       		.byte	0x9f
 4005 04a0 1A000000 		.4byte	.LVL117
 4006 04a4 1C000000 		.4byte	.LVL118
 4007 04a8 0100     		.2byte	0x1
 4008 04aa 50       		.byte	0x50
 4009 04ab 24000000 		.4byte	.LVL120
 4010 04af 2C000000 		.4byte	.LVL121
 4011 04b3 0700     		.2byte	0x7
 4012 04b5 70       		.byte	0x70
 4013 04b6 00       		.sleb128 0
 4014 04b7 0A       		.byte	0xa
 4015 04b8 FFFF     		.2byte	0xffff
 4016 04ba 1A       		.byte	0x1a
 4017 04bb 9F       		.byte	0x9f
 4018 04bc 2C000000 		.4byte	.LVL121
 4019 04c0 34000000 		.4byte	.LVL122
 4020 04c4 0100     		.2byte	0x1
 4021 04c6 53       		.byte	0x53
 4022 04c7 34000000 		.4byte	.LVL122
 4023 04cb 36000000 		.4byte	.LVL123
 4024 04cf 0100     		.2byte	0x1
 4025 04d1 50       		.byte	0x50
 4026 04d2 3C000000 		.4byte	.LVL125
 4027 04d6 44000000 		.4byte	.LVL126
 4028 04da 0100     		.2byte	0x1
 4029 04dc 53       		.byte	0x53
 4030 04dd 44000000 		.4byte	.LVL126
 4031 04e1 6C000000 		.4byte	.LFE13
 4032 04e5 0100     		.2byte	0x1
 4033 04e7 50       		.byte	0x50
 4034 04e8 00000000 		.4byte	0
 4035 04ec 00000000 		.4byte	0
ARM GAS  C:\Users\vboxuser\AppData\Local\Temp\ccKqkYuE.s 			page 108


 4036              	.LLST30:
 4037 04f0 08000000 		.4byte	.LVL114
 4038 04f4 0E000000 		.4byte	.LVL115
 4039 04f8 0100     		.2byte	0x1
 4040 04fa 53       		.byte	0x53
 4041 04fb 1C000000 		.4byte	.LVL118
 4042 04ff 22000000 		.4byte	.LVL119
 4043 0503 0100     		.2byte	0x1
 4044 0505 53       		.byte	0x53
 4045 0506 36000000 		.4byte	.LVL123
 4046 050a 38000000 		.4byte	.LVL124
 4047 050e 0100     		.2byte	0x1
 4048 0510 53       		.byte	0x53
 4049 0511 00000000 		.4byte	0
 4050 0515 00000000 		.4byte	0
 4051              	.LLST31:
 4052 0519 00000000 		.4byte	.LVL129
 4053 051d 06000000 		.4byte	.LVL130
 4054 0521 0100     		.2byte	0x1
 4055 0523 50       		.byte	0x50
 4056 0524 06000000 		.4byte	.LVL130
 4057 0528 0E000000 		.4byte	.LVL131
 4058 052c 0100     		.2byte	0x1
 4059 052e 50       		.byte	0x50
 4060 052f 00000000 		.4byte	0
 4061 0533 00000000 		.4byte	0
 4062              	.LLST32:
 4063 0537 00000000 		.4byte	.LVL133
 4064 053b 06000000 		.4byte	.LVL134
 4065 053f 0100     		.2byte	0x1
 4066 0541 50       		.byte	0x50
 4067 0542 06000000 		.4byte	.LVL134
 4068 0546 08000000 		.4byte	.LVL135
 4069 054a 0600     		.2byte	0x6
 4070 054c 70       		.byte	0x70
 4071 054d 00       		.sleb128 0
 4072 054e 73       		.byte	0x73
 4073 054f 00       		.sleb128 0
 4074 0550 1C       		.byte	0x1c
 4075 0551 9F       		.byte	0x9f
 4076 0552 08000000 		.4byte	.LVL135
 4077 0556 0B000000 		.4byte	.LVL136-1
 4078 055a 0100     		.2byte	0x1
 4079 055c 50       		.byte	0x50
 4080 055d 00000000 		.4byte	0
 4081 0561 00000000 		.4byte	0
 4082              	.LLST33:
 4083 0565 00000000 		.4byte	.LVL139
 4084 0569 2C000000 		.4byte	.LVL142
 4085 056d 0100     		.2byte	0x1
 4086 056f 50       		.byte	0x50
 4087 0570 2C000000 		.4byte	.LVL142
 4088 0574 4C000000 		.4byte	.LFE18
 4089 0578 0400     		.2byte	0x4
 4090 057a F3       		.byte	0xf3
 4091 057b 01       		.uleb128 0x1
 4092 057c 50       		.byte	0x50
ARM GAS  C:\Users\vboxuser\AppData\Local\Temp\ccKqkYuE.s 			page 109


 4093 057d 9F       		.byte	0x9f
 4094 057e 00000000 		.4byte	0
 4095 0582 00000000 		.4byte	0
 4096              	.LLST34:
 4097 0586 3C000000 		.4byte	.LVL143
 4098 058a 3E000000 		.4byte	.LVL144
 4099 058e 0600     		.2byte	0x6
 4100 0590 70       		.byte	0x70
 4101 0591 00       		.sleb128 0
 4102 0592 73       		.byte	0x73
 4103 0593 00       		.sleb128 0
 4104 0594 1C       		.byte	0x1c
 4105 0595 9F       		.byte	0x9f
 4106 0596 3E000000 		.4byte	.LVL144
 4107 059a 4C000000 		.4byte	.LFE18
 4108 059e 0100     		.2byte	0x1
 4109 05a0 50       		.byte	0x50
 4110 05a1 00000000 		.4byte	0
 4111 05a5 00000000 		.4byte	0
 4112              	.LLST35:
 4113 05a9 18000000 		.4byte	.LVL140
 4114 05ad 24000000 		.4byte	.LVL141
 4115 05b1 0300     		.2byte	0x3
 4116 05b3 08       		.byte	0x8
 4117 05b4 20       		.byte	0x20
 4118 05b5 9F       		.byte	0x9f
 4119 05b6 24000000 		.4byte	.LVL141
 4120 05ba 4C000000 		.4byte	.LFE18
 4121 05be 0100     		.2byte	0x1
 4122 05c0 52       		.byte	0x52
 4123 05c1 00000000 		.4byte	0
 4124 05c5 00000000 		.4byte	0
 4125              	.LLST36:
 4126 05c9 00000000 		.4byte	.LVL145
 4127 05cd 1D000000 		.4byte	.LVL146-1
 4128 05d1 0100     		.2byte	0x1
 4129 05d3 50       		.byte	0x50
 4130 05d4 1D000000 		.4byte	.LVL146-1
 4131 05d8 48000000 		.4byte	.LVL150
 4132 05dc 0400     		.2byte	0x4
 4133 05de F3       		.byte	0xf3
 4134 05df 01       		.uleb128 0x1
 4135 05e0 50       		.byte	0x50
 4136 05e1 9F       		.byte	0x9f
 4137 05e2 48000000 		.4byte	.LVL150
 4138 05e6 4A000000 		.4byte	.LVL151
 4139 05ea 0100     		.2byte	0x1
 4140 05ec 50       		.byte	0x50
 4141 05ed 4A000000 		.4byte	.LVL151
 4142 05f1 60000000 		.4byte	.LFE20
 4143 05f5 0400     		.2byte	0x4
 4144 05f7 F3       		.byte	0xf3
 4145 05f8 01       		.uleb128 0x1
 4146 05f9 50       		.byte	0x50
 4147 05fa 9F       		.byte	0x9f
 4148 05fb 00000000 		.4byte	0
 4149 05ff 00000000 		.4byte	0
ARM GAS  C:\Users\vboxuser\AppData\Local\Temp\ccKqkYuE.s 			page 110


 4150              	.LLST37:
 4151 0603 00000000 		.4byte	.LVL145
 4152 0607 1D000000 		.4byte	.LVL146-1
 4153 060b 0100     		.2byte	0x1
 4154 060d 51       		.byte	0x51
 4155 060e 1D000000 		.4byte	.LVL146-1
 4156 0612 48000000 		.4byte	.LVL150
 4157 0616 0400     		.2byte	0x4
 4158 0618 F3       		.byte	0xf3
 4159 0619 01       		.uleb128 0x1
 4160 061a 51       		.byte	0x51
 4161 061b 9F       		.byte	0x9f
 4162 061c 48000000 		.4byte	.LVL150
 4163 0620 4D000000 		.4byte	.LVL152-1
 4164 0624 0100     		.2byte	0x1
 4165 0626 51       		.byte	0x51
 4166 0627 4D000000 		.4byte	.LVL152-1
 4167 062b 60000000 		.4byte	.LFE20
 4168 062f 0400     		.2byte	0x4
 4169 0631 F3       		.byte	0xf3
 4170 0632 01       		.uleb128 0x1
 4171 0633 51       		.byte	0x51
 4172 0634 9F       		.byte	0x9f
 4173 0635 00000000 		.4byte	0
 4174 0639 00000000 		.4byte	0
 4175              	.LLST38:
 4176 063d 1C000000 		.4byte	.LVL156
 4177 0641 24000000 		.4byte	.LVL158
 4178 0645 0100     		.2byte	0x1
 4179 0647 54       		.byte	0x54
 4180 0648 00000000 		.4byte	0
 4181 064c 00000000 		.4byte	0
 4182              	.LLST39:
 4183 0650 1C000000 		.4byte	.LVL162
 4184 0654 24000000 		.4byte	.LVL164
 4185 0658 0100     		.2byte	0x1
 4186 065a 54       		.byte	0x54
 4187 065b 00000000 		.4byte	0
 4188 065f 00000000 		.4byte	0
 4189              	.LLST40:
 4190 0663 1C000000 		.4byte	.LVL168
 4191 0667 1F000000 		.4byte	.LVL169-1
 4192 066b 0100     		.2byte	0x1
 4193 066d 50       		.byte	0x50
 4194 066e 1F000000 		.4byte	.LVL169-1
 4195 0672 24000000 		.4byte	.LVL170
 4196 0676 0100     		.2byte	0x1
 4197 0678 54       		.byte	0x54
 4198 0679 24000000 		.4byte	.LVL170
 4199 067d 28000000 		.4byte	.LFE25
 4200 0681 0100     		.2byte	0x1
 4201 0683 50       		.byte	0x50
 4202 0684 00000000 		.4byte	0
 4203 0688 00000000 		.4byte	0
 4204              		.section	.debug_aranges,"",%progbits
 4205 0000 E4000000 		.4byte	0xe4
 4206 0004 0200     		.2byte	0x2
ARM GAS  C:\Users\vboxuser\AppData\Local\Temp\ccKqkYuE.s 			page 111


 4207 0006 00000000 		.4byte	.Ldebug_info0
 4208 000a 04       		.byte	0x4
 4209 000b 00       		.byte	0
 4210 000c 0000     		.2byte	0
 4211 000e 0000     		.2byte	0
 4212 0010 00000000 		.4byte	.LFB21
 4213 0014 DC000000 		.4byte	.LFE21-.LFB21
 4214 0018 00000000 		.4byte	.LFB22
 4215 001c 4C000000 		.4byte	.LFE22-.LFB22
 4216 0020 00000000 		.4byte	.LFB19
 4217 0024 E0000000 		.4byte	.LFE19-.LFB19
 4218 0028 00000000 		.4byte	.LFB0
 4219 002c C4000000 		.4byte	.LFE0-.LFB0
 4220 0030 00000000 		.4byte	.LFB1
 4221 0034 D8000000 		.4byte	.LFE1-.LFB1
 4222 0038 00000000 		.4byte	.LFB2
 4223 003c 28000000 		.4byte	.LFE2-.LFB2
 4224 0040 00000000 		.4byte	.LFB3
 4225 0044 E4000000 		.4byte	.LFE3-.LFB3
 4226 0048 00000000 		.4byte	.LFB4
 4227 004c 18000000 		.4byte	.LFE4-.LFB4
 4228 0050 00000000 		.4byte	.LFB5
 4229 0054 18000000 		.4byte	.LFE5-.LFB5
 4230 0058 00000000 		.4byte	.LFB6
 4231 005c 74000000 		.4byte	.LFE6-.LFB6
 4232 0060 00000000 		.4byte	.LFB7
 4233 0064 24000000 		.4byte	.LFE7-.LFB7
 4234 0068 00000000 		.4byte	.LFB8
 4235 006c 10000000 		.4byte	.LFE8-.LFB8
 4236 0070 00000000 		.4byte	.LFB9
 4237 0074 10000000 		.4byte	.LFE9-.LFB9
 4238 0078 00000000 		.4byte	.LFB10
 4239 007c 30000000 		.4byte	.LFE10-.LFB10
 4240 0080 00000000 		.4byte	.LFB11
 4241 0084 48000000 		.4byte	.LFE11-.LFB11
 4242 0088 00000000 		.4byte	.LFB12
 4243 008c 50000000 		.4byte	.LFE12-.LFB12
 4244 0090 00000000 		.4byte	.LFB13
 4245 0094 6C000000 		.4byte	.LFE13-.LFB13
 4246 0098 00000000 		.4byte	.LFB14
 4247 009c 0C000000 		.4byte	.LFE14-.LFB14
 4248 00a0 00000000 		.4byte	.LFB15
 4249 00a4 0C000000 		.4byte	.LFE15-.LFB15
 4250 00a8 00000000 		.4byte	.LFB16
 4251 00ac 24000000 		.4byte	.LFE16-.LFB16
 4252 00b0 00000000 		.4byte	.LFB17
 4253 00b4 28000000 		.4byte	.LFE17-.LFB17
 4254 00b8 00000000 		.4byte	.LFB18
 4255 00bc 4C000000 		.4byte	.LFE18-.LFB18
 4256 00c0 00000000 		.4byte	.LFB20
 4257 00c4 60000000 		.4byte	.LFE20-.LFB20
 4258 00c8 00000000 		.4byte	.LFB23
 4259 00cc 28000000 		.4byte	.LFE23-.LFB23
 4260 00d0 00000000 		.4byte	.LFB24
 4261 00d4 28000000 		.4byte	.LFE24-.LFB24
 4262 00d8 00000000 		.4byte	.LFB25
 4263 00dc 28000000 		.4byte	.LFE25-.LFB25
ARM GAS  C:\Users\vboxuser\AppData\Local\Temp\ccKqkYuE.s 			page 112


 4264 00e0 00000000 		.4byte	0
 4265 00e4 00000000 		.4byte	0
 4266              		.section	.debug_ranges,"",%progbits
 4267              	.Ldebug_ranges0:
 4268 0000 00000000 		.4byte	.LFB21
 4269 0004 DC000000 		.4byte	.LFE21
 4270 0008 00000000 		.4byte	.LFB22
 4271 000c 4C000000 		.4byte	.LFE22
 4272 0010 00000000 		.4byte	.LFB19
 4273 0014 E0000000 		.4byte	.LFE19
 4274 0018 00000000 		.4byte	.LFB0
 4275 001c C4000000 		.4byte	.LFE0
 4276 0020 00000000 		.4byte	.LFB1
 4277 0024 D8000000 		.4byte	.LFE1
 4278 0028 00000000 		.4byte	.LFB2
 4279 002c 28000000 		.4byte	.LFE2
 4280 0030 00000000 		.4byte	.LFB3
 4281 0034 E4000000 		.4byte	.LFE3
 4282 0038 00000000 		.4byte	.LFB4
 4283 003c 18000000 		.4byte	.LFE4
 4284 0040 00000000 		.4byte	.LFB5
 4285 0044 18000000 		.4byte	.LFE5
 4286 0048 00000000 		.4byte	.LFB6
 4287 004c 74000000 		.4byte	.LFE6
 4288 0050 00000000 		.4byte	.LFB7
 4289 0054 24000000 		.4byte	.LFE7
 4290 0058 00000000 		.4byte	.LFB8
 4291 005c 10000000 		.4byte	.LFE8
 4292 0060 00000000 		.4byte	.LFB9
 4293 0064 10000000 		.4byte	.LFE9
 4294 0068 00000000 		.4byte	.LFB10
 4295 006c 30000000 		.4byte	.LFE10
 4296 0070 00000000 		.4byte	.LFB11
 4297 0074 48000000 		.4byte	.LFE11
 4298 0078 00000000 		.4byte	.LFB12
 4299 007c 50000000 		.4byte	.LFE12
 4300 0080 00000000 		.4byte	.LFB13
 4301 0084 6C000000 		.4byte	.LFE13
 4302 0088 00000000 		.4byte	.LFB14
 4303 008c 0C000000 		.4byte	.LFE14
 4304 0090 00000000 		.4byte	.LFB15
 4305 0094 0C000000 		.4byte	.LFE15
 4306 0098 00000000 		.4byte	.LFB16
 4307 009c 24000000 		.4byte	.LFE16
 4308 00a0 00000000 		.4byte	.LFB17
 4309 00a4 28000000 		.4byte	.LFE17
 4310 00a8 00000000 		.4byte	.LFB18
 4311 00ac 4C000000 		.4byte	.LFE18
 4312 00b0 00000000 		.4byte	.LFB20
 4313 00b4 60000000 		.4byte	.LFE20
 4314 00b8 00000000 		.4byte	.LFB23
 4315 00bc 28000000 		.4byte	.LFE23
 4316 00c0 00000000 		.4byte	.LFB24
 4317 00c4 28000000 		.4byte	.LFE24
 4318 00c8 00000000 		.4byte	.LFB25
 4319 00cc 28000000 		.4byte	.LFE25
 4320 00d0 00000000 		.4byte	0
ARM GAS  C:\Users\vboxuser\AppData\Local\Temp\ccKqkYuE.s 			page 113


 4321 00d4 00000000 		.4byte	0
 4322              		.section	.debug_line,"",%progbits
 4323              	.Ldebug_line0:
 4324 0000 78030000 		.section	.debug_str,"MS",%progbits,1
 4324      0200B400 
 4324      00000201 
 4324      FB0E0D00 
 4324      01010101 
 4325              	.LASF73:
 4326 0000 4144435F 		.ascii	"ADC_DelSig_2_CountsTo_uVolts\000"
 4326      44656C53 
 4326      69675F32 
 4326      5F436F75 
 4326      6E747354 
 4327              	.LASF63:
 4328 001d 4144435F 		.ascii	"ADC_DelSig_2_GetResult32\000"
 4328      44656C53 
 4328      69675F32 
 4328      5F476574 
 4328      52657375 
 4329              	.LASF11:
 4330 0036 75696E74 		.ascii	"uint16\000"
 4330      313600
 4331              	.LASF36:
 4332 003d 4144435F 		.ascii	"ADC_DelSig_2_GainCompensation\000"
 4332      44656C53 
 4332      69675F32 
 4332      5F476169 
 4332      6E436F6D 
 4333              	.LASF93:
 4334 005b 43794578 		.ascii	"CyExitCriticalSection\000"
 4334      69744372 
 4334      69746963 
 4334      616C5365 
 4334      6374696F 
 4335              	.LASF53:
 4336 0071 4144435F 		.ascii	"ADC_DelSig_2_SetGCOR\000"
 4336      44656C53 
 4336      69675F32 
 4336      5F536574 
 4336      47434F52 
 4337              	.LASF27:
 4338 0086 696E7075 		.ascii	"inputRange\000"
 4338      7452616E 
 4338      676500
 4339              	.LASF85:
 4340 0091 4144435F 		.ascii	"ADC_DelSig_2_stopConversion\000"
 4340      44656C53 
 4340      69675F32 
 4340      5F73746F 
 4340      70436F6E 
 4341              	.LASF24:
 4342 00ad 67636F72 		.ascii	"gcor\000"
 4342      00
 4343              	.LASF66:
 4344 00b2 4144435F 		.ascii	"ADC_DelSig_2_SetGain\000"
 4344      44656C53 
ARM GAS  C:\Users\vboxuser\AppData\Local\Temp\ccKqkYuE.s 			page 114


 4344      69675F32 
 4344      5F536574 
 4344      4761696E 
 4345              	.LASF8:
 4346 00c7 6C6F6E67 		.ascii	"long long unsigned int\000"
 4346      206C6F6E 
 4346      6720756E 
 4346      7369676E 
 4346      65642069 
 4347              	.LASF64:
 4348 00de 4144435F 		.ascii	"ADC_DelSig_2_SetOffset\000"
 4348      44656C53 
 4348      69675F32 
 4348      5F536574 
 4348      4F666673 
 4349              	.LASF82:
 4350 00f5 4144435F 		.ascii	"ADC_DelSig_2_gcor\000"
 4350      44656C53 
 4350      69675F32 
 4350      5F67636F 
 4350      7200
 4351              	.LASF29:
 4352 0107 69646561 		.ascii	"idealOddDecGain\000"
 4352      6C4F6464 
 4352      44656347 
 4352      61696E00 
 4353              	.LASF26:
 4354 0117 4144435F 		.ascii	"ADC_DelSig_2_GCOR_STRUCT\000"
 4354      44656C53 
 4354      69675F32 
 4354      5F47434F 
 4354      525F5354 
 4355              	.LASF7:
 4356 0130 6C6F6E67 		.ascii	"long long int\000"
 4356      206C6F6E 
 4356      6720696E 
 4356      7400
 4357              	.LASF1:
 4358 013e 7369676E 		.ascii	"signed char\000"
 4358      65642063 
 4358      68617200 
 4359              	.LASF57:
 4360 014a 4144435F 		.ascii	"ADC_DelSig_2_StopConvert\000"
 4360      44656C53 
 4360      69675F32 
 4360      5F53746F 
 4360      70436F6E 
 4361              	.LASF15:
 4362 0163 696E7433 		.ascii	"int32\000"
 4362      3200
 4363              	.LASF94:
 4364 0169 4144435F 		.ascii	"ADC_DelSig_2_AMux_Select\000"
 4364      44656C53 
 4364      69675F32 
 4364      5F414D75 
 4364      785F5365 
 4365              	.LASF95:
ARM GAS  C:\Users\vboxuser\AppData\Local\Temp\ccKqkYuE.s 			page 115


 4366 0182 4144435F 		.ascii	"ADC_DelSig_2_Ext_CP_Clk_SetDividerRegister\000"
 4366      44656C53 
 4366      69675F32 
 4366      5F457874 
 4366      5F43505F 
 4367              	.LASF5:
 4368 01ad 6C6F6E67 		.ascii	"long int\000"
 4368      20696E74 
 4368      00
 4369              	.LASF20:
 4370 01b6 72656731 		.ascii	"reg16\000"
 4370      3600
 4371              	.LASF10:
 4372 01bc 75696E74 		.ascii	"uint8\000"
 4372      3800
 4373              	.LASF92:
 4374 01c2 43794465 		.ascii	"CyDelayUs\000"
 4374      6C617955 
 4374      7300
 4375              	.LASF17:
 4376 01cc 646F7562 		.ascii	"double\000"
 4376      6C6500
 4377              	.LASF44:
 4378 01d3 4144435F 		.ascii	"ADC_DelSig_2_Stop\000"
 4378      44656C53 
 4378      69675F32 
 4378      5F53746F 
 4378      7000
 4379              	.LASF72:
 4380 01e5 566F6C74 		.ascii	"Volts\000"
 4380      7300
 4381              	.LASF71:
 4382 01eb 4144435F 		.ascii	"ADC_DelSig_2_CountsTo_Volts\000"
 4382      44656C53 
 4382      69675F32 
 4382      5F436F75 
 4382      6E747354 
 4383              	.LASF87:
 4384 0207 4144435F 		.ascii	"ADC_DelSig_2_Config\000"
 4384      44656C53 
 4384      69675F32 
 4384      5F436F6E 
 4384      66696700 
 4385              	.LASF12:
 4386 021b 75696E74 		.ascii	"uint32\000"
 4386      333200
 4387              	.LASF97:
 4388 0222 4379496E 		.ascii	"CyIntSetVector\000"
 4388      74536574 
 4388      56656374 
 4388      6F7200
 4389              	.LASF88:
 4390 0231 4144435F 		.ascii	"ADC_DelSig_2_Offset\000"
 4390      44656C53 
 4390      69675F32 
 4390      5F4F6666 
 4390      73657400 
ARM GAS  C:\Users\vboxuser\AppData\Local\Temp\ccKqkYuE.s 			page 116


 4391              	.LASF38:
 4392 0245 76616C75 		.ascii	"value\000"
 4392      6500
 4393              	.LASF59:
 4394 024b 7265744D 		.ascii	"retMode\000"
 4394      6F646500 
 4395              	.LASF9:
 4396 0253 756E7369 		.ascii	"unsigned int\000"
 4396      676E6564 
 4396      20696E74 
 4396      00
 4397              	.LASF74:
 4398 0260 75566F6C 		.ascii	"uVolts\000"
 4398      747300
 4399              	.LASF6:
 4400 0267 6C6F6E67 		.ascii	"long unsigned int\000"
 4400      20756E73 
 4400      69676E65 
 4400      6420696E 
 4400      7400
 4401              	.LASF91:
 4402 0279 4379456E 		.ascii	"CyEnterCriticalSection\000"
 4402      74657243 
 4402      72697469 
 4402      63616C53 
 4402      65637469 
 4403              	.LASF4:
 4404 0290 73686F72 		.ascii	"short unsigned int\000"
 4404      7420756E 
 4404      7369676E 
 4404      65642069 
 4404      6E7400
 4405              	.LASF13:
 4406 02a3 696E7438 		.ascii	"int8\000"
 4406      00
 4407              	.LASF43:
 4408 02a8 4144435F 		.ascii	"ADC_DelSig_2_Start\000"
 4408      44656C53 
 4408      69675F32 
 4408      5F537461 
 4408      727400
 4409              	.LASF34:
 4410 02bb 67636F72 		.ascii	"gcorValue\000"
 4410      56616C75 
 4410      6500
 4411              	.LASF99:
 4412 02c5 4144435F 		.ascii	"ADC_DelSig_2_theACLK_SetModeRegister\000"
 4412      44656C53 
 4412      69675F32 
 4412      5F746865 
 4412      41434C4B 
 4413              	.LASF70:
 4414 02ea 6D566F6C 		.ascii	"mVolts\000"
 4414      747300
 4415              	.LASF45:
 4416 02f1 4144435F 		.ascii	"ADC_DelSig_2_SetBufferGain\000"
 4416      44656C53 
ARM GAS  C:\Users\vboxuser\AppData\Local\Temp\ccKqkYuE.s 			page 117


 4416      69675F32 
 4416      5F536574 
 4416      42756666 
 4417              	.LASF32:
 4418 030c 666C6173 		.ascii	"flash\000"
 4418      6800
 4419              	.LASF21:
 4420 0312 72656733 		.ascii	"reg32\000"
 4420      3200
 4421              	.LASF77:
 4422 0318 4144435F 		.ascii	"ADC_DelSig_2_SelectConfiguration\000"
 4422      44656C53 
 4422      69675F32 
 4422      5F53656C 
 4422      65637443 
 4423              	.LASF79:
 4424 0339 4144435F 		.ascii	"ADC_DelSig_2_Read8\000"
 4424      44656C53 
 4424      69675F32 
 4424      5F526561 
 4424      643800
 4425              	.LASF16:
 4426 034c 666C6F61 		.ascii	"float32\000"
 4426      74333200 
 4427              	.LASF40:
 4428 0354 4144435F 		.ascii	"ADC_DelSig_2_InitConfig\000"
 4428      44656C53 
 4428      69675F32 
 4428      5F496E69 
 4428      74436F6E 
 4429              	.LASF60:
 4430 036c 4144435F 		.ascii	"ADC_DelSig_2_GetResult8\000"
 4430      44656C53 
 4430      69675F32 
 4430      5F476574 
 4430      52657375 
 4431              	.LASF23:
 4432 0384 73697A65 		.ascii	"sizetype\000"
 4432      74797065 
 4432      00
 4433              	.LASF84:
 4434 038d 4144435F 		.ascii	"ADC_DelSig_2_convDone\000"
 4434      44656C53 
 4434      69675F32 
 4434      5F636F6E 
 4434      76446F6E 
 4435              	.LASF22:
 4436 03a3 6C6F6E67 		.ascii	"long double\000"
 4436      20646F75 
 4436      626C6500 
 4437              	.LASF86:
 4438 03af 4144435F 		.ascii	"ADC_DelSig_2_started\000"
 4438      44656C53 
 4438      69675F32 
 4438      5F737461 
 4438      72746564 
 4439              	.LASF103:
ARM GAS  C:\Users\vboxuser\AppData\Local\Temp\ccKqkYuE.s 			page 118


 4440 03c4 5A3A5C53 		.ascii	"Z:\\SDHD_Lab\\SDHD_Lab\\Matlab_FFT.cydsn\000"
 4440      4448445F 
 4440      4C61625C 
 4440      53444844 
 4440      5F4C6162 
 4441              	.LASF56:
 4442 03ea 4144435F 		.ascii	"ADC_DelSig_2_StartConvert\000"
 4442      44656C53 
 4442      69675F32 
 4442      5F537461 
 4442      7274436F 
 4443              	.LASF49:
 4444 0404 636F6865 		.ascii	"coherency\000"
 4444      72656E63 
 4444      7900
 4445              	.LASF100:
 4446 040e 4379496E 		.ascii	"CyIntSetPriority\000"
 4446      74536574 
 4446      5072696F 
 4446      72697479 
 4446      00
 4447              	.LASF46:
 4448 041f 6761696E 		.ascii	"gain\000"
 4448      00
 4449              	.LASF0:
 4450 0424 666C6F61 		.ascii	"float\000"
 4450      7400
 4451              	.LASF37:
 4452 042a 4144435F 		.ascii	"ADC_DelSig_2_SetDSMRef0Reg\000"
 4452      44656C53 
 4452      69675F32 
 4452      5F536574 
 4452      44534D52 
 4453              	.LASF48:
 4454 0445 4144435F 		.ascii	"ADC_DelSig_2_SetCoherency\000"
 4454      44656C53 
 4454      69675F32 
 4454      5F536574 
 4454      436F6865 
 4455              	.LASF98:
 4456 045f 4144435F 		.ascii	"ADC_DelSig_2_Ext_CP_Clk_SetModeRegister\000"
 4456      44656C53 
 4456      69675F32 
 4456      5F457874 
 4456      5F43505F 
 4457              	.LASF68:
 4458 0487 4144435F 		.ascii	"ADC_DelSig_2_CountsTo_mVolts\000"
 4458      44656C53 
 4458      69675F32 
 4458      5F436F75 
 4458      6E747354 
 4459              	.LASF19:
 4460 04a4 72656738 		.ascii	"reg8\000"
 4460      00
 4461              	.LASF80:
 4462 04a9 4144435F 		.ascii	"ADC_DelSig_2_Read16\000"
 4462      44656C53 
ARM GAS  C:\Users\vboxuser\AppData\Local\Temp\ccKqkYuE.s 			page 119


 4462      69675F32 
 4462      5F526561 
 4462      64313600 
 4463              	.LASF28:
 4464 04bd 69646561 		.ascii	"idealDecGain\000"
 4464      6C446563 
 4464      4761696E 
 4464      00
 4465              	.LASF33:
 4466 04ca 6E6F726D 		.ascii	"normalised\000"
 4466      616C6973 
 4466      656400
 4467              	.LASF90:
 4468 04d5 43794861 		.ascii	"CyHalt\000"
 4468      6C7400
 4469              	.LASF2:
 4470 04dc 756E7369 		.ascii	"unsigned char\000"
 4470      676E6564 
 4470      20636861 
 4470      7200
 4471              	.LASF3:
 4472 04ea 73686F72 		.ascii	"short int\000"
 4472      7420696E 
 4472      7400
 4473              	.LASF67:
 4474 04f4 61646347 		.ascii	"adcGain\000"
 4474      61696E00 
 4475              	.LASF35:
 4476 04fc 67636F72 		.ascii	"gcorTmp\000"
 4476      546D7000 
 4477              	.LASF102:
 4478 0504 47656E65 		.ascii	"Generated_Source\\PSoC5\\ADC_DelSig_2.c\000"
 4478      72617465 
 4478      645F536F 
 4478      75726365 
 4478      5C50536F 
 4479              	.LASF101:
 4480 052a 474E5520 		.ascii	"GNU C11 5.4.1 20160609 (release) [ARM/embedded-5-br"
 4480      43313120 
 4480      352E342E 
 4480      31203230 
 4480      31363036 
 4481 055d 616E6368 		.ascii	"anch revision 237715] -mcpu=cortex-m3 -mthumb -g -O"
 4481      20726576 
 4481      6973696F 
 4481      6E203233 
 4481      37373135 
 4482 0590 67202D66 		.ascii	"g -ffunction-sections -ffat-lto-objects\000"
 4482      66756E63 
 4482      74696F6E 
 4482      2D736563 
 4482      74696F6E 
 4483              	.LASF42:
 4484 05b8 4144435F 		.ascii	"ADC_DelSig_2_Enable\000"
 4484      44656C53 
 4484      69675F32 
 4484      5F456E61 
ARM GAS  C:\Users\vboxuser\AppData\Local\Temp\ccKqkYuE.s 			page 120


 4484      626C6500 
 4485              	.LASF30:
 4486 05cc 7265736F 		.ascii	"resolution\000"
 4486      6C757469 
 4486      6F6E00
 4487              	.LASF75:
 4488 05d7 636F6566 		.ascii	"coefA\000"
 4488      4100
 4489              	.LASF76:
 4490 05dd 636F6566 		.ascii	"coefB\000"
 4490      4200
 4491              	.LASF62:
 4492 05e3 4144435F 		.ascii	"ADC_DelSig_2_GetResult16\000"
 4492      44656C53 
 4492      69675F32 
 4492      5F476574 
 4492      52657375 
 4493              	.LASF18:
 4494 05fc 63686172 		.ascii	"char\000"
 4494      00
 4495              	.LASF55:
 4496 0601 6756616C 		.ascii	"gValue\000"
 4496      756500
 4497              	.LASF31:
 4498 0608 636F6E66 		.ascii	"config\000"
 4498      696700
 4499              	.LASF25:
 4500 060f 6776616C 		.ascii	"gval\000"
 4500      00
 4501              	.LASF83:
 4502 0614 4144435F 		.ascii	"ADC_DelSig_2_initVar\000"
 4502      44656C53 
 4502      69675F32 
 4502      5F696E69 
 4502      74566172 
 4503              	.LASF78:
 4504 0629 72657374 		.ascii	"restart\000"
 4504      61727400 
 4505              	.LASF52:
 4506 0631 746D7056 		.ascii	"tmpValue\000"
 4506      616C7565 
 4506      00
 4507              	.LASF65:
 4508 063a 6F666673 		.ascii	"offset\000"
 4508      657400
 4509              	.LASF69:
 4510 0641 61646343 		.ascii	"adcCounts\000"
 4510      6F756E74 
 4510      7300
 4511              	.LASF58:
 4512 064b 4144435F 		.ascii	"ADC_DelSig_2_IsEndConversion\000"
 4512      44656C53 
 4512      69675F32 
 4512      5F497345 
 4512      6E64436F 
 4513              	.LASF39:
 4514 0668 656E6162 		.ascii	"enableInterrupts\000"
ARM GAS  C:\Users\vboxuser\AppData\Local\Temp\ccKqkYuE.s 			page 121


 4514      6C65496E 
 4514      74657272 
 4514      75707473 
 4514      00
 4515              	.LASF51:
 4516 0679 73746174 		.ascii	"status\000"
 4516      757300
 4517              	.LASF81:
 4518 0680 4144435F 		.ascii	"ADC_DelSig_2_Read32\000"
 4518      44656C53 
 4518      69675F32 
 4518      5F526561 
 4518      64333200 
 4519              	.LASF50:
 4520 0694 6761696E 		.ascii	"gainAdjust\000"
 4520      41646A75 
 4520      737400
 4521              	.LASF14:
 4522 069f 696E7431 		.ascii	"int16\000"
 4522      3600
 4523              	.LASF89:
 4524 06a5 4144435F 		.ascii	"ADC_DelSig_2_CountsPerVolt\000"
 4524      44656C53 
 4524      69675F32 
 4524      5F436F75 
 4524      6E747350 
 4525              	.LASF96:
 4526 06c0 4144435F 		.ascii	"ADC_DelSig_2_theACLK_SetDividerRegister\000"
 4526      44656C53 
 4526      69675F32 
 4526      5F746865 
 4526      41434C4B 
 4527              	.LASF47:
 4528 06e8 746D7052 		.ascii	"tmpReg\000"
 4528      656700
 4529              	.LASF61:
 4530 06ef 72657375 		.ascii	"result\000"
 4530      6C7400
 4531              	.LASF41:
 4532 06f6 4144435F 		.ascii	"ADC_DelSig_2_Init\000"
 4532      44656C53 
 4532      69675F32 
 4532      5F496E69 
 4532      7400
 4533              	.LASF54:
 4534 0708 4144435F 		.ascii	"ADC_DelSig_2_ReadGCOR\000"
 4534      44656C53 
 4534      69675F32 
 4534      5F526561 
 4534      6447434F 
 4535              		.ident	"GCC: (GNU Tools for ARM Embedded Processors) 5.4.1 20160609 (release) [ARM/embedded-5-bran
