ARM GAS  C:\Users\vboxuser\AppData\Local\Temp\ccFMiyuA.s 			page 1


   1              		.syntax unified
   2              		.cpu cortex-m3
   3              		.fpu softvfp
   4              		.eabi_attribute 20, 1
   5              		.eabi_attribute 21, 1
   6              		.eabi_attribute 23, 3
   7              		.eabi_attribute 24, 1
   8              		.eabi_attribute 25, 1
   9              		.eabi_attribute 26, 1
  10              		.eabi_attribute 30, 1
  11              		.eabi_attribute 34, 1
  12              		.eabi_attribute 18, 4
  13              		.thumb
  14              		.syntax unified
  15              		.file	"main.c"
  16              		.text
  17              	.Ltext0:
  18              		.cfi_sections	.debug_frame
  19              		.section	.text.isr_button_handler,"ax",%progbits
  20              		.align	2
  21              		.global	isr_button_handler
  22              		.thumb
  23              		.thumb_func
  24              		.type	isr_button_handler, %function
  25              	isr_button_handler:
  26              	.LFB69:
  27              		.file 1 "asw\\main.c"
   1:asw/main.c    **** /* ========================================
   2:asw/main.c    ****  *
   3:asw/main.c    ****  * Copyright YOUR COMPANY, THE YEAR
   4:asw/main.c    ****  * All Rights Reserved
   5:asw/main.c    ****  * UNPUBLISHED, LICENSED SOFTWARE.0
   6:asw/main.c    ****  *
   7:asw/main.c    ****  * CONFIDENTIAL AND PROPRIETARY INFORMATION
   8:asw/main.c    ****  * WHICH IS THE PROPERTY OF your company.
   9:asw/main.c    ****  *
  10:asw/main.c    ****  * ========================================
  11:asw/main.c    **** */
  12:asw/main.c    **** #include "project.h"
  13:asw/main.c    **** #include "global.h"
  14:asw/main.c    **** #include "led.h"
  15:asw/main.c    **** #include "logging.h"
  16:asw/main.c    **** #include <stdio.h>
  17:asw/main.c    **** #include <stdlib.h>
  18:asw/main.c    **** 
  19:asw/main.c    **** 
  20:asw/main.c    **** #define NUMBER_OF_TRANSFER 10
  21:asw/main.c    **** #define NUMBER_OF_SAMPLE 1024
  22:asw/main.c    **** typedef enum{
  23:asw/main.c    ****     IDLE,
  24:asw/main.c    ****     SAMPLING,
  25:asw/main.c    ****     UART_TRANSFER
  26:asw/main.c    **** }state_t;
  27:asw/main.c    **** 
  28:asw/main.c    **** typedef enum{
  29:asw/main.c    ****     NONE,
  30:asw/main.c    ****     RX_SAMPLING,
ARM GAS  C:\Users\vboxuser\AppData\Local\Temp\ccFMiyuA.s 			page 2


  31:asw/main.c    ****     RX_DONE,
  32:asw/main.c    **** }uartStatus_t;
  33:asw/main.c    **** 
  34:asw/main.c    **** 
  35:asw/main.c    **** typedef struct
  36:asw/main.c    **** {
  37:asw/main.c    ****     uint8_t count;
  38:asw/main.c    ****     int16_t sensor_data[NUMBER_OF_SAMPLE];
  39:asw/main.c    ****     state_t currentState;
  40:asw/main.c    ****     uartStatus_t uartStatus;
  41:asw/main.c    **** }shield_data_t;
  42:asw/main.c    **** 
  43:asw/main.c    **** 
  44:asw/main.c    **** static shield_data_t shieldData;
  45:asw/main.c    **** 
  46:asw/main.c    **** 
  47:asw/main.c    **** 
  48:asw/main.c    **** CY_ISR_PROTO(isr_button_handler);
  49:asw/main.c    **** 
  50:asw/main.c    **** CY_ISR_PROTO(isr_rx_handler);
  51:asw/main.c    **** 
  52:asw/main.c    **** 
  53:asw/main.c    **** /* Defines for DMA_ADC */
  54:asw/main.c    **** #define DMA_ADC_BYTES_PER_BURST 2
  55:asw/main.c    **** #define DMA_ADC_REQUEST_PER_BURST 1
  56:asw/main.c    **** #define DMA_ADC_SRC_BASE (CYDEV_PERIPH_BASE)
  57:asw/main.c    **** #define DMA_ADC_DST_BASE (CYDEV_SRAM_BASE)
  58:asw/main.c    **** 
  59:asw/main.c    **** /* Variable declarations for DMA_ADC */
  60:asw/main.c    **** /* Move these variable declarations to the top of the function */
  61:asw/main.c    **** 
  62:asw/main.c    **** uint8 DMA_ADC_Chan;
  63:asw/main.c    **** uint8 DMA_ADC_TD[1];
  64:asw/main.c    **** 
  65:asw/main.c    **** void DMA_Config(){
  66:asw/main.c    **** 
  67:asw/main.c    **** 
  68:asw/main.c    ****     /* DMA Configuration for DMA_ADC */
  69:asw/main.c    **** 
  70:asw/main.c    ****     DMA_ADC_Chan = DMA_ADC_DmaInitialize(DMA_ADC_BYTES_PER_BURST, DMA_ADC_REQUEST_PER_BURST, 
  71:asw/main.c    ****         HI16(DMA_ADC_SRC_BASE), HI16(DMA_ADC_DST_BASE));
  72:asw/main.c    **** 
  73:asw/main.c    ****     DMA_ADC_TD[0] = CyDmaTdAllocate();
  74:asw/main.c    **** 
  75:asw/main.c    ****     CyDmaTdSetConfiguration(DMA_ADC_TD[0], 2048, CY_DMA_DISABLE_TD, DMA_ADC__TD_TERMOUT_EN | CY_DMA
  76:asw/main.c    **** 
  77:asw/main.c    ****     CyDmaTdSetAddress(DMA_ADC_TD[0], LO16((uint32)ADC_DEC_SAMP_PTR), LO16((uint32)shieldData.sensor
  78:asw/main.c    ****     CyDmaChSetInitialTd(DMA_ADC_Chan, DMA_ADC_TD[0]);
  79:asw/main.c    ****     
  80:asw/main.c    **** }
  81:asw/main.c    **** 
  82:asw/main.c    **** 
  83:asw/main.c    **** 
  84:asw/main.c    **** void shieldInit(){
  85:asw/main.c    **** 
  86:asw/main.c    ****    shieldData.currentState = IDLE;
  87:asw/main.c    ****    shieldData.count = 1;
ARM GAS  C:\Users\vboxuser\AppData\Local\Temp\ccFMiyuA.s 			page 3


  88:asw/main.c    ****    shieldData.uartStatus= NONE;
  89:asw/main.c    ****    for (int16_t i=0; i< NUMBER_OF_SAMPLE; i++){
  90:asw/main.c    ****     shieldData.sensor_data[i] =0;    
  91:asw/main.c    ****     }
  92:asw/main.c    **** 
  93:asw/main.c    **** }
  94:asw/main.c    **** 
  95:asw/main.c    **** 
  96:asw/main.c    **** // Interrupt handler
  97:asw/main.c    **** CY_ISR(isr_button_handler)
  98:asw/main.c    **** {
  28              		.loc 1 98 0
  29              		.cfi_startproc
  30              		@ args = 0, pretend = 0, frame = 0
  31              		@ frame_needed = 0, uses_anonymous_args = 0
  32 0000 08B5     		push	{r3, lr}
  33              		.cfi_def_cfa_offset 8
  34              		.cfi_offset 3, -8
  35              		.cfi_offset 14, -4
  99:asw/main.c    ****     Button_ClearInterrupt();
  36              		.loc 1 99 0
  37 0002 FFF7FEFF 		bl	Button_ClearInterrupt
  38              	.LVL0:
 100:asw/main.c    ****     
 101:asw/main.c    ****     if(shieldData.currentState == IDLE)
  39              		.loc 1 101 0
  40 0006 054B     		ldr	r3, .L4
  41 0008 93F80238 		ldrb	r3, [r3, #2050]	@ zero_extendqisi2
  42 000c 1BB9     		cbnz	r3, .L2
 102:asw/main.c    ****         shieldData.currentState = SAMPLING;
  43              		.loc 1 102 0
  44 000e 0122     		movs	r2, #1
  45 0010 024B     		ldr	r3, .L4
  46 0012 83F80228 		strb	r2, [r3, #2050]
  47              	.L2:
 103:asw/main.c    ****     isr_button_ClearPending();
  48              		.loc 1 103 0
  49 0016 FFF7FEFF 		bl	isr_button_ClearPending
  50              	.LVL1:
  51 001a 08BD     		pop	{r3, pc}
  52              	.L5:
  53              		.align	2
  54              	.L4:
  55 001c 00000000 		.word	.LANCHOR0
  56              		.cfi_endproc
  57              	.LFE69:
  58              		.size	isr_button_handler, .-isr_button_handler
  59              		.section	.text.isr_rx_handler,"ax",%progbits
  60              		.align	2
  61              		.global	isr_rx_handler
  62              		.thumb
  63              		.thumb_func
  64              		.type	isr_rx_handler, %function
  65              	isr_rx_handler:
  66              	.LFB70:
 104:asw/main.c    **** }
 105:asw/main.c    **** 
ARM GAS  C:\Users\vboxuser\AppData\Local\Temp\ccFMiyuA.s 			page 4


 106:asw/main.c    **** 
 107:asw/main.c    **** // UART RX Interrupt
 108:asw/main.c    **** CY_ISR(isr_rx_handler)
 109:asw/main.c    **** {
  67              		.loc 1 109 0
  68              		.cfi_startproc
  69              		@ args = 0, pretend = 0, frame = 0
  70              		@ frame_needed = 0, uses_anonymous_args = 0
  71 0000 08B5     		push	{r3, lr}
  72              		.cfi_def_cfa_offset 8
  73              		.cfi_offset 3, -8
  74              		.cfi_offset 14, -4
 110:asw/main.c    ****     uint8 rxRead = UART_LOG_ReadRxData();
  75              		.loc 1 110 0
  76 0002 FFF7FEFF 		bl	UART_LOG_ReadRxData
  77              	.LVL2:
 111:asw/main.c    ****     if (rxRead == 's')
  78              		.loc 1 111 0
  79 0006 7328     		cmp	r0, #115
  80 0008 03D1     		bne	.L7
 112:asw/main.c    ****     {
 113:asw/main.c    ****         shieldData.uartStatus= RX_SAMPLING;
  81              		.loc 1 113 0
  82 000a 0122     		movs	r2, #1
  83 000c 044B     		ldr	r3, .L10
  84 000e 83F80328 		strb	r2, [r3, #2051]
  85              	.L7:
 114:asw/main.c    ****     }
 115:asw/main.c    ****     if (rxRead =='o')
  86              		.loc 1 115 0
  87 0012 6F28     		cmp	r0, #111
  88 0014 03D1     		bne	.L6
 116:asw/main.c    ****     {
 117:asw/main.c    ****        shieldData.uartStatus = RX_DONE;
  89              		.loc 1 117 0
  90 0016 0222     		movs	r2, #2
  91 0018 014B     		ldr	r3, .L10
  92 001a 83F80328 		strb	r2, [r3, #2051]
  93              	.L6:
  94 001e 08BD     		pop	{r3, pc}
  95              	.L11:
  96              		.align	2
  97              	.L10:
  98 0020 00000000 		.word	.LANCHOR0
  99              		.cfi_endproc
 100              	.LFE70:
 101              		.size	isr_rx_handler, .-isr_rx_handler
 102              		.section	.text.DMA_Config,"ax",%progbits
 103              		.align	2
 104              		.global	DMA_Config
 105              		.thumb
 106              		.thumb_func
 107              		.type	DMA_Config, %function
 108              	DMA_Config:
 109              	.LFB67:
  65:asw/main.c    **** 
 110              		.loc 1 65 0
ARM GAS  C:\Users\vboxuser\AppData\Local\Temp\ccFMiyuA.s 			page 5


 111              		.cfi_startproc
 112              		@ args = 0, pretend = 0, frame = 0
 113              		@ frame_needed = 0, uses_anonymous_args = 0
 114 0000 38B5     		push	{r3, r4, r5, lr}
 115              		.cfi_def_cfa_offset 16
 116              		.cfi_offset 3, -16
 117              		.cfi_offset 4, -12
 118              		.cfi_offset 5, -8
 119              		.cfi_offset 14, -4
  70:asw/main.c    ****         HI16(DMA_ADC_SRC_BASE), HI16(DMA_ADC_DST_BASE));
 120              		.loc 1 70 0
 121 0002 41F6FF73 		movw	r3, #8191
 122 0006 4FF48042 		mov	r2, #16384
 123 000a 0121     		movs	r1, #1
 124 000c 0220     		movs	r0, #2
 125 000e FFF7FEFF 		bl	DMA_ADC_DmaInitialize
 126              	.LVL3:
 127 0012 0C4D     		ldr	r5, .L14
 128 0014 2870     		strb	r0, [r5]
  73:asw/main.c    **** 
 129              		.loc 1 73 0
 130 0016 FFF7FEFF 		bl	CyDmaTdAllocate
 131              	.LVL4:
 132 001a 0B4C     		ldr	r4, .L14+4
 133 001c 2070     		strb	r0, [r4]
  75:asw/main.c    **** 
 134              		.loc 1 75 0
 135 001e 0623     		movs	r3, #6
 136 0020 FE22     		movs	r2, #254
 137 0022 4FF40061 		mov	r1, #2048
 138 0026 FFF7FEFF 		bl	CyDmaTdSetConfiguration
 139              	.LVL5:
  77:asw/main.c    ****     CyDmaChSetInitialTd(DMA_ADC_Chan, DMA_ADC_TD[0]);
 140              		.loc 1 77 0
 141 002a 084A     		ldr	r2, .L14+8
 142 002c 92B2     		uxth	r2, r2
 143 002e 44F61061 		movw	r1, #19984
 144 0032 2078     		ldrb	r0, [r4]	@ zero_extendqisi2
 145 0034 FFF7FEFF 		bl	CyDmaTdSetAddress
 146              	.LVL6:
  78:asw/main.c    ****     
 147              		.loc 1 78 0
 148 0038 2178     		ldrb	r1, [r4]	@ zero_extendqisi2
 149 003a 2878     		ldrb	r0, [r5]	@ zero_extendqisi2
 150 003c FFF7FEFF 		bl	CyDmaChSetInitialTd
 151              	.LVL7:
 152 0040 38BD     		pop	{r3, r4, r5, pc}
 153              	.L15:
 154 0042 00BF     		.align	2
 155              	.L14:
 156 0044 00000000 		.word	DMA_ADC_Chan
 157 0048 00000000 		.word	DMA_ADC_TD
 158 004c 02000000 		.word	.LANCHOR0+2
 159              		.cfi_endproc
 160              	.LFE67:
 161              		.size	DMA_Config, .-DMA_Config
 162              		.section	.text.shieldInit,"ax",%progbits
ARM GAS  C:\Users\vboxuser\AppData\Local\Temp\ccFMiyuA.s 			page 6


 163              		.align	2
 164              		.global	shieldInit
 165              		.thumb
 166              		.thumb_func
 167              		.type	shieldInit, %function
 168              	shieldInit:
 169              	.LFB68:
  84:asw/main.c    **** 
 170              		.loc 1 84 0
 171              		.cfi_startproc
 172              		@ args = 0, pretend = 0, frame = 0
 173              		@ frame_needed = 0, uses_anonymous_args = 0
 174              		@ link register save eliminated.
  86:asw/main.c    ****    shieldData.count = 1;
 175              		.loc 1 86 0
 176 0000 094A     		ldr	r2, .L19
 177 0002 0023     		movs	r3, #0
 178 0004 82F80238 		strb	r3, [r2, #2050]
  87:asw/main.c    ****    shieldData.uartStatus= NONE;
 179              		.loc 1 87 0
 180 0008 0121     		movs	r1, #1
 181 000a 1170     		strb	r1, [r2]
  88:asw/main.c    ****    for (int16_t i=0; i< NUMBER_OF_SAMPLE; i++){
 182              		.loc 1 88 0
 183 000c 82F80338 		strb	r3, [r2, #2051]
 184              	.LVL8:
 185              	.LBB2:
  89:asw/main.c    ****     shieldData.sensor_data[i] =0;    
 186              		.loc 1 89 0
 187 0010 06E0     		b	.L17
 188              	.LVL9:
 189              	.L18:
  90:asw/main.c    ****     }
 190              		.loc 1 90 0 discriminator 3
 191 0012 054A     		ldr	r2, .L19
 192 0014 02EB4302 		add	r2, r2, r3, lsl #1
 193 0018 0021     		movs	r1, #0
 194 001a 5180     		strh	r1, [r2, #2]	@ movhi
  89:asw/main.c    ****     shieldData.sensor_data[i] =0;    
 195              		.loc 1 89 0 discriminator 3
 196 001c 0133     		adds	r3, r3, #1
 197              	.LVL10:
 198 001e 1BB2     		sxth	r3, r3
 199              	.LVL11:
 200              	.L17:
  89:asw/main.c    ****     shieldData.sensor_data[i] =0;    
 201              		.loc 1 89 0 is_stmt 0 discriminator 1
 202 0020 B3F5806F 		cmp	r3, #1024
 203 0024 F5DB     		blt	.L18
 204              	.LBE2:
  93:asw/main.c    **** 
 205              		.loc 1 93 0 is_stmt 1
 206 0026 7047     		bx	lr
 207              	.L20:
 208              		.align	2
 209              	.L19:
 210 0028 00000000 		.word	.LANCHOR0
ARM GAS  C:\Users\vboxuser\AppData\Local\Temp\ccFMiyuA.s 			page 7


 211              		.cfi_endproc
 212              	.LFE68:
 213              		.size	shieldInit, .-shieldInit
 214              		.section	.text.main,"ax",%progbits
 215              		.align	2
 216              		.global	main
 217              		.thumb
 218              		.thumb_func
 219              		.type	main, %function
 220              	main:
 221              	.LFB71:
 118:asw/main.c    ****     }
 119:asw/main.c    **** }
 120:asw/main.c    **** 
 121:asw/main.c    **** 
 122:asw/main.c    **** int main(void)
 123:asw/main.c    **** {
 222              		.loc 1 123 0
 223              		.cfi_startproc
 224              		@ args = 0, pretend = 0, frame = 0
 225              		@ frame_needed = 0, uses_anonymous_args = 0
 226 0000 38B5     		push	{r3, r4, r5, lr}
 227              		.cfi_def_cfa_offset 16
 228              		.cfi_offset 3, -16
 229              		.cfi_offset 4, -12
 230              		.cfi_offset 5, -8
 231              		.cfi_offset 14, -4
 124:asw/main.c    ****     CyGlobalIntEnable; /* Enable global interrupts. */
 232              		.loc 1 124 0
 233              		.syntax unified
 234              	@ 124 "asw\main.c" 1
 235 0002 62B6     		CPSIE   i
 236              	@ 0 "" 2
 125:asw/main.c    ****     WaveDAC8_Start();
 237              		.loc 1 125 0
 238              		.thumb
 239              		.syntax unified
 240 0004 FFF7FEFF 		bl	WaveDAC8_Start
 241              	.LVL12:
 126:asw/main.c    ****     WaveDAC8_Enable(); 
 242              		.loc 1 126 0
 243 0008 FFF7FEFF 		bl	WaveDAC8_Enable
 244              	.LVL13:
 127:asw/main.c    ****     
 128:asw/main.c    ****     // Assign Interrupt
 129:asw/main.c    ****     isr_button_StartEx(isr_button_handler);
 245              		.loc 1 129 0
 246 000c 3B48     		ldr	r0, .L32
 247 000e FFF7FEFF 		bl	isr_button_StartEx
 248              	.LVL14:
 130:asw/main.c    ****     isr_rx_StartEx(isr_rx_handler);
 249              		.loc 1 130 0
 250 0012 3B48     		ldr	r0, .L32+4
 251 0014 FFF7FEFF 		bl	isr_rx_StartEx
 252              	.LVL15:
 131:asw/main.c    ****     
 132:asw/main.c    ****     ADC_Start();
ARM GAS  C:\Users\vboxuser\AppData\Local\Temp\ccFMiyuA.s 			page 8


 253              		.loc 1 132 0
 254 0018 FFF7FEFF 		bl	ADC_Start
 255              	.LVL16:
 133:asw/main.c    ****     
 134:asw/main.c    ****     LED_Init();
 256              		.loc 1 134 0
 257 001c FFF7FEFF 		bl	LED_Init
 258              	.LVL17:
 135:asw/main.c    **** 
 136:asw/main.c    ****     LOG_Init();
 259              		.loc 1 136 0
 260 0020 FFF7FEFF 		bl	LOG_Init
 261              	.LVL18:
 137:asw/main.c    ****     shieldInit();
 262              		.loc 1 137 0
 263 0024 FFF7FEFF 		bl	shieldInit
 264              	.LVL19:
 138:asw/main.c    **** 
 139:asw/main.c    ****     DMA_Config();
 265              		.loc 1 139 0
 266 0028 FFF7FEFF 		bl	DMA_Config
 267              	.LVL20:
 268              	.L23:
 140:asw/main.c    ****     /* Place your initialization/startup code here (e.g. MyInst_Start()) */
 141:asw/main.c    ****     
 142:asw/main.c    ****     for(;;)
 143:asw/main.c    ****     {
 144:asw/main.c    ****         /* Place your application code here. */
 145:asw/main.c    **** 
 146:asw/main.c    ****         switch(shieldData.currentState){
 269              		.loc 1 146 0
 270 002c 354B     		ldr	r3, .L32+8
 271 002e 93F80238 		ldrb	r3, [r3, #2050]	@ zero_extendqisi2
 272 0032 012B     		cmp	r3, #1
 273 0034 08D0     		beq	.L24
 274 0036 13B1     		cbz	r3, .L25
 275 0038 022B     		cmp	r3, #2
 276 003a 27D0     		beq	.L26
 277 003c F6E7     		b	.L23
 278              	.L25:
 147:asw/main.c    ****             
 148:asw/main.c    ****         case IDLE:
 149:asw/main.c    **** 
 150:asw/main.c    ****             LED_Set(LED_GREEN, 1);
 279              		.loc 1 150 0
 280 003e 0121     		movs	r1, #1
 281 0040 0220     		movs	r0, #2
 282 0042 FFF7FEFF 		bl	LED_Set
 283              	.LVL21:
 151:asw/main.c    ****             break;
 284              		.loc 1 151 0
 285 0046 F1E7     		b	.L23
 286              	.L24:
 152:asw/main.c    ****         case SAMPLING:
 153:asw/main.c    ****             LED_Set(LED_YELLOW, 1);
 287              		.loc 1 153 0
 288 0048 0121     		movs	r1, #1
ARM GAS  C:\Users\vboxuser\AppData\Local\Temp\ccFMiyuA.s 			page 9


 289 004a 0846     		mov	r0, r1
 290 004c FFF7FEFF 		bl	LED_Set
 291              	.LVL22:
 154:asw/main.c    ****             ADC_StartConvert();
 292              		.loc 1 154 0
 293 0050 FFF7FEFF 		bl	ADC_StartConvert
 294              	.LVL23:
 155:asw/main.c    ****             CyDmaChEnable(DMA_ADC_Chan, 1);
 295              		.loc 1 155 0
 296 0054 0121     		movs	r1, #1
 297 0056 2C4B     		ldr	r3, .L32+12
 298 0058 1878     		ldrb	r0, [r3]	@ zero_extendqisi2
 299 005a FFF7FEFF 		bl	CyDmaChEnable
 300              	.LVL24:
 156:asw/main.c    **** 
 157:asw/main.c    ****             if (Status_Reg_1_Read()){
 301              		.loc 1 157 0
 302 005e FFF7FEFF 		bl	Status_Reg_1_Read
 303              	.LVL25:
 304 0062 0028     		cmp	r0, #0
 305 0064 E2D0     		beq	.L23
 158:asw/main.c    ****                     LED_Set(LED_YELLOW, 0);
 306              		.loc 1 158 0
 307 0066 0021     		movs	r1, #0
 308 0068 0120     		movs	r0, #1
 309 006a FFF7FEFF 		bl	LED_Set
 310              	.LVL26:
 159:asw/main.c    ****                     // When DMA transfer finished , turn on DMA Channel 
 160:asw/main.c    ****                     // Switch to next stage       
 161:asw/main.c    ****                     ADC_StopConvert();
 311              		.loc 1 161 0
 312 006e FFF7FEFF 		bl	ADC_StopConvert
 313              	.LVL27:
 162:asw/main.c    ****                     CyDmaChDisable(DMA_ADC_Chan);
 314              		.loc 1 162 0
 315 0072 254B     		ldr	r3, .L32+12
 316 0074 1878     		ldrb	r0, [r3]	@ zero_extendqisi2
 317 0076 FFF7FEFF 		bl	CyDmaChDisable
 318              	.LVL28:
 163:asw/main.c    ****                     shieldData.currentState = UART_TRANSFER;
 319              		.loc 1 163 0
 320 007a 0222     		movs	r2, #2
 321 007c 214B     		ldr	r3, .L32+8
 322 007e 83F80228 		strb	r2, [r3, #2050]
 164:asw/main.c    ****                     LED_Set(LED_YELLOW, 1);
 323              		.loc 1 164 0
 324 0082 0121     		movs	r1, #1
 325 0084 0846     		mov	r0, r1
 326 0086 FFF7FEFF 		bl	LED_Set
 327              	.LVL29:
 328 008a CFE7     		b	.L23
 329              	.L26:
 165:asw/main.c    ****    
 166:asw/main.c    ****             }
 167:asw/main.c    **** 
 168:asw/main.c    ****             
 169:asw/main.c    ****             break;
ARM GAS  C:\Users\vboxuser\AppData\Local\Temp\ccFMiyuA.s 			page 10


 170:asw/main.c    ****         case UART_TRANSFER:
 171:asw/main.c    ****   
 172:asw/main.c    ****                 if((shieldData.count <= 10) && (shieldData.uartStatus == RX_SAMPLING))
 330              		.loc 1 172 0
 331 008c 1D4B     		ldr	r3, .L32+8
 332 008e 1B78     		ldrb	r3, [r3]	@ zero_extendqisi2
 333 0090 0A2B     		cmp	r3, #10
 334 0092 20D8     		bhi	.L28
 335              		.loc 1 172 0 is_stmt 0 discriminator 1
 336 0094 1B4B     		ldr	r3, .L32+8
 337 0096 93F80338 		ldrb	r3, [r3, #2051]	@ zero_extendqisi2
 338 009a 012B     		cmp	r3, #1
 339 009c 1BD1     		bne	.L28
 173:asw/main.c    ****                 {
 174:asw/main.c    ****                     shieldData.currentState = SAMPLING;
 340              		.loc 1 174 0 is_stmt 1
 341 009e 194C     		ldr	r4, .L32+8
 342 00a0 0121     		movs	r1, #1
 343 00a2 84F80218 		strb	r1, [r4, #2050]
 175:asw/main.c    ****                     LED_Set(LED_RED, 1);
 344              		.loc 1 175 0
 345 00a6 0020     		movs	r0, #0
 346 00a8 FFF7FEFF 		bl	LED_Set
 347              	.LVL30:
 176:asw/main.c    ****                     shieldData.uartStatus = NONE;
 348              		.loc 1 176 0
 349 00ac 0025     		movs	r5, #0
 350 00ae 84F80358 		strb	r5, [r4, #2051]
 351              	.LVL31:
 352              	.LBB3:
 177:asw/main.c    ****                     for(int i = 0; i < NUMBER_OF_SAMPLE; i++){
 353              		.loc 1 177 0
 354 00b2 09E0     		b	.L29
 355              	.LVL32:
 356              	.L30:
 178:asw/main.c    ****                         // Transfer lowest 8 bit
 179:asw/main.c    ****                         UART_LOG_PutChar(shieldData.sensor_data[i] & 0xFF);
 357              		.loc 1 179 0 discriminator 3
 358 00b4 134C     		ldr	r4, .L32+8
 359 00b6 04EB4504 		add	r4, r4, r5, lsl #1
 360 00ba A078     		ldrb	r0, [r4, #2]	@ zero_extendqisi2
 361 00bc FFF7FEFF 		bl	UART_LOG_PutChar
 362              	.LVL33:
 180:asw/main.c    ****                         // Shift to the right 8 bit, and write the rest to UART
 181:asw/main.c    ****                         UART_LOG_PutChar(shieldData.sensor_data[i]>>8);
 363              		.loc 1 181 0 discriminator 3
 364 00c0 E078     		ldrb	r0, [r4, #3]	@ zero_extendqisi2
 365 00c2 FFF7FEFF 		bl	UART_LOG_PutChar
 366              	.LVL34:
 177:asw/main.c    ****                         // Transfer lowest 8 bit
 367              		.loc 1 177 0 discriminator 3
 368 00c6 0135     		adds	r5, r5, #1
 369              	.LVL35:
 370              	.L29:
 177:asw/main.c    ****                         // Transfer lowest 8 bit
 371              		.loc 1 177 0 is_stmt 0 discriminator 1
 372 00c8 B5F5806F 		cmp	r5, #1024
ARM GAS  C:\Users\vboxuser\AppData\Local\Temp\ccFMiyuA.s 			page 11


 373 00cc F2DB     		blt	.L30
 374              	.LBE3:
 182:asw/main.c    ****                     }
 183:asw/main.c    ****                     shieldData.count++;
 375              		.loc 1 183 0 is_stmt 1
 376 00ce 0D4A     		ldr	r2, .L32+8
 377 00d0 1378     		ldrb	r3, [r2]	@ zero_extendqisi2
 378 00d2 0133     		adds	r3, r3, #1
 379 00d4 1370     		strb	r3, [r2]
 380              	.LVL36:
 381              	.L28:
 184:asw/main.c    ****                     
 185:asw/main.c    ****                 }
 186:asw/main.c    **** 
 187:asw/main.c    ****                 
 188:asw/main.c    ****                 if((shieldData.count  == 11) && (shieldData.uartStatus == RX_DONE)){
 382              		.loc 1 188 0
 383 00d6 0B4B     		ldr	r3, .L32+8
 384 00d8 1B78     		ldrb	r3, [r3]	@ zero_extendqisi2
 385 00da 0B2B     		cmp	r3, #11
 386 00dc A6D1     		bne	.L23
 387              		.loc 1 188 0 is_stmt 0 discriminator 1
 388 00de 094B     		ldr	r3, .L32+8
 389 00e0 93F80338 		ldrb	r3, [r3, #2051]	@ zero_extendqisi2
 390 00e4 022B     		cmp	r3, #2
 391 00e6 A1D1     		bne	.L23
 189:asw/main.c    ****                     
 190:asw/main.c    ****                     shieldData.currentState = IDLE;
 392              		.loc 1 190 0 is_stmt 1
 393 00e8 064B     		ldr	r3, .L32+8
 394 00ea 0022     		movs	r2, #0
 395 00ec 83F80228 		strb	r2, [r3, #2050]
 191:asw/main.c    ****                     shieldData.uartStatus = NONE;
 396              		.loc 1 191 0
 397 00f0 83F80328 		strb	r2, [r3, #2051]
 192:asw/main.c    ****                     shieldData.count=1;
 398              		.loc 1 192 0
 399 00f4 0122     		movs	r2, #1
 400 00f6 1A70     		strb	r2, [r3]
 401 00f8 98E7     		b	.L23
 402              	.L33:
 403 00fa 00BF     		.align	2
 404              	.L32:
 405 00fc 00000000 		.word	isr_button_handler
 406 0100 00000000 		.word	isr_rx_handler
 407 0104 00000000 		.word	.LANCHOR0
 408 0108 00000000 		.word	DMA_ADC_Chan
 409              		.cfi_endproc
 410              	.LFE71:
 411              		.size	main, .-main
 412              		.comm	DMA_ADC_TD,1,4
 413              		.comm	DMA_ADC_Chan,1,1
 414              		.bss
 415              		.align	2
 416              		.set	.LANCHOR0,. + 0
 417              		.type	shieldData, %object
 418              		.size	shieldData, 2052
ARM GAS  C:\Users\vboxuser\AppData\Local\Temp\ccFMiyuA.s 			page 12


 419              	shieldData:
 420 0000 00000000 		.space	2052
 420      00000000 
 420      00000000 
 420      00000000 
 420      00000000 
 421              		.text
 422              	.Letext0:
 423              		.file 2 "c:\\program files (x86)\\cypress\\psoc creator\\4.4\\psoc creator\\import\\gnu\\arm\\5.4.
 424              		.file 3 "c:\\program files (x86)\\cypress\\psoc creator\\4.4\\psoc creator\\import\\gnu\\arm\\5.4.
 425              		.file 4 "Generated_Source\\PSoC5/cytypes.h"
 426              		.file 5 "Generated_Source\\PSoC5/core_cm3.h"
 427              		.file 6 "Generated_Source\\PSoC5/Button.h"
 428              		.file 7 "Generated_Source\\PSoC5/isr_button.h"
 429              		.file 8 "Generated_Source\\PSoC5/UART_LOG.h"
 430              		.file 9 "Generated_Source\\PSoC5/DMA_ADC_dma.h"
 431              		.file 10 "Generated_Source\\PSoC5/CYDMAC.H"
 432              		.file 11 "Generated_Source\\PSoC5/WaveDAC8.h"
 433              		.file 12 "Generated_Source\\PSoC5/isr_rx.h"
 434              		.file 13 "Generated_Source\\PSoC5/ADC.h"
 435              		.file 14 ".\\bsw/led.h"
 436              		.file 15 ".\\bsw\\Services/logging.h"
 437              		.file 16 "Generated_Source\\PSoC5/Status_Reg_1.h"