ARM GAS  C:\Users\vboxuser\AppData\Local\Temp\ccioFMK3.s 			page 1


   1              		.syntax unified
   2              		.cpu cortex-m3
   3              		.fpu softvfp
   4              		.eabi_attribute 20, 1
   5              		.eabi_attribute 21, 1
   6              		.eabi_attribute 23, 3
   7              		.eabi_attribute 24, 1
   8              		.eabi_attribute 25, 1
   9              		.eabi_attribute 26, 1
  10              		.eabi_attribute 30, 1
  11              		.eabi_attribute 34, 1
  12              		.eabi_attribute 18, 4
  13              		.thumb
  14              		.syntax unified
  15              		.file	"WaveDAC8_BuffAmp.c"
  16              		.text
  17              	.Ltext0:
  18              		.cfi_sections	.debug_frame
  19              		.section	.text.WaveDAC8_BuffAmp_Enable,"ax",%progbits
  20              		.align	2
  21              		.global	WaveDAC8_BuffAmp_Enable
  22              		.thumb
  23              		.thumb_func
  24              		.type	WaveDAC8_BuffAmp_Enable, %function
  25              	WaveDAC8_BuffAmp_Enable:
  26              	.LFB1:
  27              		.file 1 "Generated_Source\\PSoC5\\WaveDAC8_BuffAmp.c"
   1:Generated_Source\PSoC5/WaveDAC8_BuffAmp.c **** /*******************************************************************************
   2:Generated_Source\PSoC5/WaveDAC8_BuffAmp.c **** * File Name: WaveDAC8_BuffAmp.c
   3:Generated_Source\PSoC5/WaveDAC8_BuffAmp.c **** * Version 1.90
   4:Generated_Source\PSoC5/WaveDAC8_BuffAmp.c **** *
   5:Generated_Source\PSoC5/WaveDAC8_BuffAmp.c **** * Description:
   6:Generated_Source\PSoC5/WaveDAC8_BuffAmp.c **** *  This file provides the source code to the API for OpAmp (Analog Buffer) 
   7:Generated_Source\PSoC5/WaveDAC8_BuffAmp.c **** *  Component.
   8:Generated_Source\PSoC5/WaveDAC8_BuffAmp.c **** *
   9:Generated_Source\PSoC5/WaveDAC8_BuffAmp.c **** * Note:
  10:Generated_Source\PSoC5/WaveDAC8_BuffAmp.c **** *
  11:Generated_Source\PSoC5/WaveDAC8_BuffAmp.c **** ********************************************************************************
  12:Generated_Source\PSoC5/WaveDAC8_BuffAmp.c **** * Copyright 2008-2012, Cypress Semiconductor Corporation.  All rights reserved.
  13:Generated_Source\PSoC5/WaveDAC8_BuffAmp.c **** * You may use this file only in accordance with the license, terms, conditions, 
  14:Generated_Source\PSoC5/WaveDAC8_BuffAmp.c **** * disclaimers, and limitations in the end user license agreement accompanying 
  15:Generated_Source\PSoC5/WaveDAC8_BuffAmp.c **** * the software package with which this file was provided.
  16:Generated_Source\PSoC5/WaveDAC8_BuffAmp.c **** *******************************************************************************/
  17:Generated_Source\PSoC5/WaveDAC8_BuffAmp.c **** 
  18:Generated_Source\PSoC5/WaveDAC8_BuffAmp.c **** #include "WaveDAC8_BuffAmp.h"
  19:Generated_Source\PSoC5/WaveDAC8_BuffAmp.c **** 
  20:Generated_Source\PSoC5/WaveDAC8_BuffAmp.c **** uint8 WaveDAC8_BuffAmp_initVar = 0u;
  21:Generated_Source\PSoC5/WaveDAC8_BuffAmp.c **** 
  22:Generated_Source\PSoC5/WaveDAC8_BuffAmp.c **** 
  23:Generated_Source\PSoC5/WaveDAC8_BuffAmp.c **** /*******************************************************************************   
  24:Generated_Source\PSoC5/WaveDAC8_BuffAmp.c **** * Function Name: WaveDAC8_BuffAmp_Init
  25:Generated_Source\PSoC5/WaveDAC8_BuffAmp.c **** ********************************************************************************
  26:Generated_Source\PSoC5/WaveDAC8_BuffAmp.c **** *
  27:Generated_Source\PSoC5/WaveDAC8_BuffAmp.c **** * Summary:
  28:Generated_Source\PSoC5/WaveDAC8_BuffAmp.c **** *  Initialize component's parameters to the parameters set by user in the 
  29:Generated_Source\PSoC5/WaveDAC8_BuffAmp.c **** *  customizer of the component placed onto schematic. Usually called in 
  30:Generated_Source\PSoC5/WaveDAC8_BuffAmp.c **** *  WaveDAC8_BuffAmp_Start().
ARM GAS  C:\Users\vboxuser\AppData\Local\Temp\ccioFMK3.s 			page 2


  31:Generated_Source\PSoC5/WaveDAC8_BuffAmp.c **** *
  32:Generated_Source\PSoC5/WaveDAC8_BuffAmp.c **** * Parameters:
  33:Generated_Source\PSoC5/WaveDAC8_BuffAmp.c **** *  void
  34:Generated_Source\PSoC5/WaveDAC8_BuffAmp.c **** *
  35:Generated_Source\PSoC5/WaveDAC8_BuffAmp.c **** * Return:
  36:Generated_Source\PSoC5/WaveDAC8_BuffAmp.c **** *  void
  37:Generated_Source\PSoC5/WaveDAC8_BuffAmp.c **** *
  38:Generated_Source\PSoC5/WaveDAC8_BuffAmp.c **** *******************************************************************************/
  39:Generated_Source\PSoC5/WaveDAC8_BuffAmp.c **** void WaveDAC8_BuffAmp_Init(void) 
  40:Generated_Source\PSoC5/WaveDAC8_BuffAmp.c **** {
  41:Generated_Source\PSoC5/WaveDAC8_BuffAmp.c ****     WaveDAC8_BuffAmp_SetPower(WaveDAC8_BuffAmp_DEFAULT_POWER);
  42:Generated_Source\PSoC5/WaveDAC8_BuffAmp.c **** }
  43:Generated_Source\PSoC5/WaveDAC8_BuffAmp.c **** 
  44:Generated_Source\PSoC5/WaveDAC8_BuffAmp.c **** 
  45:Generated_Source\PSoC5/WaveDAC8_BuffAmp.c **** /*******************************************************************************   
  46:Generated_Source\PSoC5/WaveDAC8_BuffAmp.c **** * Function Name: WaveDAC8_BuffAmp_Enable
  47:Generated_Source\PSoC5/WaveDAC8_BuffAmp.c **** ********************************************************************************
  48:Generated_Source\PSoC5/WaveDAC8_BuffAmp.c **** *
  49:Generated_Source\PSoC5/WaveDAC8_BuffAmp.c **** * Summary:
  50:Generated_Source\PSoC5/WaveDAC8_BuffAmp.c **** *  Enables the OpAmp block operation
  51:Generated_Source\PSoC5/WaveDAC8_BuffAmp.c **** *
  52:Generated_Source\PSoC5/WaveDAC8_BuffAmp.c **** * Parameters:
  53:Generated_Source\PSoC5/WaveDAC8_BuffAmp.c **** *  void
  54:Generated_Source\PSoC5/WaveDAC8_BuffAmp.c **** *
  55:Generated_Source\PSoC5/WaveDAC8_BuffAmp.c **** * Return:
  56:Generated_Source\PSoC5/WaveDAC8_BuffAmp.c **** *  void
  57:Generated_Source\PSoC5/WaveDAC8_BuffAmp.c **** *
  58:Generated_Source\PSoC5/WaveDAC8_BuffAmp.c **** *******************************************************************************/
  59:Generated_Source\PSoC5/WaveDAC8_BuffAmp.c **** void WaveDAC8_BuffAmp_Enable(void) 
  60:Generated_Source\PSoC5/WaveDAC8_BuffAmp.c **** {
  28              		.loc 1 60 0
  29              		.cfi_startproc
  30              		@ args = 0, pretend = 0, frame = 0
  31              		@ frame_needed = 0, uses_anonymous_args = 0
  32              		@ link register save eliminated.
  61:Generated_Source\PSoC5/WaveDAC8_BuffAmp.c ****     /* Enable negative charge pumps in ANIF */
  62:Generated_Source\PSoC5/WaveDAC8_BuffAmp.c ****     WaveDAC8_BuffAmp_PUMP_CR1_REG  |= (WaveDAC8_BuffAmp_PUMP_CR1_CLKSEL | WaveDAC8_BuffAmp_PUMP_CR1
  33              		.loc 1 62 0
  34 0000 084A     		ldr	r2, .L2
  35 0002 1378     		ldrb	r3, [r2]	@ zero_extendqisi2
  36 0004 43F06003 		orr	r3, r3, #96
  37 0008 1370     		strb	r3, [r2]
  63:Generated_Source\PSoC5/WaveDAC8_BuffAmp.c **** 
  64:Generated_Source\PSoC5/WaveDAC8_BuffAmp.c ****     /* Enable power to buffer in active mode */
  65:Generated_Source\PSoC5/WaveDAC8_BuffAmp.c ****     WaveDAC8_BuffAmp_PM_ACT_CFG_REG |= WaveDAC8_BuffAmp_ACT_PWR_EN;
  38              		.loc 1 65 0
  39 000a A2F5A652 		sub	r2, r2, #5312
  40 000e 133A     		subs	r2, r2, #19
  41 0010 1378     		ldrb	r3, [r2]	@ zero_extendqisi2
  42 0012 43F00803 		orr	r3, r3, #8
  43 0016 1370     		strb	r3, [r2]
  66:Generated_Source\PSoC5/WaveDAC8_BuffAmp.c **** 
  67:Generated_Source\PSoC5/WaveDAC8_BuffAmp.c ****     /* Enable power to buffer in alternative active mode */
  68:Generated_Source\PSoC5/WaveDAC8_BuffAmp.c ****     WaveDAC8_BuffAmp_PM_STBY_CFG_REG |= WaveDAC8_BuffAmp_STBY_PWR_EN;
  44              		.loc 1 68 0
  45 0018 1032     		adds	r2, r2, #16
  46 001a 1378     		ldrb	r3, [r2]	@ zero_extendqisi2
ARM GAS  C:\Users\vboxuser\AppData\Local\Temp\ccioFMK3.s 			page 3


  47 001c 43F00803 		orr	r3, r3, #8
  48 0020 1370     		strb	r3, [r2]
  49 0022 7047     		bx	lr
  50              	.L3:
  51              		.align	2
  52              	.L2:
  53 0024 77580040 		.word	1073764471
  54              		.cfi_endproc
  55              	.LFE1:
  56              		.size	WaveDAC8_BuffAmp_Enable, .-WaveDAC8_BuffAmp_Enable
  57              		.section	.text.WaveDAC8_BuffAmp_Stop,"ax",%progbits
  58              		.align	2
  59              		.global	WaveDAC8_BuffAmp_Stop
  60              		.thumb
  61              		.thumb_func
  62              		.type	WaveDAC8_BuffAmp_Stop, %function
  63              	WaveDAC8_BuffAmp_Stop:
  64              	.LFB3:
  69:Generated_Source\PSoC5/WaveDAC8_BuffAmp.c **** }
  70:Generated_Source\PSoC5/WaveDAC8_BuffAmp.c **** 
  71:Generated_Source\PSoC5/WaveDAC8_BuffAmp.c **** 
  72:Generated_Source\PSoC5/WaveDAC8_BuffAmp.c **** /*******************************************************************************
  73:Generated_Source\PSoC5/WaveDAC8_BuffAmp.c **** * Function Name:   WaveDAC8_BuffAmp_Start
  74:Generated_Source\PSoC5/WaveDAC8_BuffAmp.c **** ********************************************************************************
  75:Generated_Source\PSoC5/WaveDAC8_BuffAmp.c **** *
  76:Generated_Source\PSoC5/WaveDAC8_BuffAmp.c **** * Summary:
  77:Generated_Source\PSoC5/WaveDAC8_BuffAmp.c **** *  The start function initializes the Analog Buffer with the default values and 
  78:Generated_Source\PSoC5/WaveDAC8_BuffAmp.c **** *  sets the power to the given level. A power level of 0, is same as 
  79:Generated_Source\PSoC5/WaveDAC8_BuffAmp.c **** *  executing the stop function.
  80:Generated_Source\PSoC5/WaveDAC8_BuffAmp.c **** *
  81:Generated_Source\PSoC5/WaveDAC8_BuffAmp.c **** * Parameters:
  82:Generated_Source\PSoC5/WaveDAC8_BuffAmp.c **** *  void
  83:Generated_Source\PSoC5/WaveDAC8_BuffAmp.c **** *
  84:Generated_Source\PSoC5/WaveDAC8_BuffAmp.c **** * Return:
  85:Generated_Source\PSoC5/WaveDAC8_BuffAmp.c **** *  void
  86:Generated_Source\PSoC5/WaveDAC8_BuffAmp.c **** *
  87:Generated_Source\PSoC5/WaveDAC8_BuffAmp.c **** * Global variables:
  88:Generated_Source\PSoC5/WaveDAC8_BuffAmp.c **** *  WaveDAC8_BuffAmp_initVar: Used to check the initial configuration, modified 
  89:Generated_Source\PSoC5/WaveDAC8_BuffAmp.c **** *  when this function is called for the first time.
  90:Generated_Source\PSoC5/WaveDAC8_BuffAmp.c **** *
  91:Generated_Source\PSoC5/WaveDAC8_BuffAmp.c **** *******************************************************************************/
  92:Generated_Source\PSoC5/WaveDAC8_BuffAmp.c **** void WaveDAC8_BuffAmp_Start(void) 
  93:Generated_Source\PSoC5/WaveDAC8_BuffAmp.c **** {
  94:Generated_Source\PSoC5/WaveDAC8_BuffAmp.c ****     if(WaveDAC8_BuffAmp_initVar == 0u)
  95:Generated_Source\PSoC5/WaveDAC8_BuffAmp.c ****     {
  96:Generated_Source\PSoC5/WaveDAC8_BuffAmp.c ****         WaveDAC8_BuffAmp_initVar = 1u;
  97:Generated_Source\PSoC5/WaveDAC8_BuffAmp.c ****         WaveDAC8_BuffAmp_Init();
  98:Generated_Source\PSoC5/WaveDAC8_BuffAmp.c ****     }
  99:Generated_Source\PSoC5/WaveDAC8_BuffAmp.c **** 
 100:Generated_Source\PSoC5/WaveDAC8_BuffAmp.c ****     WaveDAC8_BuffAmp_Enable();
 101:Generated_Source\PSoC5/WaveDAC8_BuffAmp.c **** }
 102:Generated_Source\PSoC5/WaveDAC8_BuffAmp.c **** 
 103:Generated_Source\PSoC5/WaveDAC8_BuffAmp.c **** 
 104:Generated_Source\PSoC5/WaveDAC8_BuffAmp.c **** /*******************************************************************************
 105:Generated_Source\PSoC5/WaveDAC8_BuffAmp.c **** * Function Name: WaveDAC8_BuffAmp_Stop
 106:Generated_Source\PSoC5/WaveDAC8_BuffAmp.c **** ********************************************************************************
 107:Generated_Source\PSoC5/WaveDAC8_BuffAmp.c **** *
ARM GAS  C:\Users\vboxuser\AppData\Local\Temp\ccioFMK3.s 			page 4


 108:Generated_Source\PSoC5/WaveDAC8_BuffAmp.c **** * Summary:
 109:Generated_Source\PSoC5/WaveDAC8_BuffAmp.c **** *  Powers down amplifier to lowest power state.
 110:Generated_Source\PSoC5/WaveDAC8_BuffAmp.c **** *
 111:Generated_Source\PSoC5/WaveDAC8_BuffAmp.c **** * Parameters:
 112:Generated_Source\PSoC5/WaveDAC8_BuffAmp.c **** *  void
 113:Generated_Source\PSoC5/WaveDAC8_BuffAmp.c **** *
 114:Generated_Source\PSoC5/WaveDAC8_BuffAmp.c **** * Return:
 115:Generated_Source\PSoC5/WaveDAC8_BuffAmp.c **** *  void
 116:Generated_Source\PSoC5/WaveDAC8_BuffAmp.c **** *
 117:Generated_Source\PSoC5/WaveDAC8_BuffAmp.c **** *******************************************************************************/
 118:Generated_Source\PSoC5/WaveDAC8_BuffAmp.c **** void WaveDAC8_BuffAmp_Stop(void) 
 119:Generated_Source\PSoC5/WaveDAC8_BuffAmp.c **** {
  65              		.loc 1 119 0
  66              		.cfi_startproc
  67              		@ args = 0, pretend = 0, frame = 0
  68              		@ frame_needed = 0, uses_anonymous_args = 0
  69              		@ link register save eliminated.
 120:Generated_Source\PSoC5/WaveDAC8_BuffAmp.c ****     /* Disable power to buffer in active mode template */
 121:Generated_Source\PSoC5/WaveDAC8_BuffAmp.c ****     WaveDAC8_BuffAmp_PM_ACT_CFG_REG &= (uint8)(~WaveDAC8_BuffAmp_ACT_PWR_EN);
  70              		.loc 1 121 0
  71 0000 094B     		ldr	r3, .L6
  72 0002 1A78     		ldrb	r2, [r3]	@ zero_extendqisi2
  73 0004 02F0F702 		and	r2, r2, #247
  74 0008 1A70     		strb	r2, [r3]
 122:Generated_Source\PSoC5/WaveDAC8_BuffAmp.c **** 
 123:Generated_Source\PSoC5/WaveDAC8_BuffAmp.c ****     /* Disable power to buffer in alternative active mode template */
 124:Generated_Source\PSoC5/WaveDAC8_BuffAmp.c ****     WaveDAC8_BuffAmp_PM_STBY_CFG_REG &= (uint8)(~WaveDAC8_BuffAmp_STBY_PWR_EN);
  75              		.loc 1 124 0
  76 000a 0849     		ldr	r1, .L6+4
  77 000c 0A78     		ldrb	r2, [r1]	@ zero_extendqisi2
  78 000e 02F0F702 		and	r2, r2, #247
  79 0012 0A70     		strb	r2, [r1]
 125:Generated_Source\PSoC5/WaveDAC8_BuffAmp.c ****     
 126:Generated_Source\PSoC5/WaveDAC8_BuffAmp.c ****     /* Disable negative charge pumps for ANIF only if all ABuf is turned OFF */
 127:Generated_Source\PSoC5/WaveDAC8_BuffAmp.c ****     if(WaveDAC8_BuffAmp_PM_ACT_CFG_REG == 0u)
  80              		.loc 1 127 0
  81 0014 1B78     		ldrb	r3, [r3]	@ zero_extendqisi2
  82 0016 13F0FF0F 		tst	r3, #255
  83 001a 04D1     		bne	.L4
 128:Generated_Source\PSoC5/WaveDAC8_BuffAmp.c ****     {
 129:Generated_Source\PSoC5/WaveDAC8_BuffAmp.c ****         WaveDAC8_BuffAmp_PUMP_CR1_REG &= (uint8)(~(WaveDAC8_BuffAmp_PUMP_CR1_CLKSEL | WaveDAC8_Buff
  84              		.loc 1 129 0
  85 001c 044A     		ldr	r2, .L6+8
  86 001e 1378     		ldrb	r3, [r2]	@ zero_extendqisi2
  87 0020 03F09F03 		and	r3, r3, #159
  88 0024 1370     		strb	r3, [r2]
  89              	.L4:
  90 0026 7047     		bx	lr
  91              	.L7:
  92              		.align	2
  93              	.L6:
  94 0028 A4430040 		.word	1073759140
  95 002c B4430040 		.word	1073759156
  96 0030 77580040 		.word	1073764471
  97              		.cfi_endproc
  98              	.LFE3:
  99              		.size	WaveDAC8_BuffAmp_Stop, .-WaveDAC8_BuffAmp_Stop
ARM GAS  C:\Users\vboxuser\AppData\Local\Temp\ccioFMK3.s 			page 5


 100              		.section	.text.WaveDAC8_BuffAmp_SetPower,"ax",%progbits
 101              		.align	2
 102              		.global	WaveDAC8_BuffAmp_SetPower
 103              		.thumb
 104              		.thumb_func
 105              		.type	WaveDAC8_BuffAmp_SetPower, %function
 106              	WaveDAC8_BuffAmp_SetPower:
 107              	.LFB4:
 130:Generated_Source\PSoC5/WaveDAC8_BuffAmp.c ****     }
 131:Generated_Source\PSoC5/WaveDAC8_BuffAmp.c **** }
 132:Generated_Source\PSoC5/WaveDAC8_BuffAmp.c **** 
 133:Generated_Source\PSoC5/WaveDAC8_BuffAmp.c **** 
 134:Generated_Source\PSoC5/WaveDAC8_BuffAmp.c **** /*******************************************************************************
 135:Generated_Source\PSoC5/WaveDAC8_BuffAmp.c **** * Function Name: WaveDAC8_BuffAmp_SetPower
 136:Generated_Source\PSoC5/WaveDAC8_BuffAmp.c **** ********************************************************************************
 137:Generated_Source\PSoC5/WaveDAC8_BuffAmp.c **** *
 138:Generated_Source\PSoC5/WaveDAC8_BuffAmp.c **** * Summary:
 139:Generated_Source\PSoC5/WaveDAC8_BuffAmp.c **** *  Sets power level of Analog buffer.
 140:Generated_Source\PSoC5/WaveDAC8_BuffAmp.c **** *
 141:Generated_Source\PSoC5/WaveDAC8_BuffAmp.c **** * Parameters: 
 142:Generated_Source\PSoC5/WaveDAC8_BuffAmp.c **** *  power: PSoC3: Sets power level between low (1) and high power (3).
 143:Generated_Source\PSoC5/WaveDAC8_BuffAmp.c **** *         PSoC5: Sets power level High (0)
 144:Generated_Source\PSoC5/WaveDAC8_BuffAmp.c **** *
 145:Generated_Source\PSoC5/WaveDAC8_BuffAmp.c **** * Return:
 146:Generated_Source\PSoC5/WaveDAC8_BuffAmp.c **** *  void
 147:Generated_Source\PSoC5/WaveDAC8_BuffAmp.c **** *
 148:Generated_Source\PSoC5/WaveDAC8_BuffAmp.c **** **********************************************************************************/
 149:Generated_Source\PSoC5/WaveDAC8_BuffAmp.c **** void WaveDAC8_BuffAmp_SetPower(uint8 power) 
 150:Generated_Source\PSoC5/WaveDAC8_BuffAmp.c **** {
 108              		.loc 1 150 0
 109              		.cfi_startproc
 110              		@ args = 0, pretend = 0, frame = 0
 111              		@ frame_needed = 0, uses_anonymous_args = 0
 112              		@ link register save eliminated.
 113              	.LVL0:
 151:Generated_Source\PSoC5/WaveDAC8_BuffAmp.c ****     #if (CY_PSOC3 || CY_PSOC5LP)
 152:Generated_Source\PSoC5/WaveDAC8_BuffAmp.c ****         WaveDAC8_BuffAmp_CR_REG &= (uint8)(~WaveDAC8_BuffAmp_PWR_MASK);
 114              		.loc 1 152 0
 115 0000 054B     		ldr	r3, .L9
 116 0002 1A78     		ldrb	r2, [r3]	@ zero_extendqisi2
 117 0004 02F0FC02 		and	r2, r2, #252
 118 0008 1A70     		strb	r2, [r3]
 153:Generated_Source\PSoC5/WaveDAC8_BuffAmp.c ****         WaveDAC8_BuffAmp_CR_REG |= power & WaveDAC8_BuffAmp_PWR_MASK;      /* Set device power */
 119              		.loc 1 153 0
 120 000a 1A78     		ldrb	r2, [r3]	@ zero_extendqisi2
 121 000c 00F00300 		and	r0, r0, #3
 122              	.LVL1:
 123 0010 1043     		orrs	r0, r0, r2
 124 0012 1870     		strb	r0, [r3]
 125 0014 7047     		bx	lr
 126              	.L10:
 127 0016 00BF     		.align	2
 128              	.L9:
 129 0018 5E580040 		.word	1073764446
 130              		.cfi_endproc
 131              	.LFE4:
 132              		.size	WaveDAC8_BuffAmp_SetPower, .-WaveDAC8_BuffAmp_SetPower
ARM GAS  C:\Users\vboxuser\AppData\Local\Temp\ccioFMK3.s 			page 6


 133              		.section	.text.WaveDAC8_BuffAmp_Init,"ax",%progbits
 134              		.align	2
 135              		.global	WaveDAC8_BuffAmp_Init
 136              		.thumb
 137              		.thumb_func
 138              		.type	WaveDAC8_BuffAmp_Init, %function
 139              	WaveDAC8_BuffAmp_Init:
 140              	.LFB0:
  40:Generated_Source\PSoC5/WaveDAC8_BuffAmp.c ****     WaveDAC8_BuffAmp_SetPower(WaveDAC8_BuffAmp_DEFAULT_POWER);
 141              		.loc 1 40 0
 142              		.cfi_startproc
 143              		@ args = 0, pretend = 0, frame = 0
 144              		@ frame_needed = 0, uses_anonymous_args = 0
 145 0000 08B5     		push	{r3, lr}
 146              		.cfi_def_cfa_offset 8
 147              		.cfi_offset 3, -8
 148              		.cfi_offset 14, -4
  41:Generated_Source\PSoC5/WaveDAC8_BuffAmp.c **** }
 149              		.loc 1 41 0
 150 0002 0220     		movs	r0, #2
 151 0004 FFF7FEFF 		bl	WaveDAC8_BuffAmp_SetPower
 152              	.LVL2:
 153 0008 08BD     		pop	{r3, pc}
 154              		.cfi_endproc
 155              	.LFE0:
 156              		.size	WaveDAC8_BuffAmp_Init, .-WaveDAC8_BuffAmp_Init
 157 000a 00BF     		.section	.text.WaveDAC8_BuffAmp_Start,"ax",%progbits
 158              		.align	2
 159              		.global	WaveDAC8_BuffAmp_Start
 160              		.thumb
 161              		.thumb_func
 162              		.type	WaveDAC8_BuffAmp_Start, %function
 163              	WaveDAC8_BuffAmp_Start:
 164              	.LFB2:
  93:Generated_Source\PSoC5/WaveDAC8_BuffAmp.c ****     if(WaveDAC8_BuffAmp_initVar == 0u)
 165              		.loc 1 93 0
 166              		.cfi_startproc
 167              		@ args = 0, pretend = 0, frame = 0
 168              		@ frame_needed = 0, uses_anonymous_args = 0
 169 0000 08B5     		push	{r3, lr}
 170              		.cfi_def_cfa_offset 8
 171              		.cfi_offset 3, -8
 172              		.cfi_offset 14, -4
  94:Generated_Source\PSoC5/WaveDAC8_BuffAmp.c ****     {
 173              		.loc 1 94 0
 174 0002 054B     		ldr	r3, .L16
 175 0004 1B78     		ldrb	r3, [r3]	@ zero_extendqisi2
 176 0006 23B9     		cbnz	r3, .L14
  96:Generated_Source\PSoC5/WaveDAC8_BuffAmp.c ****         WaveDAC8_BuffAmp_Init();
 177              		.loc 1 96 0
 178 0008 0122     		movs	r2, #1
 179 000a 034B     		ldr	r3, .L16
 180 000c 1A70     		strb	r2, [r3]
  97:Generated_Source\PSoC5/WaveDAC8_BuffAmp.c ****     }
 181              		.loc 1 97 0
 182 000e FFF7FEFF 		bl	WaveDAC8_BuffAmp_Init
 183              	.LVL3:
ARM GAS  C:\Users\vboxuser\AppData\Local\Temp\ccioFMK3.s 			page 7


 184              	.L14:
 100:Generated_Source\PSoC5/WaveDAC8_BuffAmp.c **** }
 185              		.loc 1 100 0
 186 0012 FFF7FEFF 		bl	WaveDAC8_BuffAmp_Enable
 187              	.LVL4:
 188 0016 08BD     		pop	{r3, pc}
 189              	.L17:
 190              		.align	2
 191              	.L16:
 192 0018 00000000 		.word	.LANCHOR0
 193              		.cfi_endproc
 194              	.LFE2:
 195              		.size	WaveDAC8_BuffAmp_Start, .-WaveDAC8_BuffAmp_Start
 196              		.global	WaveDAC8_BuffAmp_initVar
 197              		.bss
 198              		.set	.LANCHOR0,. + 0
 199              		.type	WaveDAC8_BuffAmp_initVar, %object
 200              		.size	WaveDAC8_BuffAmp_initVar, 1
 201              	WaveDAC8_BuffAmp_initVar:
 202 0000 00       		.space	1
 203              		.text
 204              	.Letext0:
 205              		.file 2 "Generated_Source\\PSoC5\\cytypes.h"