ARM GAS  C:\Users\vboxuser\AppData\Local\Temp\ccGie09d.s 			page 1


   1              		.syntax unified
   2              		.cpu cortex-m3
   3              		.fpu softvfp
   4              		.eabi_attribute 20, 1
   5              		.eabi_attribute 21, 1
   6              		.eabi_attribute 23, 3
   7              		.eabi_attribute 24, 1
   8              		.eabi_attribute 25, 1
   9              		.eabi_attribute 26, 1
  10              		.eabi_attribute 30, 1
  11              		.eabi_attribute 34, 1
  12              		.eabi_attribute 18, 4
  13              		.thumb
  14              		.syntax unified
  15              		.file	"WaveDAC8.c"
  16              		.text
  17              	.Ltext0:
  18              		.cfi_sections	.debug_frame
  19              		.section	.text.WaveDAC8_Enable,"ax",%progbits
  20              		.align	2
  21              		.global	WaveDAC8_Enable
  22              		.thumb
  23              		.thumb_func
  24              		.type	WaveDAC8_Enable, %function
  25              	WaveDAC8_Enable:
  26              	.LFB1:
  27              		.file 1 "Generated_Source\\PSoC5\\WaveDAC8.c"
   1:Generated_Source\PSoC5/WaveDAC8.c **** /*******************************************************************************
   2:Generated_Source\PSoC5/WaveDAC8.c **** * File Name: WaveDAC8.c
   3:Generated_Source\PSoC5/WaveDAC8.c **** * Version 2.10
   4:Generated_Source\PSoC5/WaveDAC8.c **** *
   5:Generated_Source\PSoC5/WaveDAC8.c **** * Description:
   6:Generated_Source\PSoC5/WaveDAC8.c **** *  This file provides the source code for the 8-bit Waveform DAC 
   7:Generated_Source\PSoC5/WaveDAC8.c **** *  (WaveDAC8) Component.
   8:Generated_Source\PSoC5/WaveDAC8.c **** *
   9:Generated_Source\PSoC5/WaveDAC8.c **** ********************************************************************************
  10:Generated_Source\PSoC5/WaveDAC8.c **** * Copyright 2013, Cypress Semiconductor Corporation.  All rights reserved.
  11:Generated_Source\PSoC5/WaveDAC8.c **** * You may use this file only in accordance with the license, terms, conditions,
  12:Generated_Source\PSoC5/WaveDAC8.c **** * disclaimers, and limitations in the end user license agreement accompanying
  13:Generated_Source\PSoC5/WaveDAC8.c **** * the software package with which this file was provided.
  14:Generated_Source\PSoC5/WaveDAC8.c **** *******************************************************************************/
  15:Generated_Source\PSoC5/WaveDAC8.c **** 
  16:Generated_Source\PSoC5/WaveDAC8.c **** #include "WaveDAC8.h"
  17:Generated_Source\PSoC5/WaveDAC8.c **** 
  18:Generated_Source\PSoC5/WaveDAC8.c **** uint8  WaveDAC8_initVar = 0u;
  19:Generated_Source\PSoC5/WaveDAC8.c **** 
  20:Generated_Source\PSoC5/WaveDAC8.c **** const uint8 CYCODE WaveDAC8_wave1[WaveDAC8_WAVE1_LENGTH] = { 112u,116u,120u,124u,128u,132u,136u,139
  21:Generated_Source\PSoC5/WaveDAC8.c **** const uint8 CYCODE WaveDAC8_wave2[WaveDAC8_WAVE2_LENGTH] = { 128u,132u,138u,143u,148u,152u,158u,162
  22:Generated_Source\PSoC5/WaveDAC8.c **** 
  23:Generated_Source\PSoC5/WaveDAC8.c **** static uint8  WaveDAC8_Wave1Chan;
  24:Generated_Source\PSoC5/WaveDAC8.c **** static uint8  WaveDAC8_Wave2Chan;
  25:Generated_Source\PSoC5/WaveDAC8.c **** static uint8  WaveDAC8_Wave1TD;
  26:Generated_Source\PSoC5/WaveDAC8.c **** static uint8  WaveDAC8_Wave2TD;
  27:Generated_Source\PSoC5/WaveDAC8.c **** 
  28:Generated_Source\PSoC5/WaveDAC8.c **** 
  29:Generated_Source\PSoC5/WaveDAC8.c **** /*******************************************************************************
  30:Generated_Source\PSoC5/WaveDAC8.c **** * Function Name: WaveDAC8_Init
ARM GAS  C:\Users\vboxuser\AppData\Local\Temp\ccGie09d.s 			page 2


  31:Generated_Source\PSoC5/WaveDAC8.c **** ********************************************************************************
  32:Generated_Source\PSoC5/WaveDAC8.c **** *
  33:Generated_Source\PSoC5/WaveDAC8.c **** * Summary:
  34:Generated_Source\PSoC5/WaveDAC8.c **** *  Initializes component with parameters set in the customizer.
  35:Generated_Source\PSoC5/WaveDAC8.c **** *
  36:Generated_Source\PSoC5/WaveDAC8.c **** * Parameters:  
  37:Generated_Source\PSoC5/WaveDAC8.c **** *  None
  38:Generated_Source\PSoC5/WaveDAC8.c **** *
  39:Generated_Source\PSoC5/WaveDAC8.c **** * Return: 
  40:Generated_Source\PSoC5/WaveDAC8.c **** *  None
  41:Generated_Source\PSoC5/WaveDAC8.c **** *
  42:Generated_Source\PSoC5/WaveDAC8.c **** *******************************************************************************/
  43:Generated_Source\PSoC5/WaveDAC8.c **** void WaveDAC8_Init(void) 
  44:Generated_Source\PSoC5/WaveDAC8.c **** {
  45:Generated_Source\PSoC5/WaveDAC8.c **** 	WaveDAC8_VDAC8_Init();
  46:Generated_Source\PSoC5/WaveDAC8.c **** 	WaveDAC8_VDAC8_SetSpeed(WaveDAC8_HIGHSPEED);
  47:Generated_Source\PSoC5/WaveDAC8.c **** 	WaveDAC8_VDAC8_SetRange(WaveDAC8_DAC_RANGE);
  48:Generated_Source\PSoC5/WaveDAC8.c **** 
  49:Generated_Source\PSoC5/WaveDAC8.c **** 	#if(WaveDAC8_DAC_MODE == WaveDAC8_CURRENT_MODE)
  50:Generated_Source\PSoC5/WaveDAC8.c **** 		WaveDAC8_IDAC8_SetPolarity(WaveDAC8_DAC_POL);
  51:Generated_Source\PSoC5/WaveDAC8.c **** 	#endif /* WaveDAC8_DAC_MODE == WaveDAC8_CURRENT_MODE */
  52:Generated_Source\PSoC5/WaveDAC8.c **** 
  53:Generated_Source\PSoC5/WaveDAC8.c **** 	#if(WaveDAC8_OUT_MODE == WaveDAC8_BUFFER_MODE)
  54:Generated_Source\PSoC5/WaveDAC8.c **** 	   WaveDAC8_BuffAmp_Init();
  55:Generated_Source\PSoC5/WaveDAC8.c **** 	#endif /* WaveDAC8_OUT_MODE == WaveDAC8_BUFFER_MODE */
  56:Generated_Source\PSoC5/WaveDAC8.c **** 
  57:Generated_Source\PSoC5/WaveDAC8.c **** 	/* Get the TD Number for the DMA channel 1 and 2   */
  58:Generated_Source\PSoC5/WaveDAC8.c **** 	WaveDAC8_Wave1TD = CyDmaTdAllocate();
  59:Generated_Source\PSoC5/WaveDAC8.c **** 	WaveDAC8_Wave2TD = CyDmaTdAllocate();
  60:Generated_Source\PSoC5/WaveDAC8.c **** 	
  61:Generated_Source\PSoC5/WaveDAC8.c **** 	/* Initialize waveform pointers  */
  62:Generated_Source\PSoC5/WaveDAC8.c **** 	WaveDAC8_Wave1Setup(WaveDAC8_wave1, WaveDAC8_WAVE1_LENGTH) ;
  63:Generated_Source\PSoC5/WaveDAC8.c **** 	WaveDAC8_Wave2Setup(WaveDAC8_wave2, WaveDAC8_WAVE2_LENGTH) ;
  64:Generated_Source\PSoC5/WaveDAC8.c **** 	
  65:Generated_Source\PSoC5/WaveDAC8.c **** 	/* Initialize the internal clock if one present  */
  66:Generated_Source\PSoC5/WaveDAC8.c **** 	#if defined(WaveDAC8_DacClk_PHASE)
  67:Generated_Source\PSoC5/WaveDAC8.c **** 	   WaveDAC8_DacClk_SetPhase(WaveDAC8_CLK_PHASE_0nS);
  68:Generated_Source\PSoC5/WaveDAC8.c **** 	#endif /* defined(WaveDAC8_DacClk_PHASE) */
  69:Generated_Source\PSoC5/WaveDAC8.c **** }
  70:Generated_Source\PSoC5/WaveDAC8.c **** 
  71:Generated_Source\PSoC5/WaveDAC8.c **** 
  72:Generated_Source\PSoC5/WaveDAC8.c **** /*******************************************************************************
  73:Generated_Source\PSoC5/WaveDAC8.c **** * Function Name: WaveDAC8_Enable
  74:Generated_Source\PSoC5/WaveDAC8.c **** ********************************************************************************
  75:Generated_Source\PSoC5/WaveDAC8.c **** *  
  76:Generated_Source\PSoC5/WaveDAC8.c **** * Summary: 
  77:Generated_Source\PSoC5/WaveDAC8.c **** *  Enables the DAC block and DMA operation.
  78:Generated_Source\PSoC5/WaveDAC8.c **** *
  79:Generated_Source\PSoC5/WaveDAC8.c **** * Parameters:  
  80:Generated_Source\PSoC5/WaveDAC8.c **** *  None
  81:Generated_Source\PSoC5/WaveDAC8.c **** *
  82:Generated_Source\PSoC5/WaveDAC8.c **** * Return: 
  83:Generated_Source\PSoC5/WaveDAC8.c **** *  None
  84:Generated_Source\PSoC5/WaveDAC8.c **** *
  85:Generated_Source\PSoC5/WaveDAC8.c **** *******************************************************************************/
  86:Generated_Source\PSoC5/WaveDAC8.c **** void WaveDAC8_Enable(void) 
  87:Generated_Source\PSoC5/WaveDAC8.c **** {
ARM GAS  C:\Users\vboxuser\AppData\Local\Temp\ccGie09d.s 			page 3


  28              		.loc 1 87 0
  29              		.cfi_startproc
  30              		@ args = 0, pretend = 0, frame = 0
  31              		@ frame_needed = 0, uses_anonymous_args = 0
  32 0000 10B5     		push	{r4, lr}
  33              		.cfi_def_cfa_offset 8
  34              		.cfi_offset 4, -8
  35              		.cfi_offset 14, -4
  88:Generated_Source\PSoC5/WaveDAC8.c **** 	WaveDAC8_VDAC8_Enable();
  36              		.loc 1 88 0
  37 0002 FFF7FEFF 		bl	WaveDAC8_VDAC8_Enable
  38              	.LVL0:
  89:Generated_Source\PSoC5/WaveDAC8.c **** 
  90:Generated_Source\PSoC5/WaveDAC8.c **** 	#if(WaveDAC8_OUT_MODE == WaveDAC8_BUFFER_MODE)
  91:Generated_Source\PSoC5/WaveDAC8.c **** 	   WaveDAC8_BuffAmp_Enable();
  39              		.loc 1 91 0
  40 0006 FFF7FEFF 		bl	WaveDAC8_BuffAmp_Enable
  41              	.LVL1:
  92:Generated_Source\PSoC5/WaveDAC8.c **** 	#endif /* WaveDAC8_OUT_MODE == WaveDAC8_BUFFER_MODE */
  93:Generated_Source\PSoC5/WaveDAC8.c **** 
  94:Generated_Source\PSoC5/WaveDAC8.c **** 	/* 
  95:Generated_Source\PSoC5/WaveDAC8.c **** 	* Enable the channel. It is configured to remember the TD value so that
  96:Generated_Source\PSoC5/WaveDAC8.c **** 	* it can be restored from the place where it has been stopped.
  97:Generated_Source\PSoC5/WaveDAC8.c **** 	*/
  98:Generated_Source\PSoC5/WaveDAC8.c **** 	(void)CyDmaChEnable(WaveDAC8_Wave1Chan, 1u);
  42              		.loc 1 98 0
  43 000a 074C     		ldr	r4, .L3
  44 000c 0121     		movs	r1, #1
  45 000e 2078     		ldrb	r0, [r4]	@ zero_extendqisi2
  46 0010 FFF7FEFF 		bl	CyDmaChEnable
  47              	.LVL2:
  99:Generated_Source\PSoC5/WaveDAC8.c **** 	(void)CyDmaChEnable(WaveDAC8_Wave2Chan, 1u);
  48              		.loc 1 99 0
  49 0014 0121     		movs	r1, #1
  50 0016 6078     		ldrb	r0, [r4, #1]	@ zero_extendqisi2
  51 0018 FFF7FEFF 		bl	CyDmaChEnable
  52              	.LVL3:
 100:Generated_Source\PSoC5/WaveDAC8.c **** 	
 101:Generated_Source\PSoC5/WaveDAC8.c **** 	/* set the initial value */
 102:Generated_Source\PSoC5/WaveDAC8.c **** 	WaveDAC8_SetValue(0u);
  53              		.loc 1 102 0
  54 001c 0020     		movs	r0, #0
  55 001e FFF7FEFF 		bl	WaveDAC8_VDAC8_SetValue
  56              	.LVL4:
 103:Generated_Source\PSoC5/WaveDAC8.c **** 	
 104:Generated_Source\PSoC5/WaveDAC8.c **** 	#if(WaveDAC8_CLOCK_SRC == WaveDAC8_CLOCK_INT)  	
 105:Generated_Source\PSoC5/WaveDAC8.c **** 	   WaveDAC8_DacClk_Start();
  57              		.loc 1 105 0
  58 0022 FFF7FEFF 		bl	WaveDAC8_DacClk_Start
  59              	.LVL5:
  60 0026 10BD     		pop	{r4, pc}
  61              	.L4:
  62              		.align	2
  63              	.L3:
  64 0028 00000000 		.word	.LANCHOR0
  65              		.cfi_endproc
  66              	.LFE1:
ARM GAS  C:\Users\vboxuser\AppData\Local\Temp\ccGie09d.s 			page 4


  67              		.size	WaveDAC8_Enable, .-WaveDAC8_Enable
  68              		.section	.text.WaveDAC8_Stop,"ax",%progbits
  69              		.align	2
  70              		.global	WaveDAC8_Stop
  71              		.thumb
  72              		.thumb_func
  73              		.type	WaveDAC8_Stop, %function
  74              	WaveDAC8_Stop:
  75              	.LFB4:
 106:Generated_Source\PSoC5/WaveDAC8.c **** 	#endif /* WaveDAC8_CLOCK_SRC == WaveDAC8_CLOCK_INT */
 107:Generated_Source\PSoC5/WaveDAC8.c **** }
 108:Generated_Source\PSoC5/WaveDAC8.c **** 
 109:Generated_Source\PSoC5/WaveDAC8.c **** 
 110:Generated_Source\PSoC5/WaveDAC8.c **** /*******************************************************************************
 111:Generated_Source\PSoC5/WaveDAC8.c **** * Function Name: WaveDAC8_Start
 112:Generated_Source\PSoC5/WaveDAC8.c **** ********************************************************************************
 113:Generated_Source\PSoC5/WaveDAC8.c **** *
 114:Generated_Source\PSoC5/WaveDAC8.c **** * Summary:
 115:Generated_Source\PSoC5/WaveDAC8.c **** *  The start function initializes the voltage DAC with the default values, 
 116:Generated_Source\PSoC5/WaveDAC8.c **** *  and sets the power to the given level.  A power level of 0, is the same as 
 117:Generated_Source\PSoC5/WaveDAC8.c **** *  executing the stop function.
 118:Generated_Source\PSoC5/WaveDAC8.c **** *
 119:Generated_Source\PSoC5/WaveDAC8.c **** * Parameters:  
 120:Generated_Source\PSoC5/WaveDAC8.c **** *  None
 121:Generated_Source\PSoC5/WaveDAC8.c **** *
 122:Generated_Source\PSoC5/WaveDAC8.c **** * Return: 
 123:Generated_Source\PSoC5/WaveDAC8.c **** *  None
 124:Generated_Source\PSoC5/WaveDAC8.c **** *
 125:Generated_Source\PSoC5/WaveDAC8.c **** * Reentrant:
 126:Generated_Source\PSoC5/WaveDAC8.c **** *  No
 127:Generated_Source\PSoC5/WaveDAC8.c **** *
 128:Generated_Source\PSoC5/WaveDAC8.c **** *******************************************************************************/
 129:Generated_Source\PSoC5/WaveDAC8.c **** void WaveDAC8_Start(void) 
 130:Generated_Source\PSoC5/WaveDAC8.c **** {
 131:Generated_Source\PSoC5/WaveDAC8.c **** 	/* If not Initialized then initialize all required hardware and software */
 132:Generated_Source\PSoC5/WaveDAC8.c **** 	if(WaveDAC8_initVar == 0u)
 133:Generated_Source\PSoC5/WaveDAC8.c **** 	{
 134:Generated_Source\PSoC5/WaveDAC8.c **** 		WaveDAC8_Init();
 135:Generated_Source\PSoC5/WaveDAC8.c **** 		WaveDAC8_initVar = 1u;
 136:Generated_Source\PSoC5/WaveDAC8.c **** 	}
 137:Generated_Source\PSoC5/WaveDAC8.c **** 	
 138:Generated_Source\PSoC5/WaveDAC8.c **** 	WaveDAC8_Enable();
 139:Generated_Source\PSoC5/WaveDAC8.c **** }
 140:Generated_Source\PSoC5/WaveDAC8.c **** 
 141:Generated_Source\PSoC5/WaveDAC8.c **** 
 142:Generated_Source\PSoC5/WaveDAC8.c **** /*******************************************************************************
 143:Generated_Source\PSoC5/WaveDAC8.c **** * Function Name: WaveDAC8_StartEx
 144:Generated_Source\PSoC5/WaveDAC8.c **** ********************************************************************************
 145:Generated_Source\PSoC5/WaveDAC8.c **** *
 146:Generated_Source\PSoC5/WaveDAC8.c **** * Summary:
 147:Generated_Source\PSoC5/WaveDAC8.c **** *  The StartEx function sets pointers and sizes for both waveforms
 148:Generated_Source\PSoC5/WaveDAC8.c **** *  and then starts the component.
 149:Generated_Source\PSoC5/WaveDAC8.c **** *
 150:Generated_Source\PSoC5/WaveDAC8.c **** * Parameters:  
 151:Generated_Source\PSoC5/WaveDAC8.c **** *   uint8 * wavePtr1:     Pointer to the waveform 1 array.
 152:Generated_Source\PSoC5/WaveDAC8.c **** *   uint16  sampleSize1:  The amount of samples in the waveform 1.
 153:Generated_Source\PSoC5/WaveDAC8.c **** *   uint8 * wavePtr2:     Pointer to the waveform 2 array.
ARM GAS  C:\Users\vboxuser\AppData\Local\Temp\ccGie09d.s 			page 5


 154:Generated_Source\PSoC5/WaveDAC8.c **** *   uint16  sampleSize2:  The amount of samples in the waveform 2.
 155:Generated_Source\PSoC5/WaveDAC8.c **** *
 156:Generated_Source\PSoC5/WaveDAC8.c **** * Return: 
 157:Generated_Source\PSoC5/WaveDAC8.c **** *  None
 158:Generated_Source\PSoC5/WaveDAC8.c **** *
 159:Generated_Source\PSoC5/WaveDAC8.c **** * Reentrant:
 160:Generated_Source\PSoC5/WaveDAC8.c **** *  No
 161:Generated_Source\PSoC5/WaveDAC8.c **** *
 162:Generated_Source\PSoC5/WaveDAC8.c **** *******************************************************************************/
 163:Generated_Source\PSoC5/WaveDAC8.c **** void WaveDAC8_StartEx(const uint8 * wavePtr1, uint16 sampleSize1, const uint8 * wavePtr2, uint16 sa
 164:Generated_Source\PSoC5/WaveDAC8.c **** 
 165:Generated_Source\PSoC5/WaveDAC8.c **** {
 166:Generated_Source\PSoC5/WaveDAC8.c **** 	WaveDAC8_Wave1Setup(wavePtr1, sampleSize1);
 167:Generated_Source\PSoC5/WaveDAC8.c **** 	WaveDAC8_Wave2Setup(wavePtr2, sampleSize2);
 168:Generated_Source\PSoC5/WaveDAC8.c **** 	WaveDAC8_Start();
 169:Generated_Source\PSoC5/WaveDAC8.c **** }
 170:Generated_Source\PSoC5/WaveDAC8.c **** 
 171:Generated_Source\PSoC5/WaveDAC8.c **** 
 172:Generated_Source\PSoC5/WaveDAC8.c **** /*******************************************************************************
 173:Generated_Source\PSoC5/WaveDAC8.c **** * Function Name: WaveDAC8_Stop
 174:Generated_Source\PSoC5/WaveDAC8.c **** ********************************************************************************
 175:Generated_Source\PSoC5/WaveDAC8.c **** *
 176:Generated_Source\PSoC5/WaveDAC8.c **** * Summary:
 177:Generated_Source\PSoC5/WaveDAC8.c **** *  Stops the clock (if internal), disables the DMA channels
 178:Generated_Source\PSoC5/WaveDAC8.c **** *  and powers down the DAC.
 179:Generated_Source\PSoC5/WaveDAC8.c **** *
 180:Generated_Source\PSoC5/WaveDAC8.c **** * Parameters:  
 181:Generated_Source\PSoC5/WaveDAC8.c **** *  None  
 182:Generated_Source\PSoC5/WaveDAC8.c **** *
 183:Generated_Source\PSoC5/WaveDAC8.c **** * Return: 
 184:Generated_Source\PSoC5/WaveDAC8.c **** *  None
 185:Generated_Source\PSoC5/WaveDAC8.c **** *
 186:Generated_Source\PSoC5/WaveDAC8.c **** *******************************************************************************/
 187:Generated_Source\PSoC5/WaveDAC8.c **** void WaveDAC8_Stop(void) 
 188:Generated_Source\PSoC5/WaveDAC8.c **** {
  76              		.loc 1 188 0
  77              		.cfi_startproc
  78              		@ args = 0, pretend = 0, frame = 0
  79              		@ frame_needed = 0, uses_anonymous_args = 0
  80 0000 10B5     		push	{r4, lr}
  81              		.cfi_def_cfa_offset 8
  82              		.cfi_offset 4, -8
  83              		.cfi_offset 14, -4
 189:Generated_Source\PSoC5/WaveDAC8.c **** 	/* Turn off internal clock, if one present */
 190:Generated_Source\PSoC5/WaveDAC8.c **** 	#if(WaveDAC8_CLOCK_SRC == WaveDAC8_CLOCK_INT)  	
 191:Generated_Source\PSoC5/WaveDAC8.c **** 	   WaveDAC8_DacClk_Stop();
  84              		.loc 1 191 0
  85 0002 FFF7FEFF 		bl	WaveDAC8_DacClk_Stop
  86              	.LVL6:
 192:Generated_Source\PSoC5/WaveDAC8.c **** 	#endif /* WaveDAC8_CLOCK_SRC == WaveDAC8_CLOCK_INT */
 193:Generated_Source\PSoC5/WaveDAC8.c **** 	
 194:Generated_Source\PSoC5/WaveDAC8.c **** 	/* Disble DMA channels */
 195:Generated_Source\PSoC5/WaveDAC8.c **** 	(void)CyDmaChDisable(WaveDAC8_Wave1Chan);
  87              		.loc 1 195 0
  88 0006 054C     		ldr	r4, .L7
  89 0008 2078     		ldrb	r0, [r4]	@ zero_extendqisi2
  90 000a FFF7FEFF 		bl	CyDmaChDisable
ARM GAS  C:\Users\vboxuser\AppData\Local\Temp\ccGie09d.s 			page 6


  91              	.LVL7:
 196:Generated_Source\PSoC5/WaveDAC8.c **** 	(void)CyDmaChDisable(WaveDAC8_Wave2Chan);
  92              		.loc 1 196 0
  93 000e 6078     		ldrb	r0, [r4, #1]	@ zero_extendqisi2
  94 0010 FFF7FEFF 		bl	CyDmaChDisable
  95              	.LVL8:
 197:Generated_Source\PSoC5/WaveDAC8.c **** 
 198:Generated_Source\PSoC5/WaveDAC8.c **** 	/* Disable power to DAC */
 199:Generated_Source\PSoC5/WaveDAC8.c **** 	WaveDAC8_VDAC8_Stop();
  96              		.loc 1 199 0
  97 0014 FFF7FEFF 		bl	WaveDAC8_VDAC8_Stop
  98              	.LVL9:
  99 0018 10BD     		pop	{r4, pc}
 100              	.L8:
 101 001a 00BF     		.align	2
 102              	.L7:
 103 001c 00000000 		.word	.LANCHOR0
 104              		.cfi_endproc
 105              	.LFE4:
 106              		.size	WaveDAC8_Stop, .-WaveDAC8_Stop
 107              		.section	.text.WaveDAC8_Wave1Setup,"ax",%progbits
 108              		.align	2
 109              		.global	WaveDAC8_Wave1Setup
 110              		.thumb
 111              		.thumb_func
 112              		.type	WaveDAC8_Wave1Setup, %function
 113              	WaveDAC8_Wave1Setup:
 114              	.LFB5:
 200:Generated_Source\PSoC5/WaveDAC8.c **** }
 201:Generated_Source\PSoC5/WaveDAC8.c **** 
 202:Generated_Source\PSoC5/WaveDAC8.c **** 
 203:Generated_Source\PSoC5/WaveDAC8.c **** /*******************************************************************************
 204:Generated_Source\PSoC5/WaveDAC8.c **** * Function Name: WaveDAC8_Wave1Setup
 205:Generated_Source\PSoC5/WaveDAC8.c **** ********************************************************************************
 206:Generated_Source\PSoC5/WaveDAC8.c **** *
 207:Generated_Source\PSoC5/WaveDAC8.c **** * Summary:
 208:Generated_Source\PSoC5/WaveDAC8.c **** *  Sets pointer and size for waveform 1.                                    
 209:Generated_Source\PSoC5/WaveDAC8.c **** *
 210:Generated_Source\PSoC5/WaveDAC8.c **** * Parameters:  
 211:Generated_Source\PSoC5/WaveDAC8.c **** *  uint8 * WavePtr:     Pointer to the waveform array.
 212:Generated_Source\PSoC5/WaveDAC8.c **** *  uint16  SampleSize:  The amount of samples in the waveform.
 213:Generated_Source\PSoC5/WaveDAC8.c **** *
 214:Generated_Source\PSoC5/WaveDAC8.c **** * Return: 
 215:Generated_Source\PSoC5/WaveDAC8.c **** *  None 
 216:Generated_Source\PSoC5/WaveDAC8.c **** *
 217:Generated_Source\PSoC5/WaveDAC8.c **** *******************************************************************************/
 218:Generated_Source\PSoC5/WaveDAC8.c **** void WaveDAC8_Wave1Setup(const uint8 * wavePtr, uint16 sampleSize)
 219:Generated_Source\PSoC5/WaveDAC8.c **** 
 220:Generated_Source\PSoC5/WaveDAC8.c **** {
 115              		.loc 1 220 0
 116              		.cfi_startproc
 117              		@ args = 0, pretend = 0, frame = 0
 118              		@ frame_needed = 0, uses_anonymous_args = 0
 119              	.LVL10:
 120 0000 70B5     		push	{r4, r5, r6, lr}
 121              		.cfi_def_cfa_offset 16
 122              		.cfi_offset 4, -16
ARM GAS  C:\Users\vboxuser\AppData\Local\Temp\ccGie09d.s 			page 7


 123              		.cfi_offset 5, -12
 124              		.cfi_offset 6, -8
 125              		.cfi_offset 14, -4
 126 0002 0546     		mov	r5, r0
 127 0004 0E46     		mov	r6, r1
 221:Generated_Source\PSoC5/WaveDAC8.c **** 	#if (CY_PSOC3)
 222:Generated_Source\PSoC5/WaveDAC8.c **** 		uint16 memoryType; /* determining the source memory type */
 223:Generated_Source\PSoC5/WaveDAC8.c **** 		memoryType = (WaveDAC8_HI16FLASHPTR == HI16(wavePtr)) ? HI16(CYDEV_FLS_BASE) : HI16(CYDEV_SRAM_BA
 224:Generated_Source\PSoC5/WaveDAC8.c **** 		
 225:Generated_Source\PSoC5/WaveDAC8.c **** 		WaveDAC8_Wave1Chan = WaveDAC8_Wave1_DMA_DmaInitialize(
 226:Generated_Source\PSoC5/WaveDAC8.c **** 		WaveDAC8_Wave1_DMA_BYTES_PER_BURST, WaveDAC8_Wave1_DMA_REQUEST_PER_BURST,
 227:Generated_Source\PSoC5/WaveDAC8.c **** 		memoryType, HI16(CYDEV_PERIPH_BASE));
 228:Generated_Source\PSoC5/WaveDAC8.c **** 	#else /* PSoC 5 */
 229:Generated_Source\PSoC5/WaveDAC8.c **** 		WaveDAC8_Wave1Chan = WaveDAC8_Wave1_DMA_DmaInitialize(
 128              		.loc 1 229 0
 129 0006 4FF48043 		mov	r3, #16384
 130 000a 020C     		lsrs	r2, r0, #16
 131 000c 0121     		movs	r1, #1
 132              	.LVL11:
 133 000e 0846     		mov	r0, r1
 134              	.LVL12:
 135 0010 FFF7FEFF 		bl	WaveDAC8_Wave1_DMA_DmaInitialize
 136              	.LVL13:
 137 0014 094C     		ldr	r4, .L11
 138 0016 2070     		strb	r0, [r4]
 230:Generated_Source\PSoC5/WaveDAC8.c **** 		WaveDAC8_Wave1_DMA_BYTES_PER_BURST, WaveDAC8_Wave1_DMA_REQUEST_PER_BURST,
 231:Generated_Source\PSoC5/WaveDAC8.c **** 		HI16(wavePtr), HI16(WaveDAC8_DAC8__D));
 232:Generated_Source\PSoC5/WaveDAC8.c **** 	#endif /* CY_PSOC3 */
 233:Generated_Source\PSoC5/WaveDAC8.c **** 	
 234:Generated_Source\PSoC5/WaveDAC8.c **** 	/*
 235:Generated_Source\PSoC5/WaveDAC8.c **** 	* TD is looping on itself. 
 236:Generated_Source\PSoC5/WaveDAC8.c ****     * Increment the source address, but not the destination address. 
 237:Generated_Source\PSoC5/WaveDAC8.c **** 	*/
 238:Generated_Source\PSoC5/WaveDAC8.c **** 	(void)CyDmaTdSetConfiguration(WaveDAC8_Wave1TD, sampleSize, WaveDAC8_Wave1TD, 
 139              		.loc 1 238 0
 140 0018 A078     		ldrb	r0, [r4, #2]	@ zero_extendqisi2
 141 001a 0123     		movs	r3, #1
 142 001c 0246     		mov	r2, r0
 143 001e 3146     		mov	r1, r6
 144 0020 FFF7FEFF 		bl	CyDmaTdSetConfiguration
 145              	.LVL14:
 239:Generated_Source\PSoC5/WaveDAC8.c ****                                     (uint8)CY_DMA_TD_INC_SRC_ADR | (uint8)WaveDAC8_Wave1_DMA__TD_TE
 240:Generated_Source\PSoC5/WaveDAC8.c **** 	
 241:Generated_Source\PSoC5/WaveDAC8.c **** 	/* Set the TD source and destination address */
 242:Generated_Source\PSoC5/WaveDAC8.c **** 	(void)CyDmaTdSetAddress(WaveDAC8_Wave1TD, LO16((uint32)wavePtr), LO16(WaveDAC8_DAC8__D));
 146              		.loc 1 242 0
 147 0024 45F68332 		movw	r2, #23427
 148 0028 A9B2     		uxth	r1, r5
 149 002a A078     		ldrb	r0, [r4, #2]	@ zero_extendqisi2
 150 002c FFF7FEFF 		bl	CyDmaTdSetAddress
 151              	.LVL15:
 243:Generated_Source\PSoC5/WaveDAC8.c **** 	
 244:Generated_Source\PSoC5/WaveDAC8.c **** 	/* Associate the TD with the channel */
 245:Generated_Source\PSoC5/WaveDAC8.c **** 	(void)CyDmaChSetInitialTd(WaveDAC8_Wave1Chan, WaveDAC8_Wave1TD);
 152              		.loc 1 245 0
 153 0030 A178     		ldrb	r1, [r4, #2]	@ zero_extendqisi2
 154 0032 2078     		ldrb	r0, [r4]	@ zero_extendqisi2
ARM GAS  C:\Users\vboxuser\AppData\Local\Temp\ccGie09d.s 			page 8


 155 0034 FFF7FEFF 		bl	CyDmaChSetInitialTd
 156              	.LVL16:
 157 0038 70BD     		pop	{r4, r5, r6, pc}
 158              	.LVL17:
 159              	.L12:
 160 003a 00BF     		.align	2
 161              	.L11:
 162 003c 00000000 		.word	.LANCHOR0
 163              		.cfi_endproc
 164              	.LFE5:
 165              		.size	WaveDAC8_Wave1Setup, .-WaveDAC8_Wave1Setup
 166              		.section	.text.WaveDAC8_Wave2Setup,"ax",%progbits
 167              		.align	2
 168              		.global	WaveDAC8_Wave2Setup
 169              		.thumb
 170              		.thumb_func
 171              		.type	WaveDAC8_Wave2Setup, %function
 172              	WaveDAC8_Wave2Setup:
 173              	.LFB6:
 246:Generated_Source\PSoC5/WaveDAC8.c **** }
 247:Generated_Source\PSoC5/WaveDAC8.c **** 
 248:Generated_Source\PSoC5/WaveDAC8.c **** 
 249:Generated_Source\PSoC5/WaveDAC8.c **** /*******************************************************************************
 250:Generated_Source\PSoC5/WaveDAC8.c **** * Function Name: WaveDAC8_Wave2Setup
 251:Generated_Source\PSoC5/WaveDAC8.c **** ********************************************************************************
 252:Generated_Source\PSoC5/WaveDAC8.c **** *
 253:Generated_Source\PSoC5/WaveDAC8.c **** * Summary:
 254:Generated_Source\PSoC5/WaveDAC8.c **** *  Sets pointer and size for waveform 2.                                    
 255:Generated_Source\PSoC5/WaveDAC8.c **** *
 256:Generated_Source\PSoC5/WaveDAC8.c **** * Parameters:  
 257:Generated_Source\PSoC5/WaveDAC8.c **** *  uint8 * WavePtr:     Pointer to the waveform array.
 258:Generated_Source\PSoC5/WaveDAC8.c **** *  uint16  SampleSize:  The amount of samples in the waveform.
 259:Generated_Source\PSoC5/WaveDAC8.c **** *
 260:Generated_Source\PSoC5/WaveDAC8.c **** * Return: 
 261:Generated_Source\PSoC5/WaveDAC8.c **** *  None
 262:Generated_Source\PSoC5/WaveDAC8.c **** *
 263:Generated_Source\PSoC5/WaveDAC8.c **** *******************************************************************************/
 264:Generated_Source\PSoC5/WaveDAC8.c **** void WaveDAC8_Wave2Setup(const uint8 * wavePtr, uint16 sampleSize)
 265:Generated_Source\PSoC5/WaveDAC8.c ****  
 266:Generated_Source\PSoC5/WaveDAC8.c **** {
 174              		.loc 1 266 0
 175              		.cfi_startproc
 176              		@ args = 0, pretend = 0, frame = 0
 177              		@ frame_needed = 0, uses_anonymous_args = 0
 178              	.LVL18:
 179 0000 70B5     		push	{r4, r5, r6, lr}
 180              		.cfi_def_cfa_offset 16
 181              		.cfi_offset 4, -16
 182              		.cfi_offset 5, -12
 183              		.cfi_offset 6, -8
 184              		.cfi_offset 14, -4
 185 0002 0546     		mov	r5, r0
 186 0004 0E46     		mov	r6, r1
 267:Generated_Source\PSoC5/WaveDAC8.c **** 	#if (CY_PSOC3)
 268:Generated_Source\PSoC5/WaveDAC8.c **** 		uint16 memoryType; /* determining the source memory type */
 269:Generated_Source\PSoC5/WaveDAC8.c **** 		memoryType = (WaveDAC8_HI16FLASHPTR == HI16(wavePtr)) ? HI16(CYDEV_FLS_BASE) : HI16(CYDEV_SRAM_BA
 270:Generated_Source\PSoC5/WaveDAC8.c **** 			
ARM GAS  C:\Users\vboxuser\AppData\Local\Temp\ccGie09d.s 			page 9


 271:Generated_Source\PSoC5/WaveDAC8.c **** 		WaveDAC8_Wave2Chan = WaveDAC8_Wave2_DMA_DmaInitialize(
 272:Generated_Source\PSoC5/WaveDAC8.c **** 		WaveDAC8_Wave2_DMA_BYTES_PER_BURST, WaveDAC8_Wave2_DMA_REQUEST_PER_BURST,
 273:Generated_Source\PSoC5/WaveDAC8.c **** 		memoryType, HI16(CYDEV_PERIPH_BASE));
 274:Generated_Source\PSoC5/WaveDAC8.c **** 	#else /* PSoC 5 */
 275:Generated_Source\PSoC5/WaveDAC8.c **** 		WaveDAC8_Wave2Chan = WaveDAC8_Wave2_DMA_DmaInitialize(
 187              		.loc 1 275 0
 188 0006 4FF48043 		mov	r3, #16384
 189 000a 020C     		lsrs	r2, r0, #16
 190 000c 0121     		movs	r1, #1
 191              	.LVL19:
 192 000e 0846     		mov	r0, r1
 193              	.LVL20:
 194 0010 FFF7FEFF 		bl	WaveDAC8_Wave2_DMA_DmaInitialize
 195              	.LVL21:
 196 0014 094C     		ldr	r4, .L15
 197 0016 6070     		strb	r0, [r4, #1]
 276:Generated_Source\PSoC5/WaveDAC8.c **** 		WaveDAC8_Wave2_DMA_BYTES_PER_BURST, WaveDAC8_Wave2_DMA_REQUEST_PER_BURST,
 277:Generated_Source\PSoC5/WaveDAC8.c **** 		HI16(wavePtr), HI16(WaveDAC8_DAC8__D));
 278:Generated_Source\PSoC5/WaveDAC8.c **** 	#endif /* CY_PSOC3 */
 279:Generated_Source\PSoC5/WaveDAC8.c **** 	
 280:Generated_Source\PSoC5/WaveDAC8.c **** 	/*
 281:Generated_Source\PSoC5/WaveDAC8.c **** 	* TD is looping on itself. 
 282:Generated_Source\PSoC5/WaveDAC8.c **** 	* Increment the source address, but not the destination address. 
 283:Generated_Source\PSoC5/WaveDAC8.c **** 	*/
 284:Generated_Source\PSoC5/WaveDAC8.c **** 	(void)CyDmaTdSetConfiguration(WaveDAC8_Wave2TD, sampleSize, WaveDAC8_Wave2TD, 
 198              		.loc 1 284 0
 199 0018 E078     		ldrb	r0, [r4, #3]	@ zero_extendqisi2
 200 001a 0123     		movs	r3, #1
 201 001c 0246     		mov	r2, r0
 202 001e 3146     		mov	r1, r6
 203 0020 FFF7FEFF 		bl	CyDmaTdSetConfiguration
 204              	.LVL22:
 285:Generated_Source\PSoC5/WaveDAC8.c ****                                     (uint8)CY_DMA_TD_INC_SRC_ADR | (uint8)WaveDAC8_Wave2_DMA__TD_TE
 286:Generated_Source\PSoC5/WaveDAC8.c **** 	
 287:Generated_Source\PSoC5/WaveDAC8.c **** 	/* Set the TD source and destination address */
 288:Generated_Source\PSoC5/WaveDAC8.c **** 	(void)CyDmaTdSetAddress(WaveDAC8_Wave2TD, LO16((uint32)wavePtr), LO16(WaveDAC8_DAC8__D));
 205              		.loc 1 288 0
 206 0024 45F68332 		movw	r2, #23427
 207 0028 A9B2     		uxth	r1, r5
 208 002a E078     		ldrb	r0, [r4, #3]	@ zero_extendqisi2
 209 002c FFF7FEFF 		bl	CyDmaTdSetAddress
 210              	.LVL23:
 289:Generated_Source\PSoC5/WaveDAC8.c **** 	
 290:Generated_Source\PSoC5/WaveDAC8.c **** 	/* Associate the TD with the channel */
 291:Generated_Source\PSoC5/WaveDAC8.c **** 	(void)CyDmaChSetInitialTd(WaveDAC8_Wave2Chan, WaveDAC8_Wave2TD);
 211              		.loc 1 291 0
 212 0030 E178     		ldrb	r1, [r4, #3]	@ zero_extendqisi2
 213 0032 6078     		ldrb	r0, [r4, #1]	@ zero_extendqisi2
 214 0034 FFF7FEFF 		bl	CyDmaChSetInitialTd
 215              	.LVL24:
 216 0038 70BD     		pop	{r4, r5, r6, pc}
 217              	.LVL25:
 218              	.L16:
 219 003a 00BF     		.align	2
 220              	.L15:
 221 003c 00000000 		.word	.LANCHOR0
 222              		.cfi_endproc
ARM GAS  C:\Users\vboxuser\AppData\Local\Temp\ccGie09d.s 			page 10


 223              	.LFE6:
 224              		.size	WaveDAC8_Wave2Setup, .-WaveDAC8_Wave2Setup
 225              		.section	.text.WaveDAC8_Init,"ax",%progbits
 226              		.align	2
 227              		.global	WaveDAC8_Init
 228              		.thumb
 229              		.thumb_func
 230              		.type	WaveDAC8_Init, %function
 231              	WaveDAC8_Init:
 232              	.LFB0:
  44:Generated_Source\PSoC5/WaveDAC8.c **** 	WaveDAC8_VDAC8_Init();
 233              		.loc 1 44 0
 234              		.cfi_startproc
 235              		@ args = 0, pretend = 0, frame = 0
 236              		@ frame_needed = 0, uses_anonymous_args = 0
 237 0000 10B5     		push	{r4, lr}
 238              		.cfi_def_cfa_offset 8
 239              		.cfi_offset 4, -8
 240              		.cfi_offset 14, -4
  45:Generated_Source\PSoC5/WaveDAC8.c **** 	WaveDAC8_VDAC8_SetSpeed(WaveDAC8_HIGHSPEED);
 241              		.loc 1 45 0
 242 0002 FFF7FEFF 		bl	WaveDAC8_VDAC8_Init
 243              	.LVL26:
  46:Generated_Source\PSoC5/WaveDAC8.c **** 	WaveDAC8_VDAC8_SetRange(WaveDAC8_DAC_RANGE);
 244              		.loc 1 46 0
 245 0006 0220     		movs	r0, #2
 246 0008 FFF7FEFF 		bl	WaveDAC8_VDAC8_SetSpeed
 247              	.LVL27:
  47:Generated_Source\PSoC5/WaveDAC8.c **** 
 248              		.loc 1 47 0
 249 000c 0420     		movs	r0, #4
 250 000e FFF7FEFF 		bl	WaveDAC8_VDAC8_SetRange
 251              	.LVL28:
  54:Generated_Source\PSoC5/WaveDAC8.c **** 	#endif /* WaveDAC8_OUT_MODE == WaveDAC8_BUFFER_MODE */
 252              		.loc 1 54 0
 253 0012 FFF7FEFF 		bl	WaveDAC8_BuffAmp_Init
 254              	.LVL29:
  58:Generated_Source\PSoC5/WaveDAC8.c **** 	WaveDAC8_Wave2TD = CyDmaTdAllocate();
 255              		.loc 1 58 0
 256 0016 FFF7FEFF 		bl	CyDmaTdAllocate
 257              	.LVL30:
 258 001a 074C     		ldr	r4, .L19
 259 001c A070     		strb	r0, [r4, #2]
  59:Generated_Source\PSoC5/WaveDAC8.c **** 	
 260              		.loc 1 59 0
 261 001e FFF7FEFF 		bl	CyDmaTdAllocate
 262              	.LVL31:
 263 0022 E070     		strb	r0, [r4, #3]
  62:Generated_Source\PSoC5/WaveDAC8.c **** 	WaveDAC8_Wave2Setup(WaveDAC8_wave2, WaveDAC8_WAVE2_LENGTH) ;
 264              		.loc 1 62 0
 265 0024 054C     		ldr	r4, .L19+4
 266 0026 6421     		movs	r1, #100
 267 0028 2046     		mov	r0, r4
 268 002a FFF7FEFF 		bl	WaveDAC8_Wave1Setup
 269              	.LVL32:
  63:Generated_Source\PSoC5/WaveDAC8.c **** 	
 270              		.loc 1 63 0
ARM GAS  C:\Users\vboxuser\AppData\Local\Temp\ccGie09d.s 			page 11


 271 002e 6421     		movs	r1, #100
 272 0030 6018     		adds	r0, r4, r1
 273 0032 FFF7FEFF 		bl	WaveDAC8_Wave2Setup
 274              	.LVL33:
 275 0036 10BD     		pop	{r4, pc}
 276              	.L20:
 277              		.align	2
 278              	.L19:
 279 0038 00000000 		.word	.LANCHOR0
 280 003c 00000000 		.word	.LANCHOR1
 281              		.cfi_endproc
 282              	.LFE0:
 283              		.size	WaveDAC8_Init, .-WaveDAC8_Init
 284              		.section	.text.WaveDAC8_Start,"ax",%progbits
 285              		.align	2
 286              		.global	WaveDAC8_Start
 287              		.thumb
 288              		.thumb_func
 289              		.type	WaveDAC8_Start, %function
 290              	WaveDAC8_Start:
 291              	.LFB2:
 130:Generated_Source\PSoC5/WaveDAC8.c **** 	/* If not Initialized then initialize all required hardware and software */
 292              		.loc 1 130 0
 293              		.cfi_startproc
 294              		@ args = 0, pretend = 0, frame = 0
 295              		@ frame_needed = 0, uses_anonymous_args = 0
 296 0000 08B5     		push	{r3, lr}
 297              		.cfi_def_cfa_offset 8
 298              		.cfi_offset 3, -8
 299              		.cfi_offset 14, -4
 132:Generated_Source\PSoC5/WaveDAC8.c **** 	{
 300              		.loc 1 132 0
 301 0002 054B     		ldr	r3, .L24
 302 0004 1B79     		ldrb	r3, [r3, #4]	@ zero_extendqisi2
 303 0006 23B9     		cbnz	r3, .L22
 134:Generated_Source\PSoC5/WaveDAC8.c **** 		WaveDAC8_initVar = 1u;
 304              		.loc 1 134 0
 305 0008 FFF7FEFF 		bl	WaveDAC8_Init
 306              	.LVL34:
 135:Generated_Source\PSoC5/WaveDAC8.c **** 	}
 307              		.loc 1 135 0
 308 000c 0122     		movs	r2, #1
 309 000e 024B     		ldr	r3, .L24
 310 0010 1A71     		strb	r2, [r3, #4]
 311              	.L22:
 138:Generated_Source\PSoC5/WaveDAC8.c **** }
 312              		.loc 1 138 0
 313 0012 FFF7FEFF 		bl	WaveDAC8_Enable
 314              	.LVL35:
 315 0016 08BD     		pop	{r3, pc}
 316              	.L25:
 317              		.align	2
 318              	.L24:
 319 0018 00000000 		.word	.LANCHOR0
 320              		.cfi_endproc
 321              	.LFE2:
 322              		.size	WaveDAC8_Start, .-WaveDAC8_Start
ARM GAS  C:\Users\vboxuser\AppData\Local\Temp\ccGie09d.s 			page 12


 323              		.section	.text.WaveDAC8_StartEx,"ax",%progbits
 324              		.align	2
 325              		.global	WaveDAC8_StartEx
 326              		.thumb
 327              		.thumb_func
 328              		.type	WaveDAC8_StartEx, %function
 329              	WaveDAC8_StartEx:
 330              	.LFB3:
 165:Generated_Source\PSoC5/WaveDAC8.c **** 	WaveDAC8_Wave1Setup(wavePtr1, sampleSize1);
 331              		.loc 1 165 0
 332              		.cfi_startproc
 333              		@ args = 0, pretend = 0, frame = 0
 334              		@ frame_needed = 0, uses_anonymous_args = 0
 335              	.LVL36:
 336 0000 38B5     		push	{r3, r4, r5, lr}
 337              		.cfi_def_cfa_offset 16
 338              		.cfi_offset 3, -16
 339              		.cfi_offset 4, -12
 340              		.cfi_offset 5, -8
 341              		.cfi_offset 14, -4
 342 0002 1446     		mov	r4, r2
 343 0004 1D46     		mov	r5, r3
 166:Generated_Source\PSoC5/WaveDAC8.c **** 	WaveDAC8_Wave2Setup(wavePtr2, sampleSize2);
 344              		.loc 1 166 0
 345 0006 FFF7FEFF 		bl	WaveDAC8_Wave1Setup
 346              	.LVL37:
 167:Generated_Source\PSoC5/WaveDAC8.c **** 	WaveDAC8_Start();
 347              		.loc 1 167 0
 348 000a 2946     		mov	r1, r5
 349 000c 2046     		mov	r0, r4
 350 000e FFF7FEFF 		bl	WaveDAC8_Wave2Setup
 351              	.LVL38:
 168:Generated_Source\PSoC5/WaveDAC8.c **** }
 352              		.loc 1 168 0
 353 0012 FFF7FEFF 		bl	WaveDAC8_Start
 354              	.LVL39:
 355 0016 38BD     		pop	{r3, r4, r5, pc}
 356              		.cfi_endproc
 357              	.LFE3:
 358              		.size	WaveDAC8_StartEx, .-WaveDAC8_StartEx
 359              		.global	WaveDAC8_wave2
 360              		.global	WaveDAC8_wave1
 361              		.global	WaveDAC8_initVar
 362              		.section	.rodata
 363              		.align	2
 364              		.set	.LANCHOR1,. + 0
 365              		.type	WaveDAC8_wave1, %object
 366              		.size	WaveDAC8_wave1, 100
 367              	WaveDAC8_wave1:
 368 0000 70       		.byte	112
 369 0001 74       		.byte	116
 370 0002 78       		.byte	120
 371 0003 7C       		.byte	124
 372 0004 80       		.byte	-128
 373 0005 84       		.byte	-124
 374 0006 88       		.byte	-120
 375 0007 8B       		.byte	-117
ARM GAS  C:\Users\vboxuser\AppData\Local\Temp\ccGie09d.s 			page 13


 376 0008 8F       		.byte	-113
 377 0009 92       		.byte	-110
 378 000a 95       		.byte	-107
 379 000b 98       		.byte	-104
 380 000c 9B       		.byte	-101
 381 000d 9E       		.byte	-98
 382 000e A1       		.byte	-95
 383 000f A3       		.byte	-93
 384 0010 A5       		.byte	-91
 385 0011 A7       		.byte	-89
 386 0012 A9       		.byte	-87
 387 0013 AB       		.byte	-85
 388 0014 AC       		.byte	-84
 389 0015 AD       		.byte	-83
 390 0016 AE       		.byte	-82
 391 0017 AF       		.byte	-81
 392 0018 AF       		.byte	-81
 393 0019 AF       		.byte	-81
 394 001a AF       		.byte	-81
 395 001b AF       		.byte	-81
 396 001c AE       		.byte	-82
 397 001d AD       		.byte	-83
 398 001e AC       		.byte	-84
 399 001f AB       		.byte	-85
 400 0020 A9       		.byte	-87
 401 0021 A7       		.byte	-89
 402 0022 A5       		.byte	-91
 403 0023 A3       		.byte	-93
 404 0024 A1       		.byte	-95
 405 0025 9E       		.byte	-98
 406 0026 9B       		.byte	-101
 407 0027 98       		.byte	-104
 408 0028 95       		.byte	-107
 409 0029 92       		.byte	-110
 410 002a 8F       		.byte	-113
 411 002b 8B       		.byte	-117
 412 002c 88       		.byte	-120
 413 002d 84       		.byte	-124
 414 002e 80       		.byte	-128
 415 002f 7C       		.byte	124
 416 0030 78       		.byte	120
 417 0031 74       		.byte	116
 418 0032 71       		.byte	113
 419 0033 6D       		.byte	109
 420 0034 69       		.byte	105
 421 0035 65       		.byte	101
 422 0036 61       		.byte	97
 423 0037 5D       		.byte	93
 424 0038 59       		.byte	89
 425 0039 56       		.byte	86
 426 003a 52       		.byte	82
 427 003b 4F       		.byte	79
 428 003c 4C       		.byte	76
 429 003d 49       		.byte	73
 430 003e 46       		.byte	70
 431 003f 43       		.byte	67
 432 0040 40       		.byte	64
ARM GAS  C:\Users\vboxuser\AppData\Local\Temp\ccGie09d.s 			page 14


 433 0041 3E       		.byte	62
 434 0042 3C       		.byte	60
 435 0043 3A       		.byte	58
 436 0044 38       		.byte	56
 437 0045 36       		.byte	54
 438 0046 35       		.byte	53
 439 0047 34       		.byte	52
 440 0048 33       		.byte	51
 441 0049 32       		.byte	50
 442 004a 32       		.byte	50
 443 004b 32       		.byte	50
 444 004c 32       		.byte	50
 445 004d 32       		.byte	50
 446 004e 33       		.byte	51
 447 004f 34       		.byte	52
 448 0050 35       		.byte	53
 449 0051 36       		.byte	54
 450 0052 38       		.byte	56
 451 0053 3A       		.byte	58
 452 0054 3C       		.byte	60
 453 0055 3E       		.byte	62
 454 0056 40       		.byte	64
 455 0057 43       		.byte	67
 456 0058 46       		.byte	70
 457 0059 49       		.byte	73
 458 005a 4C       		.byte	76
 459 005b 4F       		.byte	79
 460 005c 52       		.byte	82
 461 005d 56       		.byte	86
 462 005e 59       		.byte	89
 463 005f 5D       		.byte	93
 464 0060 61       		.byte	97
 465 0061 65       		.byte	101
 466 0062 69       		.byte	105
 467 0063 6D       		.byte	109
 468              		.type	WaveDAC8_wave2, %object
 469              		.size	WaveDAC8_wave2, 100
 470              	WaveDAC8_wave2:
 471 0064 80       		.byte	-128
 472 0065 84       		.byte	-124
 473 0066 8A       		.byte	-118
 474 0067 8F       		.byte	-113
 475 0068 94       		.byte	-108
 476 0069 98       		.byte	-104
 477 006a 9E       		.byte	-98
 478 006b A2       		.byte	-94
 479 006c A8       		.byte	-88
 480 006d AC       		.byte	-84
 481 006e B2       		.byte	-78
 482 006f B6       		.byte	-74
 483 0070 BC       		.byte	-68
 484 0071 C0       		.byte	-64
 485 0072 C6       		.byte	-58
 486 0073 CA       		.byte	-54
 487 0074 D0       		.byte	-48
 488 0075 D5       		.byte	-43
 489 0076 DA       		.byte	-38
ARM GAS  C:\Users\vboxuser\AppData\Local\Temp\ccGie09d.s 			page 15


 490 0077 DE       		.byte	-34
 491 0078 E4       		.byte	-28
 492 0079 E8       		.byte	-24
 493 007a EE       		.byte	-18
 494 007b F2       		.byte	-14
 495 007c F8       		.byte	-8
 496 007d FC       		.byte	-4
 497 007e F8       		.byte	-8
 498 007f F2       		.byte	-14
 499 0080 EE       		.byte	-18
 500 0081 E8       		.byte	-24
 501 0082 E4       		.byte	-28
 502 0083 DE       		.byte	-34
 503 0084 DA       		.byte	-38
 504 0085 D4       		.byte	-44
 505 0086 D0       		.byte	-48
 506 0087 CA       		.byte	-54
 507 0088 C6       		.byte	-58
 508 0089 C0       		.byte	-64
 509 008a BC       		.byte	-68
 510 008b B6       		.byte	-74
 511 008c B2       		.byte	-78
 512 008d AD       		.byte	-83
 513 008e A8       		.byte	-88
 514 008f A2       		.byte	-94
 515 0090 9E       		.byte	-98
 516 0091 98       		.byte	-104
 517 0092 94       		.byte	-108
 518 0093 8F       		.byte	-113
 519 0094 8A       		.byte	-118
 520 0095 84       		.byte	-124
 521 0096 80       		.byte	-128
 522 0097 7A       		.byte	122
 523 0098 76       		.byte	118
 524 0099 70       		.byte	112
 525 009a 6B       		.byte	107
 526 009b 66       		.byte	102
 527 009c 61       		.byte	97
 528 009d 5D       		.byte	93
 529 009e 58       		.byte	88
 530 009f 53       		.byte	83
 531 00a0 4E       		.byte	78
 532 00a1 49       		.byte	73
 533 00a2 44       		.byte	68
 534 00a3 3E       		.byte	62
 535 00a4 39       		.byte	57
 536 00a5 34       		.byte	52
 537 00a6 2F       		.byte	47
 538 00a7 2A       		.byte	42
 539 00a8 25       		.byte	37
 540 00a9 21       		.byte	33
 541 00aa 1C       		.byte	28
 542 00ab 17       		.byte	23
 543 00ac 12       		.byte	18
 544 00ad 0D       		.byte	13
 545 00ae 08       		.byte	8
 546 00af 03       		.byte	3
ARM GAS  C:\Users\vboxuser\AppData\Local\Temp\ccGie09d.s 			page 16


 547 00b0 08       		.byte	8
 548 00b1 0D       		.byte	13
 549 00b2 12       		.byte	18
 550 00b3 17       		.byte	23
 551 00b4 1C       		.byte	28
 552 00b5 21       		.byte	33
 553 00b6 25       		.byte	37
 554 00b7 2A       		.byte	42
 555 00b8 2F       		.byte	47
 556 00b9 34       		.byte	52
 557 00ba 39       		.byte	57
 558 00bb 3E       		.byte	62
 559 00bc 44       		.byte	68
 560 00bd 49       		.byte	73
 561 00be 4E       		.byte	78
 562 00bf 53       		.byte	83
 563 00c0 58       		.byte	88
 564 00c1 5D       		.byte	93
 565 00c2 61       		.byte	97
 566 00c3 66       		.byte	102
 567 00c4 6B       		.byte	107
 568 00c5 70       		.byte	112
 569 00c6 76       		.byte	118
 570 00c7 7A       		.byte	122
 571              		.bss
 572              		.set	.LANCHOR0,. + 0
 573              		.type	WaveDAC8_Wave1Chan, %object
 574              		.size	WaveDAC8_Wave1Chan, 1
 575              	WaveDAC8_Wave1Chan:
 576 0000 00       		.space	1
 577              		.type	WaveDAC8_Wave2Chan, %object
 578              		.size	WaveDAC8_Wave2Chan, 1
 579              	WaveDAC8_Wave2Chan:
 580 0001 00       		.space	1
 581              		.type	WaveDAC8_Wave1TD, %object
 582              		.size	WaveDAC8_Wave1TD, 1
 583              	WaveDAC8_Wave1TD:
 584 0002 00       		.space	1
 585              		.type	WaveDAC8_Wave2TD, %object
 586              		.size	WaveDAC8_Wave2TD, 1
 587              	WaveDAC8_Wave2TD:
 588 0003 00       		.space	1
 589              		.type	WaveDAC8_initVar, %object
 590              		.size	WaveDAC8_initVar, 1
 591              	WaveDAC8_initVar:
 592 0004 00       		.space	1
 593              		.text
 594              	.Letext0:
 595              		.file 2 "Generated_Source\\PSoC5\\cytypes.h"
 596              		.file 3 "Generated_Source\\PSoC5/WaveDAC8_VDAC8.h"
 597              		.file 4 "Generated_Source\\PSoC5/WaveDAC8_BuffAmp.h"
 598              		.file 5 "Generated_Source\\PSoC5/CYDMAC.H"
 599              		.file 6 "Generated_Source\\PSoC5/WaveDAC8_DacClk.h"
 600              		.file 7 "Generated_Source\\PSoC5/WaveDAC8_Wave1_DMA_dma.h"
 601              		.file 8 "Generated_Source\\PSoC5/WaveDAC8_Wave2_DMA_dma.h"